 CloverGame

 Timestamp is 67115394 (Thu Oct 17 13:12:36 2024)

 Preferred load address is 0000000180000000

 Start         Length     Name                   Class
 0001:00000000 00014930H .text$di                CODE
 0001:00014930 002e9670H .text$mn                CODE
 0001:002fdfa0 00001040H .text$mn$00             CODE
 0001:002fefe0 00001f40H .text$mn$21             CODE
 0001:00300f20 00002190H .text$x                 CODE
 0001:003030b0 0000101bH .text$yd                CODE
 0002:00000000 00000110H .CRT$XCA                DATA
 0002:00000110 00000110H .CRT$XCU                DATA
 0002:00000220 00000110H .CRT$XCZ                DATA
 0002:00000330 00000110H .CRT$XIA                DATA
 0002:00000440 00000140H .CRT$XIC                DATA
 0002:00000580 00000110H .CRT$XIZ                DATA
 0002:00000690 00000008H .CRT$XLA                DATA
 0002:00000698 00000008H .CRT$XLZ                DATA
 0002:000006a0 00000110H .CRT$XPA                DATA
 0002:000007b0 00000120H .CRT$XPX                DATA
 0002:000008d0 00000110H .CRT$XPXA               DATA
 0002:000009e0 00000110H .CRT$XPZ                DATA
 0002:00000af0 00000110H .CRT$XTA                DATA
 0002:00000c00 00000110H .CRT$XTZ                DATA
 0002:00000d10 00055b00H .rdata                  DATA
 0002:00056810 000002f0H .rdata$00               DATA
 0002:00056b00 00000200H .rdata$CastGuardVftablesA DATA
 0002:00056d00 000001a0H .rdata$CastGuardVftablesC DATA
 0002:00056ea0 00000130H .rdata$T                DATA
 0002:00056fd0 0000060cH .rdata$r                DATA
 0002:000575dc 00000164H .rdata$zzzdbg           DATA
 0002:00057740 00000110H .rtc$IAA                DATA
 0002:00057850 00000110H .rtc$IZZ                DATA
 0002:00057960 00000110H .rtc$TAA                DATA
 0002:00057a70 00000110H .rtc$TZZ                DATA
 0002:00057b80 000203c0H .xdata                  DATA
 0002:00077f40 000001a0H .xdata$x                DATA
 0002:000780e0 0000019dH .edata                  DATA
 0003:00000000 00003798H .data                   DATA
 0003:00003798 00000190H .data$r                 DATA
 0003:00003928 00000228H .data$rs                DATA
 0003:00003b50 000088f9H .bss                    DATA
 0004:00000000 000187b0H .pdata                  DATA
 0005:00000000 000005f0H .idata$5                DATA
 0005:000005f0 00000050H .idata$2                DATA
 0005:00000640 00000018H .idata$3                DATA
 0005:00000658 000005f0H .idata$4                DATA
 0005:00000c48 00000b16H .idata$6                DATA
 0006:00000000 00000108H .tls                    DATA
 0006:00000108 0000012dH .tls$                   DATA
 0006:00000235 00000101H .tls$ZZZ                DATA
 0007:00000000 00000175H .00cfg                  DATA

  Address         Publics by Value              Rva+Base               Lib:Object

 0000:00000000       __AbsoluteZero             0000000000000000     <absolute>
 0000:00000000       ___safe_se_handler_count   0000000000000000     <absolute>
 0000:00000000       ___safe_se_handler_table   0000000000000000     <absolute>
 0000:00000000       __arm64x_extra_rfe_table   0000000000000000     <absolute>
 0000:00000000       __arm64x_extra_rfe_table_size 0000000000000000     <absolute>
 0000:00000000       __arm64x_native_entrypoint 0000000000000000     <absolute>
 0000:00000000       __arm64x_redirection_metadata 0000000000000000     <absolute>
 0000:00000000       __arm64x_redirection_metadata_count 0000000000000000     <absolute>
 0000:00000000       __dynamic_value_reloc_table 0000000000000000     <absolute>
 0000:00000000       __enclave_config           0000000000000000     <absolute>
 0000:00000000       __guard_check_icall_a64n_fptr 0000000000000000     <absolute>
 0000:00000000       __guard_eh_cont_count      0000000000000000     <absolute>
 0000:00000000       __guard_eh_cont_table      0000000000000000     <absolute>
 0000:00000000       __guard_fids_count         0000000000000000     <absolute>
 0000:00000000       __guard_fids_table         0000000000000000     <absolute>
 0000:00000000       __guard_iat_count          0000000000000000     <absolute>
 0000:00000000       __guard_iat_table          0000000000000000     <absolute>
 0000:00000000       __guard_longjmp_count      0000000000000000     <absolute>
 0000:00000000       __guard_longjmp_table      0000000000000000     <absolute>
 0000:00000000       __hybrid_auxiliary_delayload_iat 0000000000000000     <absolute>
 0000:00000000       __hybrid_auxiliary_delayload_iat_copy 0000000000000000     <absolute>
 0000:00000000       __hybrid_auxiliary_iat     0000000000000000     <absolute>
 0000:00000000       __hybrid_auxiliary_iat_copy 0000000000000000     <absolute>
 0000:00000000       __hybrid_code_map          0000000000000000     <absolute>
 0000:00000000       __hybrid_code_map_count    0000000000000000     <absolute>
 0000:00000000       __hybrid_image_info_bitfield 0000000000000000     <absolute>
 0000:00000000       __volatile_metadata        0000000000000000     <absolute>
 0000:00000000       __x64_code_ranges_to_entry_points 0000000000000000     <absolute>
 0000:00000000       __x64_code_ranges_to_entry_points_count 0000000000000000     <absolute>
 0000:00000100       __guard_flags              0000000000000100     <absolute>
 0000:00000000       __ImageBase                0000000180000000     <linker-defined>
 0001:00018cb0       stbi_load_from_memory      0000000180019cb0 f   Clover.obj
 0001:00018d50       stbi_load_from_callbacks   0000000180019d50 f   Clover.obj
 0001:00018df0       stbi_load                  0000000180019df0 f   Clover.obj
 0001:00018ea0       stbi_load_from_file        0000000180019ea0 f   Clover.obj
 0001:00018f70       stbi_load_gif_from_memory  0000000180019f70 f   Clover.obj
 0001:000190c0       stbi_load_16_from_memory   000000018001a0c0 f   Clover.obj
 0001:00019160       stbi_load_16_from_callbacks 000000018001a160 f   Clover.obj
 0001:00019200       stbi_load_16               000000018001a200 f   Clover.obj
 0001:000192b0       stbi_load_from_file_16     000000018001a2b0 f   Clover.obj
 0001:00019380       stbi_loadf_from_memory     000000018001a380 f   Clover.obj
 0001:00019420       stbi_loadf_from_callbacks  000000018001a420 f   Clover.obj
 0001:000194c0       stbi_loadf                 000000018001a4c0 f   Clover.obj
 0001:00019570       stbi_loadf_from_file       000000018001a570 f   Clover.obj
 0001:00019600       stbi_hdr_to_ldr_gamma      000000018001a600 f   Clover.obj
 0001:00019630       stbi_hdr_to_ldr_scale      000000018001a630 f   Clover.obj
 0001:00019660       stbi_ldr_to_hdr_gamma      000000018001a660 f   Clover.obj
 0001:00019680       stbi_ldr_to_hdr_scale      000000018001a680 f   Clover.obj
 0001:000196a0       stbi_is_hdr_from_callbacks 000000018001a6a0 f   Clover.obj
 0001:00019710       stbi_is_hdr_from_memory    000000018001a710 f   Clover.obj
 0001:00019780       stbi_is_hdr                000000018001a780 f   Clover.obj
 0001:000197e0       stbi_is_hdr_from_file      000000018001a7e0 f   Clover.obj
 0001:00019870       stbi_failure_reason        000000018001a870 f   Clover.obj
 0001:000198a0       stbi_image_free            000000018001a8a0 f   Clover.obj
 0001:000198c0       stbi_info_from_memory      000000018001a8c0 f   Clover.obj
 0001:00019950       stbi_info_from_callbacks   000000018001a950 f   Clover.obj
 0001:000199e0       stbi_is_16_bit_from_memory 000000018001a9e0 f   Clover.obj
 0001:00019a50       stbi_is_16_bit_from_callbacks 000000018001aa50 f   Clover.obj
 0001:00019ac0       stbi_info                  000000018001aac0 f   Clover.obj
 0001:00019b40       stbi_info_from_file        000000018001ab40 f   Clover.obj
 0001:00019bf0       stbi_is_16_bit             000000018001abf0 f   Clover.obj
 0001:00019c50       stbi_is_16_bit_from_file   000000018001ac50 f   Clover.obj
 0001:00019ce0       stbi_set_unpremultiply_on_load 000000018001ace0 f   Clover.obj
 0001:00019d00       stbi_convert_iphone_png_to_rgb 000000018001ad00 f   Clover.obj
 0001:00019d20       stbi_set_flip_vertically_on_load 000000018001ad20 f   Clover.obj
 0001:00019d40       stbi_set_unpremultiply_on_load_thread 000000018001ad40 f   Clover.obj
 0001:00019d90       stbi_convert_iphone_png_to_rgb_thread 000000018001ad90 f   Clover.obj
 0001:00019de0       stbi_set_flip_vertically_on_load_thread 000000018001ade0 f   Clover.obj
 0001:00019e30       stbi_zlib_decode_malloc_guesssize 000000018001ae30 f   Clover.obj
 0001:00019f30       stbi_zlib_decode_malloc_guesssize_headerflag 000000018001af30 f   Clover.obj
 0001:0001a040       stbi_zlib_decode_malloc    000000018001b040 f   Clover.obj
 0001:0001a080       stbi_zlib_decode_buffer    000000018001b080 f   Clover.obj
 0001:0001a140       stbi_zlib_decode_noheader_malloc 000000018001b140 f   Clover.obj
 0001:0001a240       stbi_zlib_decode_noheader_buffer 000000018001b240 f   Clover.obj
 0001:00033c50       stbi_write_png             0000000180034c50 f   Clover.obj
 0001:00033d20       stbi_write_bmp             0000000180034d20 f   Clover.obj
 0001:00033de0       stbi_write_tga             0000000180034de0 f   Clover.obj
 0001:00033ea0       stbi_write_hdr             0000000180034ea0 f   Clover.obj
 0001:00033f60       stbi_write_jpg             0000000180034f60 f   Clover.obj
 0001:00034030       stbi_write_png_to_func     0000000180035030 f   Clover.obj
 0001:000340d0       stbi_write_bmp_to_func     00000001800350d0 f   Clover.obj
 0001:00034180       stbi_write_tga_to_func     0000000180035180 f   Clover.obj
 0001:00034230       stbi_write_hdr_to_func     0000000180035230 f   Clover.obj
 0001:000342e0       stbi_write_jpg_to_func     00000001800352e0 f   Clover.obj
 0001:000343a0       stbi_flip_vertically_on_write 00000001800353a0 f   Clover.obj
 0001:00036820       stbi_zlib_compress         0000000180037820 f   Clover.obj
 0001:00038a70       stbi_write_png_to_mem      0000000180039a70 f   Clover.obj
 0001:0003b720       ?GameOnAwakeStub@@YAXPEAUgame_memory@@PEAUgl_render_data@@PEAUgame_state@@@Z 000000018003c720 f   Clover.obj
 0001:0003b740       ?GameFixedUpdateStub@@YAXPEAUgame_memory@@PEAUgl_render_data@@PEAUgame_state@@Utime@@@Z 000000018003c740 f   Clover.obj
 0001:0003b760       ?GameUpdateAndDrawStub@@YAXPEAUgame_memory@@PEAUgl_render_data@@PEAUgame_state@@Utime@@Tivec4@@@Z 000000018003c760 f   Clover.obj
 0001:0003b780       ??9@YA_NUstatic_sprite_data@@0@Z 000000018003c780 f   Clover.obj
 0001:00043260       ?GameOnAwake@@YAXPEAUgame_memory@@PEAUgl_render_data@@PEAUgame_state@@@Z 0000000180044260 f   Clover.obj
 0001:00043c70       ?GameUpdateAndDraw@@YAXPEAUgame_memory@@PEAUgl_render_data@@PEAUgame_state@@Utime@@Tivec4@@@Z 0000000180044c70 f   Clover.obj
 0001:0004e580       ?GameFixedUpdate@@YAXPEAUgame_memory@@PEAUgl_render_data@@PEAUgame_state@@Utime@@@Z 000000018004f580 f   Clover.obj
 0001:0005ccb0       ??0?$pair@W4item_id@@W4sprite_type@@@@QEAA@AEBW4item_id@@AEBW4sprite_type@@@Z 000000018005dcb0 f i Clover.obj
 0001:0005ccf0       __local_stdio_printf_options 000000018005dcf0 f i Clover.obj
 0001:0005cd00       _vfprintf_l                000000018005dd00 f i Clover.obj
 0001:0005cd60       _vsnprintf_l               000000018005dd60 f i Clover.obj
 0001:0005ce00       _vsprintf_l                000000018005de00 f i Clover.obj
 0001:0005ce60       fabsf                      000000018005de60 f i Clover.obj
 0001:0005ce80       printf                     000000018005de80 f i Clover.obj
 0001:0005cf10       sprintf                    000000018005df10 f i Clover.obj
 0001:0005cf80       vsnprintf                  000000018005df80 f i Clover.obj
 0001:0005d020       ?CreateContext@ImGui@@YAPEAUImGuiContext@@PEAUImFontAtlas@@@Z 000000018005e020 f   ImGuiDEBUG:imgui.obj
 0001:0005d0c0       ?DestroyContext@ImGui@@YAXPEAUImGuiContext@@@Z 000000018005e0c0 f   ImGuiDEBUG:imgui.obj
 0001:0005d140       ?GetCurrentContext@ImGui@@YAPEAUImGuiContext@@XZ 000000018005e140 f   ImGuiDEBUG:imgui.obj
 0001:0005d150       ?SetCurrentContext@ImGui@@YAXPEAUImGuiContext@@@Z 000000018005e150 f   ImGuiDEBUG:imgui.obj
 0001:0005d170       ?GetIO@ImGui@@YAAEAUImGuiIO@@XZ 000000018005e170 f   ImGuiDEBUG:imgui.obj
 0001:0005d1c0       ?GetPlatformIO@ImGui@@YAAEAUImGuiPlatformIO@@XZ 000000018005e1c0 f   ImGuiDEBUG:imgui.obj
 0001:0005d210       ?GetStyle@ImGui@@YAAEAUImGuiStyle@@XZ 000000018005e210 f   ImGuiDEBUG:imgui.obj
 0001:0005d260       ?NewFrame@ImGui@@YAXXZ     000000018005e260 f   ImGuiDEBUG:imgui.obj
 0001:0005e200       ?EndFrame@ImGui@@YAXXZ     000000018005f200 f   ImGuiDEBUG:imgui.obj
 0001:0005e6d0       ?Render@ImGui@@YAXXZ       000000018005f6d0 f   ImGuiDEBUG:imgui.obj
 0001:0005eca0       ?GetDrawData@ImGui@@YAPEAUImDrawData@@XZ 000000018005fca0 f   ImGuiDEBUG:imgui.obj
 0001:0005ed10       ?ShowMetricsWindow@ImGui@@YAXPEA_N@Z 000000018005fd10 f   ImGuiDEBUG:imgui.obj
 0001:00063020       ?ShowDebugLogWindow@ImGui@@YAXPEA_N@Z 0000000180064020 f   ImGuiDEBUG:imgui.obj
 0001:00063430       ?ShowIDStackToolWindow@ImGui@@YAXPEA_N@Z 0000000180064430 f   ImGuiDEBUG:imgui.obj
 0001:000639e0       ?GetVersion@ImGui@@YAPEBDXZ 00000001800649e0 f   ImGuiDEBUG:imgui.obj
 0001:000639f0       ?Begin@ImGui@@YA_NPEBDPEA_NH@Z 00000001800649f0 f   ImGuiDEBUG:imgui.obj
 0001:00067de0       ?End@ImGui@@YAXXZ          0000000180068de0 f   ImGuiDEBUG:imgui.obj
 0001:00068180       ?BeginChild@ImGui@@YA_NPEBDAEBUImVec2@@HH@Z 0000000180069180 f   ImGuiDEBUG:imgui.obj
 0001:000681e0       ?BeginChild@ImGui@@YA_NIAEBUImVec2@@HH@Z 00000001800691e0 f   ImGuiDEBUG:imgui.obj
 0001:00068220       ?EndChild@ImGui@@YAXXZ     0000000180069220 f   ImGuiDEBUG:imgui.obj
 0001:00068530       ?IsWindowAppearing@ImGui@@YA_NXZ 0000000180069530 f   ImGuiDEBUG:imgui.obj
 0001:00068560       ?IsWindowCollapsed@ImGui@@YA_NXZ 0000000180069560 f   ImGuiDEBUG:imgui.obj
 0001:00068590       ?IsWindowFocused@ImGui@@YA_NH@Z 0000000180069590 f   ImGuiDEBUG:imgui.obj
 0001:000686d0       ?IsWindowHovered@ImGui@@YA_NH@Z 00000001800696d0 f   ImGuiDEBUG:imgui.obj
 0001:00068900       ?GetWindowDrawList@ImGui@@YAPEAUImDrawList@@XZ 0000000180069900 f   ImGuiDEBUG:imgui.obj
 0001:00068930       ?GetWindowDpiScale@ImGui@@YAMXZ 0000000180069930 f   ImGuiDEBUG:imgui.obj
 0001:00068960       ?GetWindowPos@ImGui@@YA?AUImVec2@@XZ 0000000180069960 f   ImGuiDEBUG:imgui.obj
 0001:000689b0       ?GetWindowSize@ImGui@@YA?AUImVec2@@XZ 00000001800699b0 f   ImGuiDEBUG:imgui.obj
 0001:000689f0       ?GetWindowWidth@ImGui@@YAMXZ 00000001800699f0 f   ImGuiDEBUG:imgui.obj
 0001:00068a20       ?GetWindowHeight@ImGui@@YAMXZ 0000000180069a20 f   ImGuiDEBUG:imgui.obj
 0001:00068a50       ?GetWindowViewport@ImGui@@YAPEAUImGuiViewport@@XZ 0000000180069a50 f   ImGuiDEBUG:imgui.obj
 0001:00068ac0       ?SetNextWindowPos@ImGui@@YAXAEBUImVec2@@H0@Z 0000000180069ac0 f   ImGuiDEBUG:imgui.obj
 0001:00068b90       ?SetNextWindowSize@ImGui@@YAXAEBUImVec2@@H@Z 0000000180069b90 f   ImGuiDEBUG:imgui.obj
 0001:00068c40       ?SetNextWindowSizeConstraints@ImGui@@YAXAEBUImVec2@@0P6AXPEAUImGuiSizeCallbackData@@@ZPEAX@Z 0000000180069c40 f   ImGuiDEBUG:imgui.obj
 0001:00068ce0       ?SetNextWindowContentSize@ImGui@@YAXAEBUImVec2@@@Z 0000000180069ce0 f   ImGuiDEBUG:imgui.obj
 0001:00068d40       ?SetNextWindowCollapsed@ImGui@@YAX_NH@Z 0000000180069d40 f   ImGuiDEBUG:imgui.obj
 0001:00068df0       ?SetNextWindowFocus@ImGui@@YAXXZ 0000000180069df0 f   ImGuiDEBUG:imgui.obj
 0001:00068e30       ?SetNextWindowScroll@ImGui@@YAXAEBUImVec2@@@Z 0000000180069e30 f   ImGuiDEBUG:imgui.obj
 0001:00068e80       ?SetNextWindowBgAlpha@ImGui@@YAXM@Z 0000000180069e80 f   ImGuiDEBUG:imgui.obj
 0001:00068ed0       ?SetNextWindowViewport@ImGui@@YAXI@Z 0000000180069ed0 f   ImGuiDEBUG:imgui.obj
 0001:00068f20       ?SetWindowPos@ImGui@@YAXAEBUImVec2@@H@Z 0000000180069f20 f   ImGuiDEBUG:imgui.obj
 0001:00068f60       ?SetWindowSize@ImGui@@YAXAEBUImVec2@@H@Z 0000000180069f60 f   ImGuiDEBUG:imgui.obj
 0001:00068fa0       ?SetWindowCollapsed@ImGui@@YAX_NH@Z 0000000180069fa0 f   ImGuiDEBUG:imgui.obj
 0001:00068fe0       ?SetWindowFocus@ImGui@@YAXXZ 0000000180069fe0 f   ImGuiDEBUG:imgui.obj
 0001:00069010       ?SetWindowFontScale@ImGui@@YAXM@Z 000000018006a010 f   ImGuiDEBUG:imgui.obj
 0001:00069100       ?SetWindowPos@ImGui@@YAXPEBDAEBUImVec2@@H@Z 000000018006a100 f   ImGuiDEBUG:imgui.obj
 0001:00069150       ?SetWindowSize@ImGui@@YAXPEBDAEBUImVec2@@H@Z 000000018006a150 f   ImGuiDEBUG:imgui.obj
 0001:000691a0       ?SetWindowCollapsed@ImGui@@YAXPEBD_NH@Z 000000018006a1a0 f   ImGuiDEBUG:imgui.obj
 0001:000691f0       ?SetWindowFocus@ImGui@@YAXPEBD@Z 000000018006a1f0 f   ImGuiDEBUG:imgui.obj
 0001:00069240       ?GetScrollX@ImGui@@YAMXZ   000000018006a240 f   ImGuiDEBUG:imgui.obj
 0001:00069270       ?GetScrollY@ImGui@@YAMXZ   000000018006a270 f   ImGuiDEBUG:imgui.obj
 0001:000692a0       ?SetScrollX@ImGui@@YAXM@Z  000000018006a2a0 f   ImGuiDEBUG:imgui.obj
 0001:000692e0       ?SetScrollY@ImGui@@YAXM@Z  000000018006a2e0 f   ImGuiDEBUG:imgui.obj
 0001:00069320       ?GetScrollMaxX@ImGui@@YAMXZ 000000018006a320 f   ImGuiDEBUG:imgui.obj
 0001:00069350       ?GetScrollMaxY@ImGui@@YAMXZ 000000018006a350 f   ImGuiDEBUG:imgui.obj
 0001:00069380       ?SetScrollHereX@ImGui@@YAXM@Z 000000018006a380 f   ImGuiDEBUG:imgui.obj
 0001:00069470       ?SetScrollHereY@ImGui@@YAXM@Z 000000018006a470 f   ImGuiDEBUG:imgui.obj
 0001:00069570       ?SetScrollFromPosX@ImGui@@YAXMM@Z 000000018006a570 f   ImGuiDEBUG:imgui.obj
 0001:000695c0       ?SetScrollFromPosY@ImGui@@YAXMM@Z 000000018006a5c0 f   ImGuiDEBUG:imgui.obj
 0001:00069610       ?PushFont@ImGui@@YAXPEAUImFont@@@Z 000000018006a610 f   ImGuiDEBUG:imgui.obj
 0001:00069690       ?PopFont@ImGui@@YAXXZ      000000018006a690 f   ImGuiDEBUG:imgui.obj
 0001:00069760       ?PushStyleColor@ImGui@@YAXHI@Z 000000018006a760 f   ImGuiDEBUG:imgui.obj
 0001:00069820       ?PushStyleColor@ImGui@@YAXHAEBUImVec4@@@Z 000000018006a820 f   ImGuiDEBUG:imgui.obj
 0001:000698d0       ?PopStyleColor@ImGui@@YAXH@Z 000000018006a8d0 f   ImGuiDEBUG:imgui.obj
 0001:000699c0       ?PushStyleVar@ImGui@@YAXHM@Z 000000018006a9c0 f   ImGuiDEBUG:imgui.obj
 0001:00069a90       ?PushStyleVar@ImGui@@YAXHAEBUImVec2@@@Z 000000018006aa90 f   ImGuiDEBUG:imgui.obj
 0001:00069b60       ?PushStyleVarX@ImGui@@YAXHM@Z 000000018006ab60 f   ImGuiDEBUG:imgui.obj
 0001:00069c30       ?PushStyleVarY@ImGui@@YAXHM@Z 000000018006ac30 f   ImGuiDEBUG:imgui.obj
 0001:00069d00       ?PopStyleVar@ImGui@@YAXH@Z 000000018006ad00 f   ImGuiDEBUG:imgui.obj
 0001:00069e90       ?PushItemFlag@ImGui@@YAXH_N@Z 000000018006ae90 f   ImGuiDEBUG:imgui.obj
 0001:00069f50       ?PopItemFlag@ImGui@@YAXXZ  000000018006af50 f   ImGuiDEBUG:imgui.obj
 0001:00069fd0       ?PushItemWidth@ImGui@@YAXM@Z 000000018006afd0 f   ImGuiDEBUG:imgui.obj
 0001:0006a080       ?PopItemWidth@ImGui@@YAXXZ 000000018006b080 f   ImGuiDEBUG:imgui.obj
 0001:0006a0e0       ?SetNextItemWidth@ImGui@@YAXM@Z 000000018006b0e0 f   ImGuiDEBUG:imgui.obj
 0001:0006a130       ?CalcItemWidth@ImGui@@YAMXZ 000000018006b130 f   ImGuiDEBUG:imgui.obj
 0001:0006a1f0       ?PushTextWrapPos@ImGui@@YAXM@Z 000000018006b1f0 f   ImGuiDEBUG:imgui.obj
 0001:0006a250       ?PopTextWrapPos@ImGui@@YAXXZ 000000018006b250 f   ImGuiDEBUG:imgui.obj
 0001:0006a2b0       ?GetFont@ImGui@@YAPEAUImFont@@XZ 000000018006b2b0 f   ImGuiDEBUG:imgui.obj
 0001:0006a2d0       ?GetFontSize@ImGui@@YAMXZ  000000018006b2d0 f   ImGuiDEBUG:imgui.obj
 0001:0006a2f0       ?GetFontTexUvWhitePixel@ImGui@@YA?AUImVec2@@XZ 000000018006b2f0 f   ImGuiDEBUG:imgui.obj
 0001:0006a320       ?GetColorU32@ImGui@@YAIHM@Z 000000018006b320 f   ImGuiDEBUG:imgui.obj
 0001:0006a3a0       ?GetColorU32@ImGui@@YAIAEBUImVec4@@@Z 000000018006b3a0 f   ImGuiDEBUG:imgui.obj
 0001:0006a400       ?GetColorU32@ImGui@@YAIIM@Z 000000018006b400 f   ImGuiDEBUG:imgui.obj
 0001:0006a490       ?GetStyleColorVec4@ImGui@@YAAEBUImVec4@@H@Z 000000018006b490 f   ImGuiDEBUG:imgui.obj
 0001:0006a4d0       ?GetCursorScreenPos@ImGui@@YA?AUImVec2@@XZ 000000018006b4d0 f   ImGuiDEBUG:imgui.obj
 0001:0006a510       ?SetCursorScreenPos@ImGui@@YAXAEBUImVec2@@@Z 000000018006b510 f   ImGuiDEBUG:imgui.obj
 0001:0006a550       ?GetContentRegionAvail@ImGui@@YA?AUImVec2@@XZ 000000018006b550 f   ImGuiDEBUG:imgui.obj
 0001:0006a600       ?GetCursorPos@ImGui@@YA?AUImVec2@@XZ 000000018006b600 f   ImGuiDEBUG:imgui.obj
 0001:0006a670       ?GetCursorPosX@ImGui@@YAMXZ 000000018006b670 f   ImGuiDEBUG:imgui.obj
 0001:0006a6b0       ?GetCursorPosY@ImGui@@YAMXZ 000000018006b6b0 f   ImGuiDEBUG:imgui.obj
 0001:0006a6f0       ?SetCursorPos@ImGui@@YAXAEBUImVec2@@@Z 000000018006b6f0 f   ImGuiDEBUG:imgui.obj
 0001:0006a760       ?SetCursorPosX@ImGui@@YAXM@Z 000000018006b760 f   ImGuiDEBUG:imgui.obj
 0001:0006a7c0       ?SetCursorPosY@ImGui@@YAXM@Z 000000018006b7c0 f   ImGuiDEBUG:imgui.obj
 0001:0006a820       ?GetCursorStartPos@ImGui@@YA?AUImVec2@@XZ 000000018006b820 f   ImGuiDEBUG:imgui.obj
 0001:0006a870       ?SameLine@ImGui@@YAXMM@Z   000000018006b870 f   ImGuiDEBUG:imgui.obj
 0001:0006a9d0       ?Indent@ImGui@@YAXM@Z      000000018006b9d0 f   ImGuiDEBUG:imgui.obj
 0001:0006aa80       ?Unindent@ImGui@@YAXM@Z    000000018006ba80 f   ImGuiDEBUG:imgui.obj
 0001:0006ab30       ?BeginGroup@ImGui@@YAXXZ   000000018006bb30 f   ImGuiDEBUG:imgui.obj
 0001:0006ad50       ?EndGroup@ImGui@@YAXXZ     000000018006bd50 f   ImGuiDEBUG:imgui.obj
 0001:0006b200       ?GetTextLineHeight@ImGui@@YAMXZ 000000018006c200 f   ImGuiDEBUG:imgui.obj
 0001:0006b230       ?GetTextLineHeightWithSpacing@ImGui@@YAMXZ 000000018006c230 f   ImGuiDEBUG:imgui.obj
 0001:0006b270       ?GetFrameHeight@ImGui@@YAMXZ 000000018006c270 f   ImGuiDEBUG:imgui.obj
 0001:0006b2c0       ?GetFrameHeightWithSpacing@ImGui@@YAMXZ 000000018006c2c0 f   ImGuiDEBUG:imgui.obj
 0001:0006b310       ?PushID@ImGui@@YAXPEBD@Z   000000018006c310 f   ImGuiDEBUG:imgui.obj
 0001:0006b370       ?PushID@ImGui@@YAXPEBD0@Z  000000018006c370 f   ImGuiDEBUG:imgui.obj
 0001:0006b3e0       ?PushID@ImGui@@YAXPEBX@Z   000000018006c3e0 f   ImGuiDEBUG:imgui.obj
 0001:0006b440       ?PushID@ImGui@@YAXH@Z      000000018006c440 f   ImGuiDEBUG:imgui.obj
 0001:0006b4a0       ?PopID@ImGui@@YAXXZ        000000018006c4a0 f   ImGuiDEBUG:imgui.obj
 0001:0006b500       ?GetID@ImGui@@YAIPEBD@Z    000000018006c500 f   ImGuiDEBUG:imgui.obj
 0001:0006b540       ?GetID@ImGui@@YAIPEBD0@Z   000000018006c540 f   ImGuiDEBUG:imgui.obj
 0001:0006b580       ?GetID@ImGui@@YAIPEBX@Z    000000018006c580 f   ImGuiDEBUG:imgui.obj
 0001:0006b5c0       ?GetID@ImGui@@YAIH@Z       000000018006c5c0 f   ImGuiDEBUG:imgui.obj
 0001:0006b600       ?IsItemToggledSelection@ImGui@@YA_NXZ 000000018006c600 f   ImGuiDEBUG:imgui.obj
 0001:0006b670       ?BeginTooltip@ImGui@@YA_NXZ 000000018006c670 f   ImGuiDEBUG:imgui.obj
 0001:0006b690       ?EndTooltip@ImGui@@YAXXZ   000000018006c690 f   ImGuiDEBUG:imgui.obj
 0001:0006b6e0       ?SetTooltip@ImGui@@YAXPEBDZZ 000000018006c6e0 f   ImGuiDEBUG:imgui.obj
 0001:0006b730       ?SetTooltipV@ImGui@@YAXPEBDPEAD@Z 000000018006c730 f   ImGuiDEBUG:imgui.obj
 0001:0006b780       ?BeginItemTooltip@ImGui@@YA_NXZ 000000018006c780 f   ImGuiDEBUG:imgui.obj
 0001:0006b7b0       ?SetItemTooltip@ImGui@@YAXPEBDZZ 000000018006c7b0 f   ImGuiDEBUG:imgui.obj
 0001:0006b810       ?SetItemTooltipV@ImGui@@YAXPEBDPEAD@Z 000000018006c810 f   ImGuiDEBUG:imgui.obj
 0001:0006b850       ?BeginPopup@ImGui@@YA_NPEBDH@Z 000000018006c850 f   ImGuiDEBUG:imgui.obj
 0001:0006b8e0       ?BeginPopupModal@ImGui@@YA_NPEBDPEA_NH@Z 000000018006c8e0 f   ImGuiDEBUG:imgui.obj
 0001:0006baa0       ?EndPopup@ImGui@@YAXXZ     000000018006caa0 f   ImGuiDEBUG:imgui.obj
 0001:0006bba0       ?OpenPopup@ImGui@@YAXPEBDH@Z 000000018006cba0 f   ImGuiDEBUG:imgui.obj
 0001:0006bc20       ?OpenPopup@ImGui@@YAXIH@Z  000000018006cc20 f   ImGuiDEBUG:imgui.obj
 0001:0006bc50       ?OpenPopupOnItemClick@ImGui@@YAXPEBDH@Z 000000018006cc50 f   ImGuiDEBUG:imgui.obj
 0001:0006bd20       ?CloseCurrentPopup@ImGui@@YAXXZ 000000018006cd20 f   ImGuiDEBUG:imgui.obj
 0001:0006bec0       ?BeginPopupContextItem@ImGui@@YA_NPEBDH@Z 000000018006cec0 f   ImGuiDEBUG:imgui.obj
 0001:0006bfb0       ?BeginPopupContextWindow@ImGui@@YA_NPEBDH@Z 000000018006cfb0 f   ImGuiDEBUG:imgui.obj
 0001:0006c070       ?BeginPopupContextVoid@ImGui@@YA_NPEBDH@Z 000000018006d070 f   ImGuiDEBUG:imgui.obj
 0001:0006c130       ?IsPopupOpen@ImGui@@YA_NPEBDH@Z 000000018006d130 f   ImGuiDEBUG:imgui.obj
 0001:0006c1e0       ?DockSpace@ImGui@@YAIIAEBUImVec2@@HPEBUImGuiWindowClass@@@Z 000000018006d1e0 f   ImGuiDEBUG:imgui.obj
 0001:0006c830       ?DockSpaceOverViewport@ImGui@@YAIIPEBUImGuiViewport@@HPEBUImGuiWindowClass@@@Z 000000018006d830 f   ImGuiDEBUG:imgui.obj
 0001:0006c9e0       ?SetNextWindowDockID@ImGui@@YAXIH@Z 000000018006d9e0 f   ImGuiDEBUG:imgui.obj
 0001:0006ca60       ?SetNextWindowClass@ImGui@@YAXPEBUImGuiWindowClass@@@Z 000000018006da60 f   ImGuiDEBUG:imgui.obj
 0001:0006caf0       ?GetWindowDockID@ImGui@@YAIXZ 000000018006daf0 f   ImGuiDEBUG:imgui.obj
 0001:0006cb20       ?IsWindowDocked@ImGui@@YA_NXZ 000000018006db20 f   ImGuiDEBUG:imgui.obj
 0001:0006cb50       ?LogToTTY@ImGui@@YAXH@Z    000000018006db50 f   ImGuiDEBUG:imgui.obj
 0001:0006cbb0       ?LogToFile@ImGui@@YAXHPEBD@Z 000000018006dbb0 f   ImGuiDEBUG:imgui.obj
 0001:0006cc80       ?LogToClipboard@ImGui@@YAXH@Z 000000018006dc80 f   ImGuiDEBUG:imgui.obj
 0001:0006ccc0       ?LogFinish@ImGui@@YAXXZ    000000018006dcc0 f   ImGuiDEBUG:imgui.obj
 0001:0006ce00       ?LogButtons@ImGui@@YAXXZ   000000018006de00 f   ImGuiDEBUG:imgui.obj
 0001:0006cf60       ?LogText@ImGui@@YAXPEBDZZ  000000018006df60 f   ImGuiDEBUG:imgui.obj
 0001:0006cfd0       ?LogTextV@ImGui@@YAXPEBDPEAD@Z 000000018006dfd0 f   ImGuiDEBUG:imgui.obj
 0001:0006d020       ?BeginDragDropSource@ImGui@@YA_NH@Z 000000018006e020 f   ImGuiDEBUG:imgui.obj
 0001:0006d520       ?SetDragDropPayload@ImGui@@YA_NPEBDPEBX_KH@Z 000000018006e520 f   ImGuiDEBUG:imgui.obj
 0001:0006d7f0       ?EndDragDropSource@ImGui@@YAXXZ 000000018006e7f0 f   ImGuiDEBUG:imgui.obj
 0001:0006d8b0       ?BeginDragDropTarget@ImGui@@YA_NXZ 000000018006e8b0 f   ImGuiDEBUG:imgui.obj
 0001:0006dac0       ?AcceptDragDropPayload@ImGui@@YAPEBUImGuiPayload@@PEBDH@Z 000000018006eac0 f   ImGuiDEBUG:imgui.obj
 0001:0006ddc0       ?EndDragDropTarget@ImGui@@YAXXZ 000000018006edc0 f   ImGuiDEBUG:imgui.obj
 0001:0006de60       ?GetDragDropPayload@ImGui@@YAPEBUImGuiPayload@@XZ 000000018006ee60 f   ImGuiDEBUG:imgui.obj
 0001:0006dec0       ?BeginDisabled@ImGui@@YAX_N@Z 000000018006eec0 f   ImGuiDEBUG:imgui.obj
 0001:0006dfd0       ?EndDisabled@ImGui@@YAXXZ  000000018006efd0 f   ImGuiDEBUG:imgui.obj
 0001:0006e0d0       ?PushClipRect@ImGui@@YAXAEBUImVec2@@0_N@Z 000000018006f0d0 f   ImGuiDEBUG:imgui.obj
 0001:0006e160       ?PopClipRect@ImGui@@YAXXZ  000000018006f160 f   ImGuiDEBUG:imgui.obj
 0001:0006e1e0       ?SetItemDefaultFocus@ImGui@@YAXXZ 000000018006f1e0 f   ImGuiDEBUG:imgui.obj
 0001:0006e2e0       ?SetKeyboardFocusHere@ImGui@@YAXH@Z 000000018006f2e0 f   ImGuiDEBUG:imgui.obj
 0001:0006e460       ?SetNextItemAllowOverlap@ImGui@@YAXXZ 000000018006f460 f   ImGuiDEBUG:imgui.obj
 0001:0006e4a0       ?IsItemHovered@ImGui@@YA_NH@Z 000000018006f4a0 f   ImGuiDEBUG:imgui.obj
 0001:0006e870       ?IsItemActive@ImGui@@YA_NXZ 000000018006f870 f   ImGuiDEBUG:imgui.obj
 0001:0006e8d0       ?IsItemFocused@ImGui@@YA_NXZ 000000018006f8d0 f   ImGuiDEBUG:imgui.obj
 0001:0006e950       ?IsItemClicked@ImGui@@YA_NH@Z 000000018006f950 f   ImGuiDEBUG:imgui.obj
 0001:0006e9a0       ?IsItemVisible@ImGui@@YA_NXZ 000000018006f9a0 f   ImGuiDEBUG:imgui.obj
 0001:0006e9f0       ?IsItemEdited@ImGui@@YA_NXZ 000000018006f9f0 f   ImGuiDEBUG:imgui.obj
 0001:0006ea40       ?IsItemActivated@ImGui@@YA_NXZ 000000018006fa40 f   ImGuiDEBUG:imgui.obj
 0001:0006eaa0       ?IsItemDeactivated@ImGui@@YA_NXZ 000000018006faa0 f   ImGuiDEBUG:imgui.obj
 0001:0006eb50       ?IsItemDeactivatedAfterEdit@ImGui@@YA_NXZ 000000018006fb50 f   ImGuiDEBUG:imgui.obj
 0001:0006ebc0       ?IsItemToggledOpen@ImGui@@YA_NXZ 000000018006fbc0 f   ImGuiDEBUG:imgui.obj
 0001:0006ec00       ?IsAnyItemHovered@ImGui@@YA_NXZ 000000018006fc00 f   ImGuiDEBUG:imgui.obj
 0001:0006ec50       ?IsAnyItemActive@ImGui@@YA_NXZ 000000018006fc50 f   ImGuiDEBUG:imgui.obj
 0001:0006ec90       ?IsAnyItemFocused@ImGui@@YA_NXZ 000000018006fc90 f   ImGuiDEBUG:imgui.obj
 0001:0006ece0       ?GetItemID@ImGui@@YAIXZ    000000018006fce0 f   ImGuiDEBUG:imgui.obj
 0001:0006ed10       ?GetItemRectMin@ImGui@@YA?AUImVec2@@XZ 000000018006fd10 f   ImGuiDEBUG:imgui.obj
 0001:0006ed50       ?GetItemRectMax@ImGui@@YA?AUImVec2@@XZ 000000018006fd50 f   ImGuiDEBUG:imgui.obj
 0001:0006ed90       ?GetItemRectSize@ImGui@@YA?AUImVec2@@XZ 000000018006fd90 f   ImGuiDEBUG:imgui.obj
 0001:0006edd0       ?GetMainViewport@ImGui@@YAPEAUImGuiViewport@@XZ 000000018006fdd0 f   ImGuiDEBUG:imgui.obj
 0001:0006ee10       ?GetBackgroundDrawList@ImGui@@YAPEAUImDrawList@@PEAUImGuiViewport@@@Z 000000018006fe10 f   ImGuiDEBUG:imgui.obj
 0001:0006ee60       ?GetForegroundDrawList@ImGui@@YAPEAUImDrawList@@PEAUImGuiViewport@@@Z 000000018006fe60 f   ImGuiDEBUG:imgui.obj
 0001:0006eeb0       ?IsRectVisible@ImGui@@YA_NAEBUImVec2@@@Z 000000018006feb0 f   ImGuiDEBUG:imgui.obj
 0001:0006ef30       ?IsRectVisible@ImGui@@YA_NAEBUImVec2@@0@Z 000000018006ff30 f   ImGuiDEBUG:imgui.obj
 0001:0006ef90       ?GetTime@ImGui@@YANXZ      000000018006ff90 f   ImGuiDEBUG:imgui.obj
 0001:0006efb0       ?GetFrameCount@ImGui@@YAHXZ 000000018006ffb0 f   ImGuiDEBUG:imgui.obj
 0001:0006efd0       ?GetDrawListSharedData@ImGui@@YAPEAUImDrawListSharedData@@XZ 000000018006ffd0 f   ImGuiDEBUG:imgui.obj
 0001:0006eff0       ?GetStyleColorName@ImGui@@YAPEBDH@Z 000000018006fff0 f   ImGuiDEBUG:imgui.obj
 0001:0006f3e0       ?SetStateStorage@ImGui@@YAXPEAUImGuiStorage@@@Z 00000001800703e0 f   ImGuiDEBUG:imgui.obj
 0001:0006f440       ?GetStateStorage@ImGui@@YAPEAUImGuiStorage@@XZ 0000000180070440 f   ImGuiDEBUG:imgui.obj
 0001:0006f470       ?CalcTextSize@ImGui@@YA?AUImVec2@@PEBD0_NM@Z 0000000180070470 f   ImGuiDEBUG:imgui.obj
 0001:0006f5b0       ?ColorConvertU32ToFloat4@ImGui@@YA?AUImVec4@@I@Z 00000001800705b0 f   ImGuiDEBUG:imgui.obj
 0001:0006f660       ?ColorConvertFloat4ToU32@ImGui@@YAIAEBUImVec4@@@Z 0000000180070660 f   ImGuiDEBUG:imgui.obj
 0001:0006f740       ?ColorConvertRGBtoHSV@ImGui@@YAXMMMAEAM00@Z 0000000180070740 f   ImGuiDEBUG:imgui.obj
 0001:0006f880       ?ColorConvertHSVtoRGB@ImGui@@YAXMMMAEAM00@Z 0000000180070880 f   ImGuiDEBUG:imgui.obj
 0001:0006fb20       ?IsKeyDown@ImGui@@YA_NW4ImGuiKey@@@Z 0000000180070b20 f   ImGuiDEBUG:imgui.obj
 0001:0006fb40       ?IsKeyPressed@ImGui@@YA_NW4ImGuiKey@@_N@Z 0000000180070b40 f   ImGuiDEBUG:imgui.obj
 0001:0006fb90       ?IsKeyReleased@ImGui@@YA_NW4ImGuiKey@@@Z 0000000180070b90 f   ImGuiDEBUG:imgui.obj
 0001:0006fbb0       ?IsKeyChordPressed@ImGui@@YA_NH@Z 0000000180070bb0 f   ImGuiDEBUG:imgui.obj
 0001:0006fbe0       ?GetKeyPressedAmount@ImGui@@YAHW4ImGuiKey@@MM@Z 0000000180070be0 f   ImGuiDEBUG:imgui.obj
 0001:0006fc60       ?GetKeyName@ImGui@@YAPEBDW4ImGuiKey@@@Z 0000000180070c60 f   ImGuiDEBUG:imgui.obj
 0001:0006fd60       ?SetNextFrameWantCaptureKeyboard@ImGui@@YAX_N@Z 0000000180070d60 f   ImGuiDEBUG:imgui.obj
 0001:0006fdb0       ?Shortcut@ImGui@@YA_NHH@Z  0000000180070db0 f   ImGuiDEBUG:imgui.obj
 0001:0006fde0       ?SetNextItemShortcut@ImGui@@YAXHH@Z 0000000180070de0 f   ImGuiDEBUG:imgui.obj
 0001:0006fe40       ?SetItemKeyOwner@ImGui@@YAXW4ImGuiKey@@@Z 0000000180070e40 f   ImGuiDEBUG:imgui.obj
 0001:0006fe60       ?IsMouseDown@ImGui@@YA_NH@Z 0000000180070e60 f   ImGuiDEBUG:imgui.obj
 0001:0006fef0       ?IsMouseClicked@ImGui@@YA_NH_N@Z 0000000180070ef0 f   ImGuiDEBUG:imgui.obj
 0001:0006ff40       ?IsMouseReleased@ImGui@@YA_NH@Z 0000000180070f40 f   ImGuiDEBUG:imgui.obj
 0001:0006ffd0       ?IsMouseDoubleClicked@ImGui@@YA_NH@Z 0000000180070fd0 f   ImGuiDEBUG:imgui.obj
 0001:00070060       ?GetMouseClickedCount@ImGui@@YAHH@Z 0000000180071060 f   ImGuiDEBUG:imgui.obj
 0001:000700c0       ?IsMouseHoveringRect@ImGui@@YA_NAEBUImVec2@@0_N@Z 00000001800710c0 f   ImGuiDEBUG:imgui.obj
 0001:00070190       ?IsMousePosValid@ImGui@@YA_NPEBUImVec2@@@Z 0000000180071190 f   ImGuiDEBUG:imgui.obj
 0001:00070250       ?IsAnyMouseDown@ImGui@@YA_NXZ 0000000180071250 f   ImGuiDEBUG:imgui.obj
 0001:000702a0       ?GetMousePos@ImGui@@YA?AUImVec2@@XZ 00000001800712a0 f   ImGuiDEBUG:imgui.obj
 0001:000702e0       ?GetMousePosOnOpeningCurrentPopup@ImGui@@YA?AUImVec2@@XZ 00000001800712e0 f   ImGuiDEBUG:imgui.obj
 0001:00070360       ?IsMouseDragging@ImGui@@YA_NHM@Z 0000000180071360 f   ImGuiDEBUG:imgui.obj
 0001:000703e0       ?GetMouseDragDelta@ImGui@@YA?AUImVec2@@HM@Z 00000001800713e0 f   ImGuiDEBUG:imgui.obj
 0001:00070530       ?ResetMouseDragDelta@ImGui@@YAXH@Z 0000000180071530 f   ImGuiDEBUG:imgui.obj
 0001:000705a0       ?GetMouseCursor@ImGui@@YAHXZ 00000001800715a0 f   ImGuiDEBUG:imgui.obj
 0001:000705d0       ?SetMouseCursor@ImGui@@YAXH@Z 00000001800715d0 f   ImGuiDEBUG:imgui.obj
 0001:00070600       ?SetNextFrameWantCaptureMouse@ImGui@@YAX_N@Z 0000000180071600 f   ImGuiDEBUG:imgui.obj
 0001:00070650       ?GetClipboardText@ImGui@@YAPEBDXZ 0000000180071650 f   ImGuiDEBUG:imgui.obj
 0001:000706b0       ?SetClipboardText@ImGui@@YAXPEBD@Z 00000001800716b0 f   ImGuiDEBUG:imgui.obj
 0001:00070700       ?LoadIniSettingsFromDisk@ImGui@@YAXPEBD@Z 0000000180071700 f   ImGuiDEBUG:imgui.obj
 0001:00070770       ?LoadIniSettingsFromMemory@ImGui@@YAXPEBD_K@Z 0000000180071770 f   ImGuiDEBUG:imgui.obj
 0001:00070c30       ?SaveIniSettingsToDisk@ImGui@@YAXPEBD@Z 0000000180071c30 f   ImGuiDEBUG:imgui.obj
 0001:00070cd0       ?SaveIniSettingsToMemory@ImGui@@YAPEBDPEA_K@Z 0000000180071cd0 f   ImGuiDEBUG:imgui.obj
 0001:00070df0       ?DebugTextEncoding@ImGui@@YAXPEBD@Z 0000000180071df0 f   ImGuiDEBUG:imgui.obj
 0001:00071000       ?DebugFlashStyleColor@ImGui@@YAXH@Z 0000000180072000 f   ImGuiDEBUG:imgui.obj
 0001:00071080       ?DebugStartItemPicker@ImGui@@YAXXZ 0000000180072080 f   ImGuiDEBUG:imgui.obj
 0001:000710b0       ?DebugCheckVersionAndDataLayout@ImGui@@YA_NPEBD_K11111@Z 00000001800720b0 f   ImGuiDEBUG:imgui.obj
 0001:000712f0       ?DebugLog@ImGui@@YAXPEBDZZ 00000001800722f0 f   ImGuiDEBUG:imgui.obj
 0001:00071340       ?DebugLogV@ImGui@@YAXPEBDPEAD@Z 0000000180072340 f   ImGuiDEBUG:imgui.obj
 0001:000714a0       ?SetAllocatorFunctions@ImGui@@YAXP6APEAX_KPEAX@ZP6AX11@Z1@Z 00000001800724a0 f   ImGuiDEBUG:imgui.obj
 0001:000714e0       ?GetAllocatorFunctions@ImGui@@YAXPEAP6APEAX_KPEAX@ZPEAP6AX11@ZPEAPEAX@Z 00000001800724e0 f   ImGuiDEBUG:imgui.obj
 0001:00071530       ?MemAlloc@ImGui@@YAPEAX_K@Z 0000000180072530 f   ImGuiDEBUG:imgui.obj
 0001:000715a0       ?MemFree@ImGui@@YAXPEAX@Z  00000001800725a0 f   ImGuiDEBUG:imgui.obj
 0001:00071610       ?UpdatePlatformWindows@ImGui@@YAXXZ 0000000180072610 f   ImGuiDEBUG:imgui.obj
 0001:00071c40       ?RenderPlatformWindowsDefault@ImGui@@YAXPEAX0@Z 0000000180072c40 f   ImGuiDEBUG:imgui.obj
 0001:00071dc0       ?DestroyPlatformWindows@ImGui@@YAXXZ 0000000180072dc0 f   ImGuiDEBUG:imgui.obj
 0001:00071e40       ?FindViewportByID@ImGui@@YAPEAUImGuiViewport@@I@Z 0000000180072e40 f   ImGuiDEBUG:imgui.obj
 0001:00071ed0       ?FindViewportByPlatformHandle@ImGui@@YAPEAUImGuiViewport@@PEAX@Z 0000000180072ed0 f   ImGuiDEBUG:imgui.obj
 0001:00071f70       ??0ImGuiStyle@@QEAA@XZ     0000000180072f70 f   ImGuiDEBUG:imgui.obj
 0001:00072670       ?ScaleAllSizes@ImGuiStyle@@QEAAXM@Z 0000000180073670 f   ImGuiDEBUG:imgui.obj
 0001:00072c10       ?AddKeyEvent@ImGuiIO@@QEAAXW4ImGuiKey@@_N@Z 0000000180073c10 f   ImGuiDEBUG:imgui.obj
 0001:00072c80       ?AddKeyAnalogEvent@ImGuiIO@@QEAAXW4ImGuiKey@@_NM@Z 0000000180073c80 f   ImGuiDEBUG:imgui.obj
 0001:00073070       ?AddMousePosEvent@ImGuiIO@@QEAAXMM@Z 0000000180074070 f   ImGuiDEBUG:imgui.obj
 0001:000732a0       ?AddMouseButtonEvent@ImGuiIO@@QEAAXH_N@Z 00000001800742a0 f   ImGuiDEBUG:imgui.obj
 0001:00073520       ?AddMouseWheelEvent@ImGuiIO@@QEAAXMM@Z 0000000180074520 f   ImGuiDEBUG:imgui.obj
 0001:00073640       ?AddMouseSourceEvent@ImGuiIO@@QEAAXW4ImGuiMouseSource@@@Z 0000000180074640 f   ImGuiDEBUG:imgui.obj
 0001:000736b0       ?AddMouseViewportEvent@ImGuiIO@@QEAAXI@Z 00000001800746b0 f   ImGuiDEBUG:imgui.obj
 0001:000737b0       ?AddFocusEvent@ImGuiIO@@QEAAX_N@Z 00000001800747b0 f   ImGuiDEBUG:imgui.obj
 0001:000738f0       ?AddInputCharacter@ImGuiIO@@QEAAXI@Z 00000001800748f0 f   ImGuiDEBUG:imgui.obj
 0001:000739c0       ?AddInputCharacterUTF16@ImGuiIO@@QEAAXG@Z 00000001800749c0 f   ImGuiDEBUG:imgui.obj
 0001:00073ac0       ?AddInputCharactersUTF8@ImGuiIO@@QEAAXPEBD@Z 0000000180074ac0 f   ImGuiDEBUG:imgui.obj
 0001:00073b40       ?SetKeyEventNativeData@ImGuiIO@@QEAAXW4ImGuiKey@@HHH@Z 0000000180074b40 f   ImGuiDEBUG:imgui.obj
 0001:00073c30       ?SetAppAcceptingEvents@ImGuiIO@@QEAAX_N@Z 0000000180074c30 f   ImGuiDEBUG:imgui.obj
 0001:00073c50       ?ClearEventsQueue@ImGuiIO@@QEAAXXZ 0000000180074c50 f   ImGuiDEBUG:imgui.obj
 0001:00073cc0       ?ClearInputKeys@ImGuiIO@@QEAAXXZ 0000000180074cc0 f   ImGuiDEBUG:imgui.obj
 0001:00073dd0       ?ClearInputMouse@ImGuiIO@@QEAAXXZ 0000000180074dd0 f   ImGuiDEBUG:imgui.obj
 0001:00073f00       ?ClearInputCharacters@ImGuiIO@@QEAAXXZ 0000000180074f00 f   ImGuiDEBUG:imgui.obj
 0001:00073f30       ??0ImGuiIO@@QEAA@XZ        0000000180074f30 f   ImGuiDEBUG:imgui.obj
 0001:000743d0       ??0ImGuiTextFilter@@QEAA@PEBD@Z 00000001800753d0 f   ImGuiDEBUG:imgui.obj
 0001:00074450       ?Draw@ImGuiTextFilter@@QEAA_NPEBDM@Z 0000000180075450 f   ImGuiDEBUG:imgui.obj
 0001:000744e0       ?PassFilter@ImGuiTextFilter@@QEBA_NPEBD0@Z 00000001800754e0 f   ImGuiDEBUG:imgui.obj
 0001:00074630       ?Build@ImGuiTextFilter@@QEAAXXZ 0000000180075630 f   ImGuiDEBUG:imgui.obj
 0001:00074810       ?split@ImGuiTextRange@ImGuiTextFilter@@QEBAXDPEAU?$ImVector@UImGuiTextRange@ImGuiTextFilter@@@@@Z 0000000180075810 f   ImGuiDEBUG:imgui.obj
 0001:000748e0       ?append@ImGuiTextBuffer@@QEAAXPEBD0@Z 00000001800758e0 f   ImGuiDEBUG:imgui.obj
 0001:00074a70       ?appendf@ImGuiTextBuffer@@QEAAXPEBDZZ 0000000180075a70 f   ImGuiDEBUG:imgui.obj
 0001:00074ac0       ?appendfv@ImGuiTextBuffer@@QEAAXPEBDPEAD@Z 0000000180075ac0 f   ImGuiDEBUG:imgui.obj
 0001:00074c00       ?GetInt@ImGuiStorage@@QEBAHIH@Z 0000000180075c00 f   ImGuiDEBUG:imgui.obj
 0001:00074c90       ?SetInt@ImGuiStorage@@QEAAXIH@Z 0000000180075c90 f   ImGuiDEBUG:imgui.obj
 0001:00074d40       ?GetBool@ImGuiStorage@@QEBA_NI_N@Z 0000000180075d40 f   ImGuiDEBUG:imgui.obj
 0001:00074db0       ?SetBool@ImGuiStorage@@QEAAXI_N@Z 0000000180075db0 f   ImGuiDEBUG:imgui.obj
 0001:00074e00       ?GetFloat@ImGuiStorage@@QEBAMIM@Z 0000000180075e00 f   ImGuiDEBUG:imgui.obj
 0001:00074e90       ?SetFloat@ImGuiStorage@@QEAAXIM@Z 0000000180075e90 f   ImGuiDEBUG:imgui.obj
 0001:00074f40       ?GetVoidPtr@ImGuiStorage@@QEBAPEAXI@Z 0000000180075f40 f   ImGuiDEBUG:imgui.obj
 0001:00074fc0       ?SetVoidPtr@ImGuiStorage@@QEAAXIPEAX@Z 0000000180075fc0 f   ImGuiDEBUG:imgui.obj
 0001:00075070       ?GetIntRef@ImGuiStorage@@QEAAPEAHIH@Z 0000000180076070 f   ImGuiDEBUG:imgui.obj
 0001:00075120       ?GetBoolRef@ImGuiStorage@@QEAAPEA_NI_N@Z 0000000180076120 f   ImGuiDEBUG:imgui.obj
 0001:00075170       ?GetFloatRef@ImGuiStorage@@QEAAPEAMIM@Z 0000000180076170 f   ImGuiDEBUG:imgui.obj
 0001:00075220       ?GetVoidPtrRef@ImGuiStorage@@QEAAPEAPEAXIPEAX@Z 0000000180076220 f   ImGuiDEBUG:imgui.obj
 0001:000752d0       ?BuildSortByKey@ImGuiStorage@@QEAAXXZ 00000001800762d0 f   ImGuiDEBUG:imgui.obj
 0001:00075310       ?SetAllInt@ImGuiStorage@@QEAAXH@Z 0000000180076310 f   ImGuiDEBUG:imgui.obj
 0001:00075370       ??0ImGuiListClipper@@QEAA@XZ 0000000180076370 f   ImGuiDEBUG:imgui.obj
 0001:000753a0       ??1ImGuiListClipper@@QEAA@XZ 00000001800763a0 f   ImGuiDEBUG:imgui.obj
 0001:000753c0       ?Begin@ImGuiListClipper@@QEAAXHM@Z 00000001800763c0 f   ImGuiDEBUG:imgui.obj
 0001:000755e0       ?End@ImGuiListClipper@@QEAAXXZ 00000001800765e0 f   ImGuiDEBUG:imgui.obj
 0001:00075740       ?Step@ImGuiListClipper@@QEAA_NXZ 0000000180076740 f   ImGuiDEBUG:imgui.obj
 0001:000758d0       ?IncludeItemsByIndex@ImGuiListClipper@@QEAAXHH@Z 00000001800768d0 f   ImGuiDEBUG:imgui.obj
 0001:000759c0       ?SeekCursorForItem@ImGuiListClipper@@QEAAXH@Z 00000001800769c0 f   ImGuiDEBUG:imgui.obj
 0001:00075de0       ??0ImGuiPlatformIO@@QEAA@XZ 0000000180076de0 f   ImGuiDEBUG:imgui.obj
 0001:00075e40       ?GetContentRegionMax@ImGui@@YA?AUImVec2@@XZ 0000000180076e40 f   ImGuiDEBUG:imgui.obj
 0001:00075eb0       ?GetWindowContentRegionMin@ImGui@@YA?AUImVec2@@XZ 0000000180076eb0 f   ImGuiDEBUG:imgui.obj
 0001:00075f10       ?GetWindowContentRegionMax@ImGui@@YA?AUImVec2@@XZ 0000000180076f10 f   ImGuiDEBUG:imgui.obj
 0001:00075f70       ?SetItemAllowOverlap@ImGui@@YAXXZ 0000000180076f70 f   ImGuiDEBUG:imgui.obj
 0001:00075fe0       ?GetKeyIndex@ImGui@@YA?AW4ImGuiKey@@W42@@Z 0000000180076fe0 f   ImGuiDEBUG:imgui.obj
 0001:00076060       ?ImHashData@@YAIPEBX_KI@Z  0000000180077060 f   ImGuiDEBUG:imgui.obj
 0001:00076100       ?ImHashStr@@YAIPEBD_KI@Z   0000000180077100 f   ImGuiDEBUG:imgui.obj
 0001:000762f0       ?ImAlphaBlendColors@@YAIII@Z 00000001800772f0 f   ImGuiDEBUG:imgui.obj
 0001:00076400       ?ImStricmp@@YAHPEBD0@Z     0000000180077400 f   ImGuiDEBUG:imgui.obj
 0001:00076480       ?ImStrnicmp@@YAHPEBD0_K@Z  0000000180077480 f   ImGuiDEBUG:imgui.obj
 0001:00076520       ?ImStrncpy@@YAXPEADPEBD_K@Z 0000000180077520 f   ImGuiDEBUG:imgui.obj
 0001:00076580       ?ImStrdup@@YAPEADPEBD@Z    0000000180077580 f   ImGuiDEBUG:imgui.obj
 0001:00076600       ?ImStrdupcpy@@YAPEADPEADPEA_KPEBD@Z 0000000180077600 f   ImGuiDEBUG:imgui.obj
 0001:00076720       ?ImStrchrRange@@YAPEBDPEBD0D@Z 0000000180077720 f   ImGuiDEBUG:imgui.obj
 0001:00076770       ?ImStreolRange@@YAPEBDPEBD0@Z 0000000180077770 f   ImGuiDEBUG:imgui.obj
 0001:000767e0       ?ImStristr@@YAPEBDPEBD000@Z 00000001800777e0 f   ImGuiDEBUG:imgui.obj
 0001:00076940       ?ImStrTrimBlanks@@YAXPEAD@Z 0000000180077940 f   ImGuiDEBUG:imgui.obj
 0001:00076a60       ?ImStrSkipBlank@@YAPEBDPEBD@Z 0000000180077a60 f   ImGuiDEBUG:imgui.obj
 0001:00076ab0       ?ImStrlenW@@YAHPEBG@Z      0000000180077ab0 f   ImGuiDEBUG:imgui.obj
 0001:00076b00       ?ImStrbolW@@YAPEBGPEBG0@Z  0000000180077b00 f   ImGuiDEBUG:imgui.obj
 0001:00076c50       ?ImFormatString@@YAHPEAD_KPEBDZZ 0000000180077c50 f   ImGuiDEBUG:imgui.obj
 0001:00076ce0       ?ImFormatStringV@@YAHPEAD_KPEBD0@Z 0000000180077ce0 f   ImGuiDEBUG:imgui.obj
 0001:00076d60       ?ImFormatStringToTempBuffer@@YAXPEAPEBD0PEBDZZ 0000000180077d60 f   ImGuiDEBUG:imgui.obj
 0001:00076db0       ?ImFormatStringToTempBufferV@@YAXPEAPEBD0PEBDPEAD@Z 0000000180077db0 f   ImGuiDEBUG:imgui.obj
 0001:00077120       ?ImTextCharToUtf8@@YAPEBDQEADI@Z 0000000180078120 f   ImGuiDEBUG:imgui.obj
 0001:00077170       ?ImTextStrToUtf8@@YAHPEADHPEBG1@Z 0000000180078170 f   ImGuiDEBUG:imgui.obj
 0001:00077280       ?ImTextCharFromUtf8@@YAHPEAIPEBD1@Z 0000000180078280 f   ImGuiDEBUG:imgui.obj
 0001:00077720       ?ImTextStrFromUtf8@@YAHPEAGHPEBD1PEAPEBD@Z 0000000180078720 f   ImGuiDEBUG:imgui.obj
 0001:00077810       ?ImTextCountCharsFromUtf8@@YAHPEBD0@Z 0000000180078810 f   ImGuiDEBUG:imgui.obj
 0001:00077890       ?ImTextCountUtf8BytesFromChar@@YAHPEBD0@Z 0000000180078890 f   ImGuiDEBUG:imgui.obj
 0001:000778d0       ?ImTextCountUtf8BytesFromStr@@YAHPEBG0@Z 00000001800788d0 f   ImGuiDEBUG:imgui.obj
 0001:00077960       ?ImTextFindPreviousUtf8Codepoint@@YAPEBDPEBD0@Z 0000000180078960 f   ImGuiDEBUG:imgui.obj
 0001:000779b0       ?ImTextCountLines@@YAHPEBD0@Z 00000001800789b0 f   ImGuiDEBUG:imgui.obj
 0001:00077a90       ?ImFileOpen@@YAPEAU_iobuf@@PEBD0@Z 0000000180078a90 f   ImGuiDEBUG:imgui.obj
 0001:00077c30       ?ImFileClose@@YA_NPEAU_iobuf@@@Z 0000000180078c30 f   ImGuiDEBUG:imgui.obj
 0001:00077c70       ?ImFileGetSize@@YA_KPEAU_iobuf@@@Z 0000000180078c70 f   ImGuiDEBUG:imgui.obj
 0001:00077d10       ?ImFileRead@@YA_KPEAX_K1PEAU_iobuf@@@Z 0000000180078d10 f   ImGuiDEBUG:imgui.obj
 0001:00077d50       ?ImFileWrite@@YA_KPEBX_K1PEAU_iobuf@@@Z 0000000180078d50 f   ImGuiDEBUG:imgui.obj
 0001:00077d90       ?ImFileLoadToMemory@@YAPEAXPEBD0PEA_KH@Z 0000000180078d90 f   ImGuiDEBUG:imgui.obj
 0001:00078560       ?ImBezierCubicClosestPoint@@YA?AUImVec2@@AEBU1@0000H@Z 0000000180079560 f   ImGuiDEBUG:imgui.obj
 0001:000786f0       ?ImBezierCubicClosestPointCasteljau@@YA?AUImVec2@@AEBU1@0000M@Z 00000001800796f0 f   ImGuiDEBUG:imgui.obj
 0001:00078860       ?ImLineClosestPoint@@YA?AUImVec2@@AEBU1@00@Z 0000000180079860 f   ImGuiDEBUG:imgui.obj
 0001:00078980       ?ImTriangleContainsPoint@@YA_NAEBUImVec2@@000@Z 0000000180079980 f   ImGuiDEBUG:imgui.obj
 0001:00078b50       ?ImTriangleClosestPoint@@YA?AUImVec2@@AEBU1@000@Z 0000000180079b50 f   ImGuiDEBUG:imgui.obj
 0001:00078cc0       ?ImTriangleBarycentricCoords@@YAXAEBUImVec2@@000AEAM11@Z 0000000180079cc0 f   ImGuiDEBUG:imgui.obj
 0001:00078dc0       ?append@ImGuiTextIndex@@QEAAXPEBDHH@Z 0000000180079dc0 f   ImGuiDEBUG:imgui.obj
 0001:00078f20       ?ImLowerBound@@YAPEAUImGuiStoragePair@@PEAU1@0I@Z 0000000180079f20 f   ImGuiDEBUG:imgui.obj
 0001:00079020       ?SetToContextState@ImGuiStackSizes@@QEAAXPEAUImGuiContext@@@Z 000000018007a020 f   ImGuiDEBUG:imgui.obj
 0001:00079110       ?CompareWithContextState@ImGuiStackSizes@@QEAAXPEAUImGuiContext@@@Z 000000018007a110 f   ImGuiDEBUG:imgui.obj
 0001:00079370       ??0ImGuiDockNode@@QEAA@I@Z 000000018007a370 f   ImGuiDEBUG:imgui.obj
 0001:000796b0       ??1ImGuiDockNode@@QEAA@XZ  000000018007a6b0 f   ImGuiDEBUG:imgui.obj
 0001:00079720       ??0ImGuiWindow@@QEAA@PEAUImGuiContext@@PEBD@Z 000000018007a720 f   ImGuiDEBUG:imgui.obj
 0001:00079e90       ??1ImGuiWindow@@QEAA@XZ    000000018007ae90 f   ImGuiDEBUG:imgui.obj
 0001:00079f60       ?GetID@ImGuiWindow@@QEAAIPEBD0@Z 000000018007af60 f   ImGuiDEBUG:imgui.obj
 0001:0007a020       ?GetID@ImGuiWindow@@QEAAIPEBX@Z 000000018007b020 f   ImGuiDEBUG:imgui.obj
 0001:0007a0b0       ?GetID@ImGuiWindow@@QEAAIH@Z 000000018007b0b0 f   ImGuiDEBUG:imgui.obj
 0001:0007a140       ?GetIDFromRectangle@ImGuiWindow@@QEAAIAEBUImRect@@@Z 000000018007b140 f   ImGuiDEBUG:imgui.obj
 0001:0007a1b0       ?FindWindowByID@ImGui@@YAPEAUImGuiWindow@@I@Z 000000018007b1b0 f   ImGuiDEBUG:imgui.obj
 0001:0007a1f0       ?FindWindowByName@ImGui@@YAPEAUImGuiWindow@@PEBD@Z 000000018007b1f0 f   ImGuiDEBUG:imgui.obj
 0001:0007a220       ?UpdateWindowParentAndRootLinks@ImGui@@YAXPEAUImGuiWindow@@H0@Z 000000018007b220 f   ImGuiDEBUG:imgui.obj
 0001:0007a3f0       ?UpdateWindowSkipRefresh@ImGui@@YAXPEAUImGuiWindow@@@Z 000000018007b3f0 f   ImGuiDEBUG:imgui.obj
 0001:0007a570       ?CalcWindowNextAutoFitSize@ImGui@@YA?AUImVec2@@PEAUImGuiWindow@@@Z 000000018007b570 f   ImGuiDEBUG:imgui.obj
 0001:0007a5f0       ?IsWindowChildOf@ImGui@@YA_NPEAUImGuiWindow@@0_N1@Z 000000018007b5f0 f   ImGuiDEBUG:imgui.obj
 0001:0007a680       ?IsWindowWithinBeginStackOf@ImGui@@YA_NPEAUImGuiWindow@@0@Z 000000018007b680 f   ImGuiDEBUG:imgui.obj
 0001:0007a6e0       ?IsWindowAbove@ImGui@@YA_NPEAUImGuiWindow@@0@Z 000000018007b6e0 f   ImGuiDEBUG:imgui.obj
 0001:0007a7c0       ?IsWindowNavFocusable@ImGui@@YA_NPEAUImGuiWindow@@@Z 000000018007b7c0 f   ImGuiDEBUG:imgui.obj
 0001:0007a820       ?SetWindowPos@ImGui@@YAXPEAUImGuiWindow@@AEBUImVec2@@H@Z 000000018007b820 f   ImGuiDEBUG:imgui.obj
 0001:0007a9d0       ?SetWindowSize@ImGui@@YAXPEAUImGuiWindow@@AEBUImVec2@@H@Z 000000018007b9d0 f   ImGuiDEBUG:imgui.obj
 0001:0007abf0       ?SetWindowCollapsed@ImGui@@YAXPEAUImGuiWindow@@_NH@Z 000000018007bbf0 f   ImGuiDEBUG:imgui.obj
 0001:0007ac80       ?SetWindowHitTestHole@ImGui@@YAXPEAUImGuiWindow@@AEBUImVec2@@1@Z 000000018007bc80 f   ImGuiDEBUG:imgui.obj
 0001:0007ad20       ?SetWindowHiddenAndSkipItemsForCurrentFrame@ImGui@@YAXPEAUImGuiWindow@@@Z 000000018007bd20 f   ImGuiDEBUG:imgui.obj
 0001:0007ad50       ?FocusWindow@ImGui@@YAXPEAUImGuiWindow@@H@Z 000000018007bd50 f   ImGuiDEBUG:imgui.obj
 0001:0007b190       ?FocusTopMostWindowUnderOne@ImGui@@YAXPEAUImGuiWindow@@0PEAUImGuiViewport@@H@Z 000000018007c190 f   ImGuiDEBUG:imgui.obj
 0001:0007b2d0       ?BringWindowToFocusFront@ImGui@@YAXPEAUImGuiWindow@@@Z 000000018007c2d0 f   ImGuiDEBUG:imgui.obj
 0001:0007b4b0       ?BringWindowToDisplayFront@ImGui@@YAXPEAUImGuiWindow@@@Z 000000018007c4b0 f   ImGuiDEBUG:imgui.obj
 0001:0007b600       ?BringWindowToDisplayBack@ImGui@@YAXPEAUImGuiWindow@@@Z 000000018007c600 f   ImGuiDEBUG:imgui.obj
 0001:0007b710       ?BringWindowToDisplayBehind@ImGui@@YAXPEAUImGuiWindow@@0@Z 000000018007c710 f   ImGuiDEBUG:imgui.obj
 0001:0007b890       ?FindWindowDisplayIndex@ImGui@@YAHPEAUImGuiWindow@@@Z 000000018007c890 f   ImGuiDEBUG:imgui.obj
 0001:0007b8e0       ?FindBottomMostVisibleWindowWithinBeginStack@ImGui@@YAPEAUImGuiWindow@@PEAU2@@Z 000000018007c8e0 f   ImGuiDEBUG:imgui.obj
 0001:0007b9c0       ?SetNextWindowRefreshPolicy@ImGui@@YAXH@Z 000000018007c9c0 f   ImGuiDEBUG:imgui.obj
 0001:0007ba10       ?SetCurrentFont@ImGui@@YAXPEAUImFont@@@Z 000000018007ca10 f   ImGuiDEBUG:imgui.obj
 0001:0007bbf0       ?Initialize@ImGui@@YAXXZ   000000018007cbf0 f   ImGuiDEBUG:imgui.obj
 0001:0007bf90       ?Shutdown@ImGui@@YAXXZ     000000018007cf90 f   ImGuiDEBUG:imgui.obj
 0001:0007c410       ?UpdateInputEvents@ImGui@@YAX_N@Z 000000018007d410 f   ImGuiDEBUG:imgui.obj
 0001:0007cba0       ?UpdateHoveredWindowAndCaptureFlags@ImGui@@YAXXZ 000000018007dba0 f   ImGuiDEBUG:imgui.obj
 0001:0007d190       ?FindHoveredWindowEx@ImGui@@YAXAEBUImVec2@@_NPEAPEAUImGuiWindow@@2@Z 000000018007e190 f   ImGuiDEBUG:imgui.obj
 0001:0007d5a0       ?StartMouseMovingWindow@ImGui@@YAXPEAUImGuiWindow@@@Z 000000018007e5a0 f   ImGuiDEBUG:imgui.obj
 0001:0007d6d0       ?StartMouseMovingWindowOrNode@ImGui@@YAXPEAUImGuiWindow@@PEAUImGuiDockNode@@_N@Z 000000018007e6d0 f   ImGuiDEBUG:imgui.obj
 0001:0007d800       ?UpdateMouseMovingWindowNewFrame@ImGui@@YAXXZ 000000018007e800 f   ImGuiDEBUG:imgui.obj
 0001:0007dae0       ?UpdateMouseMovingWindowEndFrame@ImGui@@YAXXZ 000000018007eae0 f   ImGuiDEBUG:imgui.obj
 0001:0007dd90       ?AddContextHook@ImGui@@YAIPEAUImGuiContext@@PEBUImGuiContextHook@@@Z 000000018007ed90 f   ImGuiDEBUG:imgui.obj
 0001:0007de50       ?RemoveContextHook@ImGui@@YAXPEAUImGuiContext@@I@Z 000000018007ee50 f   ImGuiDEBUG:imgui.obj
 0001:0007df10       ?CallContextHooks@ImGui@@YAXPEAUImGuiContext@@W4ImGuiContextHookType@@@Z 000000018007ef10 f   ImGuiDEBUG:imgui.obj
 0001:0007dfb0       ?TranslateWindowsInViewport@ImGui@@YAXPEAUImGuiViewportP@@AEBUImVec2@@1@Z 000000018007efb0 f   ImGuiDEBUG:imgui.obj
 0001:0007e160       ?ScaleWindowsInViewport@ImGui@@YAXPEAUImGuiViewportP@@M@Z 000000018007f160 f   ImGuiDEBUG:imgui.obj
 0001:0007e230       ?DestroyPlatformWindow@ImGui@@YAXPEAUImGuiViewportP@@@Z 000000018007f230 f   ImGuiDEBUG:imgui.obj
 0001:0007e3c0       ?SetWindowViewport@ImGui@@YAXPEAUImGuiWindow@@PEAUImGuiViewportP@@@Z 000000018007f3c0 f   ImGuiDEBUG:imgui.obj
 0001:0007e470       ?SetCurrentViewport@ImGui@@YAXPEAUImGuiWindow@@PEAUImGuiViewportP@@@Z 000000018007f470 f   ImGuiDEBUG:imgui.obj
 0001:0007e550       ?GetViewportPlatformMonitor@ImGui@@YAPEBUImGuiPlatformMonitor@@PEAUImGuiViewport@@@Z 000000018007f550 f   ImGuiDEBUG:imgui.obj
 0001:0007e5d0       ?FindHoveredViewportFromPlatformWindowStack@ImGui@@YAPEAUImGuiViewportP@@AEBUImVec2@@@Z 000000018007f5d0 f   ImGuiDEBUG:imgui.obj
 0001:0007e6c0       ?MarkIniSettingsDirty@ImGui@@YAXXZ 000000018007f6c0 f   ImGuiDEBUG:imgui.obj
 0001:0007e700       ?MarkIniSettingsDirty@ImGui@@YAXPEAUImGuiWindow@@@Z 000000018007f700 f   ImGuiDEBUG:imgui.obj
 0001:0007e760       ?ClearIniSettings@ImGui@@YAXXZ 000000018007f760 f   ImGuiDEBUG:imgui.obj
 0001:0007e810       ?AddSettingsHandler@ImGui@@YAXPEBUImGuiSettingsHandler@@@Z 000000018007f810 f   ImGuiDEBUG:imgui.obj
 0001:0007e880       ?RemoveSettingsHandler@ImGui@@YAXPEBD@Z 000000018007f880 f   ImGuiDEBUG:imgui.obj
 0001:0007e8d0       ?FindSettingsHandler@ImGui@@YAPEAUImGuiSettingsHandler@@PEBD@Z 000000018007f8d0 f   ImGuiDEBUG:imgui.obj
 0001:0007e970       ?CreateNewWindowSettings@ImGui@@YAPEAUImGuiWindowSettings@@PEBD@Z 000000018007f970 f   ImGuiDEBUG:imgui.obj
 0001:0007eac0       ?FindWindowSettingsByID@ImGui@@YAPEAUImGuiWindowSettings@@I@Z 000000018007fac0 f   ImGuiDEBUG:imgui.obj
 0001:0007eb50       ?FindWindowSettingsByWindow@ImGui@@YAPEAUImGuiWindowSettings@@PEAUImGuiWindow@@@Z 000000018007fb50 f   ImGuiDEBUG:imgui.obj
 0001:0007ebb0       ?ClearWindowSettings@ImGui@@YAXPEBD@Z 000000018007fbb0 f   ImGuiDEBUG:imgui.obj
 0001:0007ec80       ?LocalizeRegisterEntries@ImGui@@YAXPEBUImGuiLocEntry@@H@Z 000000018007fc80 f   ImGuiDEBUG:imgui.obj
 0001:0007ecf0       ?SetScrollX@ImGui@@YAXPEAUImGuiWindow@@M@Z 000000018007fcf0 f   ImGuiDEBUG:imgui.obj
 0001:0007ed40       ?SetScrollY@ImGui@@YAXPEAUImGuiWindow@@M@Z 000000018007fd40 f   ImGuiDEBUG:imgui.obj
 0001:0007ed90       ?SetScrollFromPosX@ImGui@@YAXPEAUImGuiWindow@@MM@Z 000000018007fd90 f   ImGuiDEBUG:imgui.obj
 0001:0007ee50       ?SetScrollFromPosY@ImGui@@YAXPEAUImGuiWindow@@MM@Z 000000018007fe50 f   ImGuiDEBUG:imgui.obj
 0001:0007ef10       ?ScrollToItem@ImGui@@YAXH@Z 000000018007ff10 f   ImGuiDEBUG:imgui.obj
 0001:0007ef70       ?ScrollToRect@ImGui@@YAXPEAUImGuiWindow@@AEBUImRect@@H@Z 000000018007ff70 f   ImGuiDEBUG:imgui.obj
 0001:0007efb0       ?ScrollToRectEx@ImGui@@YA?AUImVec2@@PEAUImGuiWindow@@AEBUImRect@@H@Z 000000018007ffb0 f   ImGuiDEBUG:imgui.obj
 0001:0007f780       ?SetActiveID@ImGui@@YAXIPEAUImGuiWindow@@@Z 0000000180080780 f   ImGuiDEBUG:imgui.obj
 0001:0007fa90       ?SetFocusID@ImGui@@YAXIPEAUImGuiWindow@@@Z 0000000180080a90 f   ImGuiDEBUG:imgui.obj
 0001:0007fbe0       ?ClearActiveID@ImGui@@YAXXZ 0000000180080be0 f   ImGuiDEBUG:imgui.obj
 0001:0007fc00       ?GetHoveredID@ImGui@@YAIXZ 0000000180080c00 f   ImGuiDEBUG:imgui.obj
 0001:0007fc50       ?SetHoveredID@ImGui@@YAXI@Z 0000000180080c50 f   ImGuiDEBUG:imgui.obj
 0001:0007fcc0       ?KeepAliveID@ImGui@@YAXI@Z 0000000180080cc0 f   ImGuiDEBUG:imgui.obj
 0001:0007fd20       ?MarkItemEdited@ImGui@@YAXI@Z 0000000180080d20 f   ImGuiDEBUG:imgui.obj
 0001:0007fe20       ?PushOverrideID@ImGui@@YAXI@Z 0000000180080e20 f   ImGuiDEBUG:imgui.obj
 0001:0007fe90       ?GetIDWithSeed@ImGui@@YAIPEBD0I@Z 0000000180080e90 f   ImGuiDEBUG:imgui.obj
 0001:0007ff30       ?GetIDWithSeed@ImGui@@YAIHI@Z 0000000180080f30 f   ImGuiDEBUG:imgui.obj
 0001:0007ffa0       ?ItemSize@ImGui@@YAXAEBUImVec2@@M@Z 0000000180080fa0 f   ImGuiDEBUG:imgui.obj
 0001:00080250       ?ItemAdd@ImGui@@YA_NAEBUImRect@@IPEBU2@H@Z 0000000180081250 f   ImGuiDEBUG:imgui.obj
 0001:00080590       ?ItemHoverable@ImGui@@YA_NAEBUImRect@@IH@Z 0000000180081590 f   ImGuiDEBUG:imgui.obj
 0001:00080890       ?IsWindowContentHoverable@ImGui@@YA_NPEAUImGuiWindow@@H@Z 0000000180081890 f   ImGuiDEBUG:imgui.obj
 0001:000809d0       ?IsClippedEx@ImGui@@YA_NAEBUImRect@@I@Z 00000001800819d0 f   ImGuiDEBUG:imgui.obj
 0001:00080a90       ?SetLastItemData@ImGui@@YAXIHHAEBUImRect@@@Z 0000000180081a90 f   ImGuiDEBUG:imgui.obj
 0001:00080b20       ?CalcItemSize@ImGui@@YA?AUImVec2@@U2@MM@Z 0000000180081b20 f   ImGuiDEBUG:imgui.obj
 0001:00080c20       ?CalcWrapWidthForPos@ImGui@@YAMAEBUImVec2@@M@Z 0000000180081c20 f   ImGuiDEBUG:imgui.obj
 0001:00080cf0       ?PushMultiItemsWidths@ImGui@@YAXHM@Z 0000000180081cf0 f   ImGuiDEBUG:imgui.obj
 0001:00080e80       ?GetStyleVarInfo@ImGui@@YAPEBUImGuiDataVarInfo@@H@Z 0000000180081e80 f   ImGuiDEBUG:imgui.obj
 0001:00080ee0       ?BeginDisabledOverrideReenable@ImGui@@YAXXZ 0000000180081ee0 f   ImGuiDEBUG:imgui.obj
 0001:00080fa0       ?EndDisabledOverrideReenable@ImGui@@YAXXZ 0000000180081fa0 f   ImGuiDEBUG:imgui.obj
 0001:00081060       ?LogBegin@ImGui@@YAXW4ImGuiLogType@@H@Z 0000000180082060 f   ImGuiDEBUG:imgui.obj
 0001:000811d0       ?LogToBuffer@ImGui@@YAXH@Z 00000001800821d0 f   ImGuiDEBUG:imgui.obj
 0001:00081210       ?LogRenderedText@ImGui@@YAXPEBUImVec2@@PEBD1@Z 0000000180082210 f   ImGuiDEBUG:imgui.obj
 0001:000815a0       ?LogSetNextTextDecoration@ImGui@@YAXPEBD0@Z 00000001800825a0 f   ImGuiDEBUG:imgui.obj
 0001:000815f0       ?BeginChildEx@ImGui@@YA_NPEBDIAEBUImVec2@@HH@Z 00000001800825f0 f   ImGuiDEBUG:imgui.obj
 0001:00081b90       ?BeginPopupEx@ImGui@@YA_NIH@Z 0000000180082b90 f   ImGuiDEBUG:imgui.obj
 0001:00081c80       ?OpenPopupEx@ImGui@@YAXIH@Z 0000000180082c80 f   ImGuiDEBUG:imgui.obj
 0001:00081ec0       ?ClosePopupToLevel@ImGui@@YAXH_N@Z 0000000180082ec0 f   ImGuiDEBUG:imgui.obj
 0001:00082070       ?ClosePopupsOverWindow@ImGui@@YAXPEAUImGuiWindow@@_N@Z 0000000180083070 f   ImGuiDEBUG:imgui.obj
 0001:00082230       ?ClosePopupsExceptModals@ImGui@@YAXXZ 0000000180083230 f   ImGuiDEBUG:imgui.obj
 0001:000822d0       ?IsPopupOpen@ImGui@@YA_NIH@Z 00000001800832d0 f   ImGuiDEBUG:imgui.obj
 0001:00082470       ?GetPopupAllowedExtentRect@ImGui@@YA?AUImRect@@PEAUImGuiWindow@@@Z 0000000180083470 f   ImGuiDEBUG:imgui.obj
 0001:00082610       ?GetTopMostPopupModal@ImGui@@YAPEAUImGuiWindow@@XZ 0000000180083610 f   ImGuiDEBUG:imgui.obj
 0001:00082690       ?GetTopMostAndVisiblePopupModal@ImGui@@YAPEAUImGuiWindow@@XZ 0000000180083690 f   ImGuiDEBUG:imgui.obj
 0001:00082730       ?FindBlockingModal@ImGui@@YAPEAUImGuiWindow@@PEAU2@@Z 0000000180083730 f   ImGuiDEBUG:imgui.obj
 0001:00082840       ?FindBestWindowPosForPopup@ImGui@@YA?AUImVec2@@PEAUImGuiWindow@@@Z 0000000180083840 f   ImGuiDEBUG:imgui.obj
 0001:00082d30       ?FindBestWindowPosForPopupEx@ImGui@@YA?AUImVec2@@AEBU2@0PEAW4ImGuiDir@@AEBUImRect@@2W4ImGuiPopupPositionPolicy@@@Z 0000000180083d30 f   ImGuiDEBUG:imgui.obj
 0001:00083470       ?BeginTooltipEx@ImGui@@YA_NHH@Z 0000000180084470 f   ImGuiDEBUG:imgui.obj
 0001:00083650       ?BeginTooltipHidden@ImGui@@YA_NXZ 0000000180084650 f   ImGuiDEBUG:imgui.obj
 0001:000836a0       ?NavInitWindow@ImGui@@YAXPEAUImGuiWindow@@_N@Z 00000001800846a0 f   ImGuiDEBUG:imgui.obj
 0001:00083850       ?NavInitRequestApplyResult@ImGui@@YAXXZ 0000000180084850 f   ImGuiDEBUG:imgui.obj
 0001:000839f0       ?NavMoveRequestButNoResultYet@ImGui@@YA_NXZ 00000001800849f0 f   ImGuiDEBUG:imgui.obj
 0001:00083a50       ?NavMoveRequestSubmit@ImGui@@YAXW4ImGuiDir@@0HH@Z 0000000180084a50 f   ImGuiDEBUG:imgui.obj
 0001:00083bd0       ?NavMoveRequestForward@ImGui@@YAXW4ImGuiDir@@0HH@Z 0000000180084bd0 f   ImGuiDEBUG:imgui.obj
 0001:00083c80       ?NavMoveRequestResolveWithLastItem@ImGui@@YAXPEAUImGuiNavItemData@@@Z 0000000180084c80 f   ImGuiDEBUG:imgui.obj
 0001:00083cc0       ?NavMoveRequestResolveWithPastTreeNode@ImGui@@YAXPEAUImGuiNavItemData@@PEAUImGuiTreeNodeStackData@@@Z 0000000180084cc0 f   ImGuiDEBUG:imgui.obj
 0001:00083d60       ?NavMoveRequestCancel@ImGui@@YAXXZ 0000000180084d60 f   ImGuiDEBUG:imgui.obj
 0001:00083da0       ?NavMoveRequestApplyResult@ImGui@@YAXXZ 0000000180084da0 f   ImGuiDEBUG:imgui.obj
 0001:000844d0       ?NavMoveRequestTryWrapping@ImGui@@YAXPEAUImGuiWindow@@H@Z 00000001800854d0 f   ImGuiDEBUG:imgui.obj
 0001:00084580       ?NavHighlightActivated@ImGui@@YAXI@Z 0000000180085580 f   ImGuiDEBUG:imgui.obj
 0001:000845c0       ?NavClearPreferredPosForAxis@ImGui@@YAXW4ImGuiAxis@@@Z 00000001800855c0 f   ImGuiDEBUG:imgui.obj
 0001:00084620       ?NavRestoreHighlightAfterMove@ImGui@@YAXXZ 0000000180085620 f   ImGuiDEBUG:imgui.obj
 0001:00084660       ?NavUpdateCurrentWindowIsScrollPushableX@ImGui@@YAXXZ 0000000180085660 f   ImGuiDEBUG:imgui.obj
 0001:000846d0       ?SetNavWindow@ImGui@@YAXPEAUImGuiWindow@@@Z 00000001800856d0 f   ImGuiDEBUG:imgui.obj
 0001:000847a0       ?SetNavID@ImGui@@YAXIW4ImGuiNavLayer@@IAEBUImRect@@@Z 00000001800857a0 f   ImGuiDEBUG:imgui.obj
 0001:000848b0       ?SetNavFocusScope@ImGui@@YAXI@Z 00000001800858b0 f   ImGuiDEBUG:imgui.obj
 0001:00084aa0       ?FocusItem@ImGui@@YAXXZ    0000000180085aa0 f   ImGuiDEBUG:imgui.obj
 0001:00084bc0       ?ActivateItemByID@ImGui@@YAXI@Z 0000000180085bc0 f   ImGuiDEBUG:imgui.obj
 0001:00084c00       ?FixupKeyChord@ImGui@@YAHH@Z 0000000180085c00 f   ImGuiDEBUG:imgui.obj
 0001:00084c50       ?GetKeyData@ImGui@@YAPEAUImGuiKeyData@@PEAUImGuiContext@@W4ImGuiKey@@@Z 0000000180085c50 f   ImGuiDEBUG:imgui.obj
 0001:00084d10       ?GetKeyChordName@ImGui@@YAPEBDH@Z 0000000180085d10 f   ImGuiDEBUG:imgui.obj
 0001:00084f20       ?IsMouseDragPastThreshold@ImGui@@YA_NHM@Z 0000000180085f20 f   ImGuiDEBUG:imgui.obj
 0001:00084fd0       ?GetKeyMagnitude2d@ImGui@@YA?AUImVec2@@W4ImGuiKey@@000@Z 0000000180085fd0 f   ImGuiDEBUG:imgui.obj
 0001:00085060       ?GetNavTweakPressedAmount@ImGui@@YAMW4ImGuiAxis@@@Z 0000000180086060 f   ImGuiDEBUG:imgui.obj
 0001:000851c0       ?CalcTypematicRepeatAmount@ImGui@@YAHMMMM@Z 00000001800861c0 f   ImGuiDEBUG:imgui.obj
 0001:000852e0       ?GetTypematicRepeatRate@ImGui@@YAXHPEAM0@Z 00000001800862e0 f   ImGuiDEBUG:imgui.obj
 0001:000853e0       ?TeleportMousePos@ImGui@@YAXAEBUImVec2@@@Z 00000001800863e0 f   ImGuiDEBUG:imgui.obj
 0001:00085460       ?SetActiveIdUsingAllKeyboardKeys@ImGui@@YAXXZ 0000000180086460 f   ImGuiDEBUG:imgui.obj
 0001:000854d0       ?GetKeyOwner@ImGui@@YAIW4ImGuiKey@@@Z 00000001800864d0 f   ImGuiDEBUG:imgui.obj
 0001:00085570       ?SetKeyOwner@ImGui@@YAXW4ImGuiKey@@IH@Z 0000000180086570 f   ImGuiDEBUG:imgui.obj
 0001:00085690       ?SetKeyOwnersForKeyChord@ImGui@@YAXHIH@Z 0000000180086690 f   ImGuiDEBUG:imgui.obj
 0001:00085760       ?SetItemKeyOwner@ImGui@@YAXW4ImGuiKey@@H@Z 0000000180086760 f   ImGuiDEBUG:imgui.obj
 0001:00085860       ?TestKeyOwner@ImGui@@YA_NW4ImGuiKey@@I@Z 0000000180086860 f   ImGuiDEBUG:imgui.obj
 0001:00085950       ?IsKeyDown@ImGui@@YA_NW4ImGuiKey@@I@Z 0000000180086950 f   ImGuiDEBUG:imgui.obj
 0001:000859a0       ?IsKeyPressed@ImGui@@YA_NW4ImGuiKey@@HI@Z 00000001800869a0 f   ImGuiDEBUG:imgui.obj
 0001:00085bd0       ?IsKeyReleased@ImGui@@YA_NW4ImGuiKey@@I@Z 0000000180086bd0 f   ImGuiDEBUG:imgui.obj
 0001:00085c30       ?IsKeyChordPressed@ImGui@@YA_NHHI@Z 0000000180086c30 f   ImGuiDEBUG:imgui.obj
 0001:00085cd0       ?IsMouseDown@ImGui@@YA_NHI@Z 0000000180086cd0 f   ImGuiDEBUG:imgui.obj
 0001:00085d70       ?IsMouseClicked@ImGui@@YA_NHHI@Z 0000000180086d70 f   ImGuiDEBUG:imgui.obj
 0001:00085f00       ?IsMouseReleased@ImGui@@YA_NHI@Z 0000000180086f00 f   ImGuiDEBUG:imgui.obj
 0001:00085fa0       ?IsMouseDoubleClicked@ImGui@@YA_NHI@Z 0000000180086fa0 f   ImGuiDEBUG:imgui.obj
 0001:00086040       ?Shortcut@ImGui@@YA_NHHI@Z 0000000180087040 f   ImGuiDEBUG:imgui.obj
 0001:00086160       ?SetShortcutRouting@ImGui@@YA_NHHI@Z 0000000180087160 f   ImGuiDEBUG:imgui.obj
 0001:00086500       ?TestShortcutRouting@ImGui@@YA_NHI@Z 0000000180087500 f   ImGuiDEBUG:imgui.obj
 0001:00086570       ?GetShortcutRoutingData@ImGui@@YAPEAUImGuiKeyRoutingData@@H@Z 0000000180087570 f   ImGuiDEBUG:imgui.obj
 0001:00086700       ?DockContextInitialize@ImGui@@YAXPEAUImGuiContext@@@Z 0000000180087700 f   ImGuiDEBUG:imgui.obj
 0001:000867d0       ?DockContextShutdown@ImGui@@YAXPEAUImGuiContext@@@Z 00000001800877d0 f   ImGuiDEBUG:imgui.obj
 0001:00086850       ?DockContextClearNodes@ImGui@@YAXPEAUImGuiContext@@I_N@Z 0000000180087850 f   ImGuiDEBUG:imgui.obj
 0001:000868b0       ?DockContextRebuildNodes@ImGui@@YAXPEAUImGuiContext@@@Z 00000001800878b0 f   ImGuiDEBUG:imgui.obj
 0001:00086950       ?DockContextNewFrameUpdateUndocking@ImGui@@YAXPEAUImGuiContext@@@Z 0000000180087950 f   ImGuiDEBUG:imgui.obj
 0001:00086b10       ?DockContextNewFrameUpdateDocking@ImGui@@YAXPEAUImGuiContext@@@Z 0000000180087b10 f   ImGuiDEBUG:imgui.obj
 0001:00086ce0       ?DockContextEndFrame@ImGui@@YAXPEAUImGuiContext@@@Z 0000000180087ce0 f   ImGuiDEBUG:imgui.obj
 0001:00086ef0       ?DockContextGenNodeID@ImGui@@YAIPEAUImGuiContext@@@Z 0000000180087ef0 f   ImGuiDEBUG:imgui.obj
 0001:00086f30       ?DockContextQueueDock@ImGui@@YAXPEAUImGuiContext@@PEAUImGuiWindow@@PEAUImGuiDockNode@@1W4ImGuiDir@@M_N@Z 0000000180087f30 f   ImGuiDEBUG:imgui.obj
 0001:00087000       ?DockContextQueueUndockWindow@ImGui@@YAXPEAUImGuiContext@@PEAUImGuiWindow@@@Z 0000000180088000 f   ImGuiDEBUG:imgui.obj
 0001:00087050       ?DockContextQueueUndockNode@ImGui@@YAXPEAUImGuiContext@@PEAUImGuiDockNode@@@Z 0000000180088050 f   ImGuiDEBUG:imgui.obj
 0001:000870a0       ?DockContextProcessUndockWindow@ImGui@@YAXPEAUImGuiContext@@PEAUImGuiWindow@@_N@Z 00000001800880a0 f   ImGuiDEBUG:imgui.obj
 0001:00087200       ?DockContextProcessUndockNode@ImGui@@YAXPEAUImGuiContext@@PEAUImGuiDockNode@@@Z 0000000180088200 f   ImGuiDEBUG:imgui.obj
 0001:00087590       ?DockContextCalcDropPosForDocking@ImGui@@YA_NPEAUImGuiWindow@@PEAUImGuiDockNode@@01W4ImGuiDir@@_NPEAUImVec2@@@Z 0000000180088590 f   ImGuiDEBUG:imgui.obj
 0001:00087720       ?DockContextFindNodeByID@ImGui@@YAPEAUImGuiDockNode@@PEAUImGuiContext@@I@Z 0000000180088720 f   ImGuiDEBUG:imgui.obj
 0001:00087750       ?DockNodeWindowMenuHandler_Default@ImGui@@YAXPEAUImGuiContext@@PEAUImGuiDockNode@@PEAUImGuiTabBar@@@Z 0000000180088750 f   ImGuiDEBUG:imgui.obj
 0001:000878b0       ?DockNodeBeginAmendTabBar@ImGui@@YA_NPEAUImGuiDockNode@@@Z 00000001800888b0 f   ImGuiDEBUG:imgui.obj
 0001:00087990       ?DockNodeEndAmendTabBar@ImGui@@YAXXZ 0000000180088990 f   ImGuiDEBUG:imgui.obj
 0001:000879b0       ?GetWindowAlwaysWantOwnTabBar@ImGui@@YA_NPEAUImGuiWindow@@@Z 00000001800889b0 f   ImGuiDEBUG:imgui.obj
 0001:00087a10       ?BeginDocked@ImGui@@YAXPEAUImGuiWindow@@PEA_N@Z 0000000180088a10 f   ImGuiDEBUG:imgui.obj
 0001:00088000       ?BeginDockableDragDropSource@ImGui@@YAXPEAUImGuiWindow@@@Z 0000000180089000 f   ImGuiDEBUG:imgui.obj
 0001:00088270       ?BeginDockableDragDropTarget@ImGui@@YAXPEAUImGuiWindow@@@Z 0000000180089270 f   ImGuiDEBUG:imgui.obj
 0001:00088850       ?SetWindowDock@ImGui@@YAXPEAUImGuiWindow@@IH@Z 0000000180089850 f   ImGuiDEBUG:imgui.obj
 0001:000889e0       ?DockBuilderDockWindow@ImGui@@YAXPEBDI@Z 00000001800899e0 f   ImGuiDEBUG:imgui.obj
 0001:00088b00       ?DockBuilderGetNode@ImGui@@YAPEAUImGuiDockNode@@I@Z 0000000180089b00 f   ImGuiDEBUG:imgui.obj
 0001:00088b30       ?DockBuilderAddNode@ImGui@@YAIIH@Z 0000000180089b30 f   ImGuiDEBUG:imgui.obj
 0001:00088c40       ?DockBuilderRemoveNode@ImGui@@YAXI@Z 0000000180089c40 f   ImGuiDEBUG:imgui.obj
 0001:00088d30       ?DockBuilderRemoveNodeDockedWindows@ImGui@@YAXI_N@Z 0000000180089d30 f   ImGuiDEBUG:imgui.obj
 0001:00088f60       ?DockBuilderRemoveNodeChildNodes@ImGui@@YAXI@Z 0000000180089f60 f   ImGuiDEBUG:imgui.obj
 0001:00089340       ?DockBuilderSetNodePos@ImGui@@YAXIUImVec2@@@Z 000000018008a340 f   ImGuiDEBUG:imgui.obj
 0001:000893b0       ?DockBuilderSetNodeSize@ImGui@@YAXIUImVec2@@@Z 000000018008a3b0 f   ImGuiDEBUG:imgui.obj
 0001:00089470       ?DockBuilderSplitNode@ImGui@@YAIIW4ImGuiDir@@MPEAI1@Z 000000018008a470 f   ImGuiDEBUG:imgui.obj
 0001:000896c0       ?DockBuilderCopyDockSpace@ImGui@@YAXIIPEAU?$ImVector@PEBD@@@Z 000000018008a6c0 f   ImGuiDEBUG:imgui.obj
 0001:00089bb0       ?DockBuilderCopyNode@ImGui@@YAXIIPEAU?$ImVector@I@@@Z 000000018008abb0 f   ImGuiDEBUG:imgui.obj
 0001:00089cd0       ?DockBuilderCopyWindowSettings@ImGui@@YAXPEBD0@Z 000000018008acd0 f   ImGuiDEBUG:imgui.obj
 0001:00089e50       ?DockBuilderFinish@ImGui@@YAXI@Z 000000018008ae50 f   ImGuiDEBUG:imgui.obj
 0001:00089e80       ?PushFocusScope@ImGui@@YAXI@Z 000000018008ae80 f   ImGuiDEBUG:imgui.obj
 0001:00089ef0       ?PopFocusScope@ImGui@@YAXXZ 000000018008aef0 f   ImGuiDEBUG:imgui.obj
 0001:00089fb0       ?IsDragDropActive@ImGui@@YA_NXZ 000000018008afb0 f   ImGuiDEBUG:imgui.obj
 0001:00089fe0       ?BeginDragDropTargetCustom@ImGui@@YA_NAEBUImRect@@I@Z 000000018008afe0 f   ImGuiDEBUG:imgui.obj
 0001:0008a170       ?ClearDragDrop@ImGui@@YAXXZ 000000018008b170 f   ImGuiDEBUG:imgui.obj
 0001:0008a260       ?IsDragDropPayloadBeingAccepted@ImGui@@YA_NXZ 000000018008b260 f   ImGuiDEBUG:imgui.obj
 0001:0008a2b0       ?RenderDragDropTargetRect@ImGui@@YAXAEBUImRect@@0@Z 000000018008b2b0 f   ImGuiDEBUG:imgui.obj
 0001:0008a3f0       ?RenderText@ImGui@@YAXUImVec2@@PEBD1_N@Z 000000018008b3f0 f   ImGuiDEBUG:imgui.obj
 0001:0008a570       ?RenderTextWrapped@ImGui@@YAXUImVec2@@PEBD1M@Z 000000018008b570 f   ImGuiDEBUG:imgui.obj
 0001:0008a6c0       ?RenderTextClipped@ImGui@@YAXAEBUImVec2@@0PEBD1PEBU2@0PEBUImRect@@@Z 000000018008b6c0 f   ImGuiDEBUG:imgui.obj
 0001:0008a7c0       ?RenderTextClippedEx@ImGui@@YAXPEAUImDrawList@@AEBUImVec2@@1PEBD2PEBU3@1PEBUImRect@@@Z 000000018008b7c0 f   ImGuiDEBUG:imgui.obj
 0001:0008ab40       ?RenderTextEllipsis@ImGui@@YAXPEAUImDrawList@@AEBUImVec2@@1MMPEBD2PEBU3@@Z 000000018008bb40 f   ImGuiDEBUG:imgui.obj
 0001:0008b0b0       ?RenderFrame@ImGui@@YAXUImVec2@@0I_NM@Z 000000018008c0b0 f   ImGuiDEBUG:imgui.obj
 0001:0008b290       ?RenderFrameBorder@ImGui@@YAXUImVec2@@0M@Z 000000018008c290 f   ImGuiDEBUG:imgui.obj
 0001:0008b420       ?RenderNavHighlight@ImGui@@YAXAEBUImRect@@IH@Z 000000018008c420 f   ImGuiDEBUG:imgui.obj
 0001:0008b680       ?FindRenderedTextEnd@ImGui@@YAPEBDPEBD0@Z 000000018008c680 f   ImGuiDEBUG:imgui.obj
 0001:0008b710       ?RenderMouseCursor@ImGui@@YAXUImVec2@@MHIII@Z 000000018008c710 f   ImGuiDEBUG:imgui.obj
 0001:0008bd30       ?GetWindowResizeCornerID@ImGui@@YAIPEAUImGuiWindow@@H@Z 000000018008cd30 f   ImGuiDEBUG:imgui.obj
 0001:0008bdf0       ?GetWindowResizeBorderID@ImGui@@YAIPEAUImGuiWindow@@W4ImGuiDir@@@Z 000000018008cdf0 f   ImGuiDEBUG:imgui.obj
 0001:0008bec0       ?GcCompactTransientMiscBuffers@ImGui@@YAXXZ 000000018008cec0 f   ImGuiDEBUG:imgui.obj
 0001:0008bf30       ?GcCompactTransientWindowBuffers@ImGui@@YAXPEAUImGuiWindow@@@Z 000000018008cf30 f   ImGuiDEBUG:imgui.obj
 0001:0008bff0       ?GcAwakeTransientWindowBuffers@ImGui@@YAXPEAUImGuiWindow@@@Z 000000018008cff0 f   ImGuiDEBUG:imgui.obj
 0001:0008c080       ?DebugAllocHook@ImGui@@YAXPEAUImGuiDebugAllocInfo@@HPEAX_K@Z 000000018008d080 f   ImGuiDEBUG:imgui.obj
 0001:0008c170       ?ErrorCheckEndFrameRecover@ImGui@@YAXP6AXPEAXPEBDZZ0@Z 000000018008d170 f   ImGuiDEBUG:imgui.obj
 0001:0008c270       ?ErrorCheckEndWindowRecover@ImGui@@YAXP6AXPEAXPEBDZZ0@Z 000000018008d270 f   ImGuiDEBUG:imgui.obj
 0001:0008c690       ?ErrorCheckUsingSetCursorPosToExtendParentBoundaries@ImGui@@YAXXZ 000000018008d690 f   ImGuiDEBUG:imgui.obj
 0001:0008c730       ?DebugDrawCursorPos@ImGui@@YAXI@Z 000000018008d730 f   ImGuiDEBUG:imgui.obj
 0001:0008c870       ?DebugDrawLineExtents@ImGui@@YAXI@Z 000000018008d870 f   ImGuiDEBUG:imgui.obj
 0001:0008cad0       ?DebugDrawItemRect@ImGui@@YAXI@Z 000000018008dad0 f   ImGuiDEBUG:imgui.obj
 0001:0008cb70       ?DebugTextUnformattedWithLocateItem@ImGui@@YAXPEBD0@Z 000000018008db70 f   ImGuiDEBUG:imgui.obj
 0001:0008cde0       ?DebugLocateItem@ImGui@@YAXI@Z 000000018008dde0 f   ImGuiDEBUG:imgui.obj
 0001:0008ce30       ?DebugLocateItemOnHover@ImGui@@YAXI@Z 000000018008de30 f   ImGuiDEBUG:imgui.obj
 0001:0008cfa0       ?DebugLocateItemResolveWithLastItem@ImGui@@YAXXZ 000000018008dfa0 f   ImGuiDEBUG:imgui.obj
 0001:0008d170       ?DebugBreakClearData@ImGui@@YAXXZ 000000018008e170 f   ImGuiDEBUG:imgui.obj
 0001:0008d1c0       ?DebugBreakButton@ImGui@@YA_NPEBD0@Z 000000018008e1c0 f   ImGuiDEBUG:imgui.obj
 0001:0008d500       ?DebugBreakButtonTooltip@ImGui@@YAX_NPEBD@Z 000000018008e500 f   ImGuiDEBUG:imgui.obj
 0001:0008d590       ?ShowFontAtlas@ImGui@@YAXPEAUImFontAtlas@@@Z 000000018008e590 f   ImGuiDEBUG:imgui.obj
 0001:0008d7f0       ?DebugHookIdInfo@ImGui@@YAXIHPEBX0@Z 000000018008e7f0 f   ImGuiDEBUG:imgui.obj
 0001:0008db90       ?DebugNodeColumns@ImGui@@YAXPEAUImGuiOldColumns@@@Z 000000018008eb90 f   ImGuiDEBUG:imgui.obj
 0001:0008dd30       ?DebugNodeDockNode@ImGui@@YAXPEAUImGuiDockNode@@PEBD@Z 000000018008ed30 f   ImGuiDEBUG:imgui.obj
 0001:0008e6b0       ?DebugNodeDrawList@ImGui@@YAXPEAUImGuiWindow@@PEAUImGuiViewportP@@PEBUImDrawList@@PEBD@Z 000000018008f6b0 f   ImGuiDEBUG:imgui.obj
 0001:0008f080       ?DebugNodeDrawCmdShowMeshAndBoundingBox@ImGui@@YAXPEAUImDrawList@@PEBU2@PEBUImDrawCmd@@_N3@Z 0000000180090080 f   ImGuiDEBUG:imgui.obj
 0001:0008f3f0       ?DebugNodeFont@ImGui@@YAXPEAUImFont@@@Z 00000001800903f0 f   ImGuiDEBUG:imgui.obj
 0001:0008fb80       ?DebugNodeFontGlyph@ImGui@@YAXPEAUImFont@@PEBUImFontGlyph@@@Z 0000000180090b80 f   ImGuiDEBUG:imgui.obj
 0001:0008fcb0       ?DebugNodeStorage@ImGui@@YAXPEAUImGuiStorage@@PEBD@Z 0000000180090cb0 f   ImGuiDEBUG:imgui.obj
 0001:0008fd80       ?DebugNodeTabBar@ImGui@@YAXPEAUImGuiTabBar@@PEBD@Z 0000000180090d80 f   ImGuiDEBUG:imgui.obj
 0001:00090330       ?DebugNodeWindow@ImGui@@YAXPEAUImGuiWindow@@PEBD@Z 0000000180091330 f   ImGuiDEBUG:imgui.obj
 0001:00091260       ?DebugNodeWindowSettings@ImGui@@YAXPEAUImGuiWindowSettings@@@Z 0000000180092260 f   ImGuiDEBUG:imgui.obj
 0001:00091330       ?DebugNodeWindowsList@ImGui@@YAXPEAU?$ImVector@PEAUImGuiWindow@@@@PEBD@Z 0000000180092330 f   ImGuiDEBUG:imgui.obj
 0001:000913e0       ?DebugNodeWindowsListByBeginStackParent@ImGui@@YAXPEAPEAUImGuiWindow@@HPEAU2@@Z 00000001800923e0 f   ImGuiDEBUG:imgui.obj
 0001:000914e0       ?DebugNodeViewport@ImGui@@YAXPEAUImGuiViewportP@@@Z 00000001800924e0 f   ImGuiDEBUG:imgui.obj
 0001:00091b60       ?DebugNodePlatformMonitor@ImGui@@YAXPEAUImGuiPlatformMonitor@@PEBDH@Z 0000000180092b60 f   ImGuiDEBUG:imgui.obj
 0001:00091d80       ?DebugRenderKeyboardPreview@ImGui@@YAXPEAUImDrawList@@@Z 0000000180092d80 f   ImGuiDEBUG:imgui.obj
 0001:00092580       ?DebugRenderViewportThumbnail@ImGui@@YAXPEAUImDrawList@@PEAUImGuiViewportP@@AEBUImRect@@@Z 0000000180093580 f   ImGuiDEBUG:imgui.obj
 0001:000cb430       ??$IM_DELETE@D@@YAXPEAD@Z  00000001800cc430 f i ImGuiDEBUG:imgui.obj
 0001:000cb460       ??$IM_DELETE@UImDrawList@@@@YAXPEAUImDrawList@@@Z 00000001800cc460 f i ImGuiDEBUG:imgui.obj
 0001:000cb4a0       ??$IM_DELETE@UImFontAtlas@@@@YAXPEAUImFontAtlas@@@Z 00000001800cc4a0 f i ImGuiDEBUG:imgui.obj
 0001:000cb4e0       ??$IM_DELETE@UImGuiContext@@@@YAXPEAUImGuiContext@@@Z 00000001800cc4e0 f i ImGuiDEBUG:imgui.obj
 0001:000cb520       ??$IM_DELETE@UImGuiDockNode@@@@YAXPEAUImGuiDockNode@@@Z 00000001800cc520 f i ImGuiDEBUG:imgui.obj
 0001:000cb560       ??$IM_DELETE@UImGuiTabBar@@@@YAXPEAUImGuiTabBar@@@Z 00000001800cc560 f i ImGuiDEBUG:imgui.obj
 0001:000cb5a0       ??$IM_DELETE@UImGuiViewportP@@@@YAXPEAUImGuiViewportP@@@Z 00000001800cc5a0 f i ImGuiDEBUG:imgui.obj
 0001:000cb5e0       ??$IM_DELETE@UImGuiWindow@@@@YAXPEAUImGuiWindow@@@Z 00000001800cc5e0 f i ImGuiDEBUG:imgui.obj
 0001:000cb620       ??0?$ImBitArray@$0CJK@$0A@@@QEAA@XZ 00000001800cc620 f i ImGuiDEBUG:imgui.obj
 0001:000cb650       ??0?$ImBitArray@$0JK@$0?CAA@@@QEAA@XZ 00000001800cc650 f i ImGuiDEBUG:imgui.obj
 0001:000cb680       ??0?$ImChunkStream@UImGuiTableSettings@@@@QEAA@XZ 00000001800cc680 f i ImGuiDEBUG:imgui.obj
 0001:000cb6b0       ??0?$ImChunkStream@UImGuiWindowSettings@@@@QEAA@XZ 00000001800cc6b0 f i ImGuiDEBUG:imgui.obj
 0001:000cb6e0       ??0?$ImPool@UImGuiDockContextPruneNodeData@@@@QEAA@XZ 00000001800cc6e0 f i ImGuiDEBUG:imgui.obj
 0001:000cb740       ??0?$ImPool@UImGuiMultiSelectState@@@@QEAA@XZ 00000001800cc740 f i ImGuiDEBUG:imgui.obj
 0001:000cb7a0       ??0?$ImPool@UImGuiTabBar@@@@QEAA@XZ 00000001800cc7a0 f i ImGuiDEBUG:imgui.obj
 0001:000cb800       ??0?$ImPool@UImGuiTable@@@@QEAA@XZ 00000001800cc800 f i ImGuiDEBUG:imgui.obj
 0001:000cb860       ??0?$ImVector@D@@QEAA@XZ   00000001800cc860 f i ImGuiDEBUG:imgui.obj
 0001:000cb8a0       ??0?$ImVector@E@@QEAA@XZ   00000001800cc8a0 f i ImGuiDEBUG:imgui.obj
 0001:000cb8e0       ??0?$ImVector@G@@QEAA@XZ   00000001800cc8e0 f i ImGuiDEBUG:imgui.obj
 0001:000cb920       ??0?$ImVector@H@@QEAA@XZ   00000001800cc920 f i ImGuiDEBUG:imgui.obj
 0001:000cb960       ??0?$ImVector@I@@QEAA@XZ   00000001800cc960 f i ImGuiDEBUG:imgui.obj
 0001:000cb9a0       ??0?$ImVector@M@@QEAA@XZ   00000001800cc9a0 f i ImGuiDEBUG:imgui.obj
 0001:000cb9e0       ??0?$ImVector@PEAUImDrawList@@@@QEAA@XZ 00000001800cc9e0 f i ImGuiDEBUG:imgui.obj
 0001:000cba20       ??0?$ImVector@PEAUImFont@@@@QEAA@XZ 00000001800cca20 f i ImGuiDEBUG:imgui.obj
 0001:000cba60       ??0?$ImVector@PEAUImGuiDockNode@@@@QEAA@XZ 00000001800cca60 f i ImGuiDEBUG:imgui.obj
 0001:000cbaa0       ??0?$ImVector@PEAUImGuiViewport@@@@QEAA@XZ 00000001800ccaa0 f i ImGuiDEBUG:imgui.obj
 0001:000cbae0       ??0?$ImVector@PEAUImGuiViewportP@@@@QEAA@XZ 00000001800ccae0 f i ImGuiDEBUG:imgui.obj
 0001:000cbb20       ??0?$ImVector@PEAUImGuiWindow@@@@QEAA@XZ 00000001800ccb20 f i ImGuiDEBUG:imgui.obj
 0001:000cbb60       ??0?$ImVector@PEAX@@QEAA@XZ 00000001800ccb60 f i ImGuiDEBUG:imgui.obj
 0001:000cbba0       ??0?$ImVector@UImDrawChannel@@@@QEAA@XZ 00000001800ccba0 f i ImGuiDEBUG:imgui.obj
 0001:000cbbe0       ??0?$ImVector@UImDrawCmd@@@@QEAA@XZ 00000001800ccbe0 f i ImGuiDEBUG:imgui.obj
 0001:000cbc20       ??0?$ImVector@UImDrawVert@@@@QEAA@XZ 00000001800ccc20 f i ImGuiDEBUG:imgui.obj
 0001:000cbc60       ??0?$ImVector@UImGuiColorMod@@@@QEAA@XZ 00000001800ccc60 f i ImGuiDEBUG:imgui.obj
 0001:000cbca0       ??0?$ImVector@UImGuiContextHook@@@@QEAA@XZ 00000001800ccca0 f i ImGuiDEBUG:imgui.obj
 0001:000cbce0       ??0?$ImVector@UImGuiDockContextPruneNodeData@@@@QEAA@XZ 00000001800ccce0 f i ImGuiDEBUG:imgui.obj
 0001:000cbd20       ??0?$ImVector@UImGuiDockNodeSettings@@@@QEAA@XZ 00000001800ccd20 f i ImGuiDEBUG:imgui.obj
 0001:000cbd60       ??0?$ImVector@UImGuiDockRequest@@@@QEAA@XZ 00000001800ccd60 f i ImGuiDEBUG:imgui.obj
 0001:000cbda0       ??0?$ImVector@UImGuiFocusScopeData@@@@QEAA@XZ 00000001800ccda0 f i ImGuiDEBUG:imgui.obj
 0001:000cbde0       ??0?$ImVector@UImGuiGroupData@@@@QEAA@XZ 00000001800ccde0 f i ImGuiDEBUG:imgui.obj
 0001:000cbe20       ??0?$ImVector@UImGuiInputEvent@@@@QEAA@XZ 00000001800cce20 f i ImGuiDEBUG:imgui.obj
 0001:000cbe60       ??0?$ImVector@UImGuiKeyRoutingData@@@@QEAA@XZ 00000001800cce60 f i ImGuiDEBUG:imgui.obj
 0001:000cbea0       ??0?$ImVector@UImGuiListClipperData@@@@QEAA@XZ 00000001800ccea0 f i ImGuiDEBUG:imgui.obj
 0001:000cbee0       ??0?$ImVector@UImGuiListClipperRange@@@@QEAA@XZ 00000001800ccee0 f i ImGuiDEBUG:imgui.obj
 0001:000cbf20       ??0?$ImVector@UImGuiMultiSelectState@@@@QEAA@XZ 00000001800ccf20 f i ImGuiDEBUG:imgui.obj
 0001:000cbf60       ??0?$ImVector@UImGuiMultiSelectTempData@@@@QEAA@XZ 00000001800ccf60 f i ImGuiDEBUG:imgui.obj
 0001:000cbfa0       ??0?$ImVector@UImGuiOldColumns@@@@QEAA@XZ 00000001800ccfa0 f i ImGuiDEBUG:imgui.obj
 0001:000cbfe0       ??0?$ImVector@UImGuiPlatformMonitor@@@@QEAA@XZ 00000001800ccfe0 f i ImGuiDEBUG:imgui.obj
 0001:000cc020       ??0?$ImVector@UImGuiPopupData@@@@QEAA@XZ 00000001800cd020 f i ImGuiDEBUG:imgui.obj
 0001:000cc060       ??0?$ImVector@UImGuiPtrOrIndex@@@@QEAA@XZ 00000001800cd060 f i ImGuiDEBUG:imgui.obj
 0001:000cc0a0       ??0?$ImVector@UImGuiSettingsHandler@@@@QEAA@XZ 00000001800cd0a0 f i ImGuiDEBUG:imgui.obj
 0001:000cc0e0       ??0?$ImVector@UImGuiShrinkWidthItem@@@@QEAA@XZ 00000001800cd0e0 f i ImGuiDEBUG:imgui.obj
 0001:000cc120       ??0?$ImVector@UImGuiStackLevelInfo@@@@QEAA@XZ 00000001800cd120 f i ImGuiDEBUG:imgui.obj
 0001:000cc160       ??0?$ImVector@UImGuiStoragePair@@@@QEAA@XZ 00000001800cd160 f i ImGuiDEBUG:imgui.obj
 0001:000cc1a0       ??0?$ImVector@UImGuiStyleMod@@@@QEAA@XZ 00000001800cd1a0 f i ImGuiDEBUG:imgui.obj
 0001:000cc1e0       ??0?$ImVector@UImGuiTabBar@@@@QEAA@XZ 00000001800cd1e0 f i ImGuiDEBUG:imgui.obj
 0001:000cc220       ??0?$ImVector@UImGuiTable@@@@QEAA@XZ 00000001800cd220 f i ImGuiDEBUG:imgui.obj
 0001:000cc260       ??0?$ImVector@UImGuiTableTempData@@@@QEAA@XZ 00000001800cd260 f i ImGuiDEBUG:imgui.obj
 0001:000cc2a0       ??0?$ImVector@UImGuiTextRange@ImGuiTextFilter@@@@QEAA@XZ 00000001800cd2a0 f i ImGuiDEBUG:imgui.obj
 0001:000cc2e0       ??0?$ImVector@UImGuiTreeNodeStackData@@@@QEAA@XZ 00000001800cd2e0 f i ImGuiDEBUG:imgui.obj
 0001:000cc320       ??0?$ImVector@UImGuiWindowStackData@@@@QEAA@XZ 00000001800cd320 f i ImGuiDEBUG:imgui.obj
 0001:000cc360       ??0?$ImVector@UImVec2@@@@QEAA@XZ 00000001800cd360 f i ImGuiDEBUG:imgui.obj
 0001:000cc3a0       ??0?$ImVector@UImVec4@@@@QEAA@XZ 00000001800cd3a0 f i ImGuiDEBUG:imgui.obj
 0001:000cc3e0       ??0?$ImVector@_W@@QEAA@XZ  00000001800cd3e0 f i ImGuiDEBUG:imgui.obj
 0001:000cc420       ??0ImDrawCmdHeader@@QEAA@XZ 00000001800cd420 f i ImGuiDEBUG:imgui.obj
 0001:000cc450       ??0ImDrawData@@QEAA@XZ     00000001800cd450 f i ImGuiDEBUG:imgui.obj
 0001:000cc4d0       ??0ImDrawDataBuilder@@QEAA@XZ 00000001800cd4d0 f i ImGuiDEBUG:imgui.obj
 0001:000cc520       ??0ImDrawList@@QEAA@PEAUImDrawListSharedData@@@Z 00000001800cd520 f i ImGuiDEBUG:imgui.obj
 0001:000cc610       ??0ImDrawListSplitter@@QEAA@XZ 00000001800cd610 f i ImGuiDEBUG:imgui.obj
 0001:000cc660       ??0ImGuiBoxSelectState@@QEAA@XZ 00000001800cd660 f i ImGuiDEBUG:imgui.obj
 0001:000cc710       ??0ImGuiColorMod@@QEAA@XZ  00000001800cd710 f i ImGuiDEBUG:imgui.obj
 0001:000cc740       ??0ImGuiComboPreviewData@@QEAA@XZ 00000001800cd740 f i ImGuiDEBUG:imgui.obj
 0001:000cc7c0       ??0ImGuiContext@@QEAA@PEAUImFontAtlas@@@Z 00000001800cd7c0 f i ImGuiDEBUG:imgui.obj
 0001:000ce150       ??0ImGuiDebugAllocInfo@@QEAA@XZ 00000001800cf150 f i ImGuiDEBUG:imgui.obj
 0001:000ce180       ??0ImGuiDockContext@@QEAA@XZ 00000001800cf180 f i ImGuiDEBUG:imgui.obj
 0001:000ce1f0       ??0ImGuiDockContextPruneNodeData@@QEAA@XZ 00000001800cf1f0 f i ImGuiDEBUG:imgui.obj
 0001:000ce240       ??0ImGuiDockNodeSettings@@QEAA@XZ 00000001800cf240 f i ImGuiDEBUG:imgui.obj
 0001:000ce2c0       ??0ImGuiDockNodeTreeInfo@@QEAA@XZ 00000001800cf2c0 f i ImGuiDEBUG:imgui.obj
 0001:000ce2f0       ??0ImGuiDockPreviewData@@QEAA@XZ 00000001800cf2f0 f i ImGuiDEBUG:imgui.obj
 0001:000ce450       ??0ImGuiDockRequest@@QEAA@XZ 00000001800cf450 f i ImGuiDEBUG:imgui.obj
 0001:000ce4f0       ??0ImGuiIDStackTool@@QEAA@XZ 00000001800cf4f0 f i ImGuiDEBUG:imgui.obj
 0001:000ce550       ??0ImGuiInputEvent@@QEAA@XZ 00000001800cf550 f i ImGuiDEBUG:imgui.obj
 0001:000ce580       ??0ImGuiInputTextDeactivatedState@@QEAA@XZ 00000001800cf580 f i ImGuiDEBUG:imgui.obj
 0001:000ce5d0       ??0ImGuiInputTextState@@QEAA@XZ 00000001800cf5d0 f i ImGuiDEBUG:imgui.obj
 0001:000ce650       ??0ImGuiKeyOwnerData@@QEAA@XZ 00000001800cf650 f i ImGuiDEBUG:imgui.obj
 0001:000ce6a0       ??0ImGuiKeyRoutingData@@QEAA@XZ 00000001800cf6a0 f i ImGuiDEBUG:imgui.obj
 0001:000ce700       ??0ImGuiKeyRoutingTable@@QEAA@XZ 00000001800cf700 f i ImGuiDEBUG:imgui.obj
 0001:000ce760       ??0ImGuiLastItemData@@QEAA@XZ 00000001800cf760 f i ImGuiDEBUG:imgui.obj
 0001:000ce7e0       ??0ImGuiListClipperData@@QEAA@XZ 00000001800cf7e0 f i ImGuiDEBUG:imgui.obj
 0001:000ce830       ??0ImGuiMenuColumns@@QEAA@XZ 00000001800cf830 f i ImGuiDEBUG:imgui.obj
 0001:000ce860       ??0ImGuiMetricsConfig@@QEAA@XZ 00000001800cf860 f i ImGuiDEBUG:imgui.obj
 0001:000ce920       ??0ImGuiNavItemData@@QEAA@XZ 00000001800cf920 f i ImGuiDEBUG:imgui.obj
 0001:000ce960       ??0ImGuiNextItemData@@QEAA@XZ 00000001800cf960 f i ImGuiDEBUG:imgui.obj
 0001:000ce9a0       ??0ImGuiNextWindowData@@QEAA@XZ 00000001800cf9a0 f i ImGuiDEBUG:imgui.obj
 0001:000cea80       ??0ImGuiPayload@@QEAA@XZ   00000001800cfa80 f i ImGuiDEBUG:imgui.obj
 0001:000ceab0       ??0ImGuiPlatformImeData@@QEAA@XZ 00000001800cfab0 f i ImGuiDEBUG:imgui.obj
 0001:000ceb00       ??0ImGuiPlatformMonitor@@QEAA@XZ 00000001800cfb00 f i ImGuiDEBUG:imgui.obj
 0001:000cec00       ??0ImGuiPopupData@@QEAA@XZ 00000001800cfc00 f i ImGuiDEBUG:imgui.obj
 0001:000cec80       ??0ImGuiSettingsHandler@@QEAA@XZ 00000001800cfc80 f i ImGuiDEBUG:imgui.obj
 0001:000cecb0       ??0ImGuiSizeCallbackData@@QEAA@XZ 00000001800cfcb0 f i ImGuiDEBUG:imgui.obj
 0001:000ced10       ??0ImGuiStackLevelInfo@@QEAA@XZ 00000001800cfd10 f i ImGuiDEBUG:imgui.obj
 0001:000ced40       ??0ImGuiStackSizes@@QEAA@XZ 00000001800cfd40 f i ImGuiDEBUG:imgui.obj
 0001:000ced70       ??0ImGuiStorage@@QEAA@XZ   00000001800cfd70 f i ImGuiDEBUG:imgui.obj
 0001:000ceda0       ??0ImGuiStoragePair@@QEAA@IH@Z 00000001800cfda0 f i ImGuiDEBUG:imgui.obj
 0001:000cede0       ??0ImGuiStoragePair@@QEAA@IM@Z 00000001800cfde0 f i ImGuiDEBUG:imgui.obj
 0001:000cee20       ??0ImGuiStoragePair@@QEAA@IPEAX@Z 00000001800cfe20 f i ImGuiDEBUG:imgui.obj
 0001:000cee60       ??0ImGuiStyleMod@@QEAA@HM@Z 00000001800cfe60 f i ImGuiDEBUG:imgui.obj
 0001:000ceeb0       ??0ImGuiStyleMod@@QEAA@HUImVec2@@@Z 00000001800cfeb0 f i ImGuiDEBUG:imgui.obj
 0001:000cef20       ??0ImGuiTextBuffer@@QEAA@XZ 00000001800cff20 f i ImGuiDEBUG:imgui.obj
 0001:000cef50       ??0ImGuiTextIndex@@QEAA@XZ 00000001800cff50 f i ImGuiDEBUG:imgui.obj
 0001:000cef90       ??0ImGuiTextRange@ImGuiTextFilter@@QEAA@PEBD0@Z 00000001800cff90 f i ImGuiDEBUG:imgui.obj
 0001:000cefd0       ??0ImGuiTypingSelectState@@QEAA@XZ 00000001800cffd0 f i ImGuiDEBUG:imgui.obj
 0001:000cf020       ??0ImGuiViewport@@QEAA@XZ  00000001800d0020 f i ImGuiDEBUG:imgui.obj
 0001:000cf0a0       ??0ImGuiViewportP@@QEAA@XZ 00000001800d00a0 f i ImGuiDEBUG:imgui.obj
 0001:000cf350       ??0ImGuiWindowClass@@QEAA@XZ 00000001800d0350 f i ImGuiDEBUG:imgui.obj
 0001:000cf390       ??0ImGuiWindowSettings@@QEAA@XZ 00000001800d0390 f i ImGuiDEBUG:imgui.obj
 0001:000cf410       ??0ImGuiWindowStackData@@QEAA@XZ 00000001800d0410 f i ImGuiDEBUG:imgui.obj
 0001:000cf460       ??0ImGuiWindowTempData@@QEAA@XZ 00000001800d0460 f i ImGuiDEBUG:imgui.obj
 0001:000cf5d0       ??0ImRect@@QEAA@AEBUImVec2@@0@Z 00000001800d05d0 f i ImGuiDEBUG:imgui.obj
 0001:000cf620       ??0ImRect@@QEAA@AEBUImVec4@@@Z 00000001800d0620 f i ImGuiDEBUG:imgui.obj
 0001:000cf6a0       ??0ImRect@@QEAA@MMMM@Z     00000001800d06a0 f i ImGuiDEBUG:imgui.obj
 0001:000cf720       ??0ImRect@@QEAA@XZ         00000001800d0720 f i ImGuiDEBUG:imgui.obj
 0001:000cf770       ??0ImVec1@@QEAA@XZ         00000001800d0770 f i ImGuiDEBUG:imgui.obj
 0001:000cf790       ??0ImVec2@@QEAA@MM@Z       00000001800d0790 f i ImGuiDEBUG:imgui.obj
 0001:000cf7e0       ??0ImVec2@@QEAA@XZ         00000001800d07e0 f i ImGuiDEBUG:imgui.obj
 0001:000cf810       ??0ImVec2ih@@QEAA@AEBUImVec2@@@Z 00000001800d0810 f i ImGuiDEBUG:imgui.obj
 0001:000cf860       ??0ImVec2ih@@QEAA@FF@Z     00000001800d0860 f i ImGuiDEBUG:imgui.obj
 0001:000cf8a0       ??0ImVec2ih@@QEAA@XZ       00000001800d08a0 f i ImGuiDEBUG:imgui.obj
 0001:000cf8d0       ??0ImVec4@@QEAA@MMMM@Z     00000001800d08d0 f i ImGuiDEBUG:imgui.obj
 0001:000cf950       ??0ImVec4@@QEAA@XZ         00000001800d0950 f i ImGuiDEBUG:imgui.obj
 0001:000cf9a0       ??1?$ImChunkStream@UImGuiTableSettings@@@@QEAA@XZ 00000001800d09a0 f i ImGuiDEBUG:imgui.obj
 0001:000cf9d0       ??1?$ImChunkStream@UImGuiWindowSettings@@@@QEAA@XZ 00000001800d09d0 f i ImGuiDEBUG:imgui.obj
 0001:000cfa00       ??1?$ImPool@UImGuiDockContextPruneNodeData@@@@QEAA@XZ 00000001800d0a00 f i ImGuiDEBUG:imgui.obj
 0001:000cfa50       ??1?$ImPool@UImGuiMultiSelectState@@@@QEAA@XZ 00000001800d0a50 f i ImGuiDEBUG:imgui.obj
 0001:000cfaa0       ??1?$ImPool@UImGuiTabBar@@@@QEAA@XZ 00000001800d0aa0 f i ImGuiDEBUG:imgui.obj
 0001:000cfaf0       ??1?$ImPool@UImGuiTable@@@@QEAA@XZ 00000001800d0af0 f i ImGuiDEBUG:imgui.obj
 0001:000cfb40       ??1?$ImVector@D@@QEAA@XZ   00000001800d0b40 f i ImGuiDEBUG:imgui.obj
 0001:000cfb80       ??1?$ImVector@E@@QEAA@XZ   00000001800d0b80 f i ImGuiDEBUG:imgui.obj
 0001:000cfbc0       ??1?$ImVector@G@@QEAA@XZ   00000001800d0bc0 f i ImGuiDEBUG:imgui.obj
 0001:000cfc00       ??1?$ImVector@H@@QEAA@XZ   00000001800d0c00 f i ImGuiDEBUG:imgui.obj
 0001:000cfc40       ??1?$ImVector@I@@QEAA@XZ   00000001800d0c40 f i ImGuiDEBUG:imgui.obj
 0001:000cfc80       ??1?$ImVector@M@@QEAA@XZ   00000001800d0c80 f i ImGuiDEBUG:imgui.obj
 0001:000cfcc0       ??1?$ImVector@PEAUImDrawList@@@@QEAA@XZ 00000001800d0cc0 f i ImGuiDEBUG:imgui.obj
 0001:000cfd00       ??1?$ImVector@PEAUImFont@@@@QEAA@XZ 00000001800d0d00 f i ImGuiDEBUG:imgui.obj
 0001:000cfd40       ??1?$ImVector@PEAUImGuiDockNode@@@@QEAA@XZ 00000001800d0d40 f i ImGuiDEBUG:imgui.obj
 0001:000cfd80       ??1?$ImVector@PEAUImGuiViewport@@@@QEAA@XZ 00000001800d0d80 f i ImGuiDEBUG:imgui.obj
 0001:000cfdc0       ??1?$ImVector@PEAUImGuiViewportP@@@@QEAA@XZ 00000001800d0dc0 f i ImGuiDEBUG:imgui.obj
 0001:000cfe00       ??1?$ImVector@PEAUImGuiWindow@@@@QEAA@XZ 00000001800d0e00 f i ImGuiDEBUG:imgui.obj
 0001:000cfe40       ??1?$ImVector@PEAX@@QEAA@XZ 00000001800d0e40 f i ImGuiDEBUG:imgui.obj
 0001:000cfe80       ??1?$ImVector@UImDrawChannel@@@@QEAA@XZ 00000001800d0e80 f i ImGuiDEBUG:imgui.obj
 0001:000cfec0       ??1?$ImVector@UImDrawCmd@@@@QEAA@XZ 00000001800d0ec0 f i ImGuiDEBUG:imgui.obj
 0001:000cff00       ??1?$ImVector@UImDrawVert@@@@QEAA@XZ 00000001800d0f00 f i ImGuiDEBUG:imgui.obj
 0001:000cff40       ??1?$ImVector@UImGuiColorMod@@@@QEAA@XZ 00000001800d0f40 f i ImGuiDEBUG:imgui.obj
 0001:000cff80       ??1?$ImVector@UImGuiContextHook@@@@QEAA@XZ 00000001800d0f80 f i ImGuiDEBUG:imgui.obj
 0001:000cffc0       ??1?$ImVector@UImGuiDockContextPruneNodeData@@@@QEAA@XZ 00000001800d0fc0 f i ImGuiDEBUG:imgui.obj
 0001:000d0000       ??1?$ImVector@UImGuiDockNodeSettings@@@@QEAA@XZ 00000001800d1000 f i ImGuiDEBUG:imgui.obj
 0001:000d0040       ??1?$ImVector@UImGuiDockRequest@@@@QEAA@XZ 00000001800d1040 f i ImGuiDEBUG:imgui.obj
 0001:000d0080       ??1?$ImVector@UImGuiFocusScopeData@@@@QEAA@XZ 00000001800d1080 f i ImGuiDEBUG:imgui.obj
 0001:000d00c0       ??1?$ImVector@UImGuiGroupData@@@@QEAA@XZ 00000001800d10c0 f i ImGuiDEBUG:imgui.obj
 0001:000d0100       ??1?$ImVector@UImGuiInputEvent@@@@QEAA@XZ 00000001800d1100 f i ImGuiDEBUG:imgui.obj
 0001:000d0140       ??1?$ImVector@UImGuiKeyRoutingData@@@@QEAA@XZ 00000001800d1140 f i ImGuiDEBUG:imgui.obj
 0001:000d0180       ??1?$ImVector@UImGuiListClipperData@@@@QEAA@XZ 00000001800d1180 f i ImGuiDEBUG:imgui.obj
 0001:000d01c0       ??1?$ImVector@UImGuiListClipperRange@@@@QEAA@XZ 00000001800d11c0 f i ImGuiDEBUG:imgui.obj
 0001:000d0200       ??1?$ImVector@UImGuiMultiSelectState@@@@QEAA@XZ 00000001800d1200 f i ImGuiDEBUG:imgui.obj
 0001:000d0240       ??1?$ImVector@UImGuiMultiSelectTempData@@@@QEAA@XZ 00000001800d1240 f i ImGuiDEBUG:imgui.obj
 0001:000d0280       ??1?$ImVector@UImGuiOldColumnData@@@@QEAA@XZ 00000001800d1280 f i ImGuiDEBUG:imgui.obj
 0001:000d02c0       ??1?$ImVector@UImGuiOldColumns@@@@QEAA@XZ 00000001800d12c0 f i ImGuiDEBUG:imgui.obj
 0001:000d0300       ??1?$ImVector@UImGuiPlatformMonitor@@@@QEAA@XZ 00000001800d1300 f i ImGuiDEBUG:imgui.obj
 0001:000d0340       ??1?$ImVector@UImGuiPopupData@@@@QEAA@XZ 00000001800d1340 f i ImGuiDEBUG:imgui.obj
 0001:000d0380       ??1?$ImVector@UImGuiPtrOrIndex@@@@QEAA@XZ 00000001800d1380 f i ImGuiDEBUG:imgui.obj
 0001:000d03c0       ??1?$ImVector@UImGuiSelectionRequest@@@@QEAA@XZ 00000001800d13c0 f i ImGuiDEBUG:imgui.obj
 0001:000d0400       ??1?$ImVector@UImGuiSettingsHandler@@@@QEAA@XZ 00000001800d1400 f i ImGuiDEBUG:imgui.obj
 0001:000d0440       ??1?$ImVector@UImGuiShrinkWidthItem@@@@QEAA@XZ 00000001800d1440 f i ImGuiDEBUG:imgui.obj
 0001:000d0480       ??1?$ImVector@UImGuiStackLevelInfo@@@@QEAA@XZ 00000001800d1480 f i ImGuiDEBUG:imgui.obj
 0001:000d04c0       ??1?$ImVector@UImGuiStoragePair@@@@QEAA@XZ 00000001800d14c0 f i ImGuiDEBUG:imgui.obj
 0001:000d0500       ??1?$ImVector@UImGuiStyleMod@@@@QEAA@XZ 00000001800d1500 f i ImGuiDEBUG:imgui.obj
 0001:000d0540       ??1?$ImVector@UImGuiTabBar@@@@QEAA@XZ 00000001800d1540 f i ImGuiDEBUG:imgui.obj
 0001:000d0580       ??1?$ImVector@UImGuiTabItem@@@@QEAA@XZ 00000001800d1580 f i ImGuiDEBUG:imgui.obj
 0001:000d05c0       ??1?$ImVector@UImGuiTable@@@@QEAA@XZ 00000001800d15c0 f i ImGuiDEBUG:imgui.obj
 0001:000d0600       ??1?$ImVector@UImGuiTableColumnSortSpecs@@@@QEAA@XZ 00000001800d1600 f i ImGuiDEBUG:imgui.obj
 0001:000d0640       ??1?$ImVector@UImGuiTableHeaderData@@@@QEAA@XZ 00000001800d1640 f i ImGuiDEBUG:imgui.obj
 0001:000d0680       ??1?$ImVector@UImGuiTableInstanceData@@@@QEAA@XZ 00000001800d1680 f i ImGuiDEBUG:imgui.obj
 0001:000d06c0       ??1?$ImVector@UImGuiTableTempData@@@@QEAA@XZ 00000001800d16c0 f i ImGuiDEBUG:imgui.obj
 0001:000d0700       ??1?$ImVector@UImGuiTreeNodeStackData@@@@QEAA@XZ 00000001800d1700 f i ImGuiDEBUG:imgui.obj
 0001:000d0740       ??1?$ImVector@UImGuiWindowStackData@@@@QEAA@XZ 00000001800d1740 f i ImGuiDEBUG:imgui.obj
 0001:000d0780       ??1?$ImVector@UImVec2@@@@QEAA@XZ 00000001800d1780 f i ImGuiDEBUG:imgui.obj
 0001:000d07c0       ??1?$ImVector@UImVec4@@@@QEAA@XZ 00000001800d17c0 f i ImGuiDEBUG:imgui.obj
 0001:000d0800       ??1?$ImVector@_W@@QEAA@XZ  00000001800d1800 f i ImGuiDEBUG:imgui.obj
 0001:000d0840       ??1ImDrawData@@QEAA@XZ     00000001800d1840 f i ImGuiDEBUG:imgui.obj
 0001:000d0870       ??1ImDrawDataBuilder@@QEAA@XZ 00000001800d1870 f i ImGuiDEBUG:imgui.obj
 0001:000d08a0       ??1ImDrawList@@QEAA@XZ     00000001800d18a0 f i ImGuiDEBUG:imgui.obj
 0001:000d0960       ??1ImDrawListSharedData@@QEAA@XZ 00000001800d1960 f i ImGuiDEBUG:imgui.obj
 0001:000d0990       ??1ImDrawListSplitter@@QEAA@XZ 00000001800d1990 f i ImGuiDEBUG:imgui.obj
 0001:000d09d0       ??1ImGuiContext@@QEAA@XZ   00000001800d19d0 f i ImGuiDEBUG:imgui.obj
 0001:000d0e70       ??1ImGuiDockContext@@QEAA@XZ 00000001800d1e70 f i ImGuiDEBUG:imgui.obj
 0001:000d0ec0       ??1ImGuiDockPreviewData@@QEAA@XZ 00000001800d1ec0 f i ImGuiDEBUG:imgui.obj
 0001:000d0ef0       ??1ImGuiIDStackTool@@QEAA@XZ 00000001800d1ef0 f i ImGuiDEBUG:imgui.obj
 0001:000d0f20       ??1ImGuiIO@@QEAA@XZ        00000001800d1f20 f i ImGuiDEBUG:imgui.obj
 0001:000d0f50       ??1ImGuiInputTextDeactivatedState@@QEAA@XZ 00000001800d1f50 f i ImGuiDEBUG:imgui.obj
 0001:000d0f80       ??1ImGuiInputTextState@@QEAA@XZ 00000001800d1f80 f i ImGuiDEBUG:imgui.obj
 0001:000d0fe0       ??1ImGuiKeyRoutingTable@@QEAA@XZ 00000001800d1fe0 f i ImGuiDEBUG:imgui.obj
 0001:000d1030       ??1ImGuiListClipperData@@QEAA@XZ 00000001800d2030 f i ImGuiDEBUG:imgui.obj
 0001:000d1060       ??1ImGuiMultiSelectIO@@QEAA@XZ 00000001800d2060 f i ImGuiDEBUG:imgui.obj
 0001:000d1090       ??1ImGuiMultiSelectTempData@@QEAA@XZ 00000001800d2090 f i ImGuiDEBUG:imgui.obj
 0001:000d10c0       ??1ImGuiOldColumns@@QEAA@XZ 00000001800d20c0 f i ImGuiDEBUG:imgui.obj
 0001:000d1100       ??1ImGuiPlatformIO@@QEAA@XZ 00000001800d2100 f i ImGuiDEBUG:imgui.obj
 0001:000d1150       ??1ImGuiStorage@@QEAA@XZ   00000001800d2150 f i ImGuiDEBUG:imgui.obj
 0001:000d1180       ??1ImGuiTabBar@@QEAA@XZ    00000001800d2180 f i ImGuiDEBUG:imgui.obj
 0001:000d11c0       ??1ImGuiTable@@QEAA@XZ     00000001800d21c0 f i ImGuiDEBUG:imgui.obj
 0001:000d1230       ??1ImGuiTableTempData@@QEAA@XZ 00000001800d2230 f i ImGuiDEBUG:imgui.obj
 0001:000d1270       ??1ImGuiTextBuffer@@QEAA@XZ 00000001800d2270 f i ImGuiDEBUG:imgui.obj
 0001:000d12a0       ??1ImGuiTextIndex@@QEAA@XZ 00000001800d22a0 f i ImGuiDEBUG:imgui.obj
 0001:000d12d0       ??1ImGuiViewport@@QEAA@XZ  00000001800d22d0 f i ImGuiDEBUG:imgui.obj
 0001:000d1330       ??1ImGuiViewportP@@QEAA@XZ 00000001800d2330 f i ImGuiDEBUG:imgui.obj
 0001:000d1410       ??1ImGuiWindowTempData@@QEAA@XZ 00000001800d2410 f i ImGuiDEBUG:imgui.obj
 0001:000d1470       ??2@YAPEAX_KUImNewWrapper@@PEAX@Z 00000001800d2470 f i ImGuiDEBUG:imgui.obj
 0001:000d1490       ??A?$ImSpan@UImGuiTableColumn@@@@QEAAAEAUImGuiTableColumn@@H@Z 00000001800d2490 f i ImGuiDEBUG:imgui.obj
 0001:000d1510       ??A?$ImVector@D@@QEAAAEADH@Z 00000001800d2510 f i ImGuiDEBUG:imgui.obj
 0001:000d1580       ??A?$ImVector@G@@QEAAAEAGH@Z 00000001800d2580 f i ImGuiDEBUG:imgui.obj
 0001:000d15f0       ??A?$ImVector@H@@QEAAAEAHH@Z 00000001800d25f0 f i ImGuiDEBUG:imgui.obj
 0001:000d1660       ??A?$ImVector@I@@QEAAAEAIH@Z 00000001800d2660 f i ImGuiDEBUG:imgui.obj
 0001:000d16d0       ??A?$ImVector@M@@QEAAAEAMH@Z 00000001800d26d0 f i ImGuiDEBUG:imgui.obj
 0001:000d1740       ??A?$ImVector@PEAUImFont@@@@QEAAAEAPEAUImFont@@H@Z 00000001800d2740 f i ImGuiDEBUG:imgui.obj
 0001:000d17b0       ??A?$ImVector@PEAUImGuiDockNode@@@@QEAAAEAPEAUImGuiDockNode@@H@Z 00000001800d27b0 f i ImGuiDEBUG:imgui.obj
 0001:000d1820       ??A?$ImVector@PEAUImGuiViewport@@@@QEAAAEAPEAUImGuiViewport@@H@Z 00000001800d2820 f i ImGuiDEBUG:imgui.obj
 0001:000d1890       ??A?$ImVector@PEAUImGuiViewportP@@@@QEAAAEAPEAUImGuiViewportP@@H@Z 00000001800d2890 f i ImGuiDEBUG:imgui.obj
 0001:000d1900       ??A?$ImVector@PEAUImGuiWindow@@@@QEAAAEAPEAUImGuiWindow@@H@Z 00000001800d2900 f i ImGuiDEBUG:imgui.obj
 0001:000d1970       ??A?$ImVector@PEBD@@QEAAAEAPEBDH@Z 00000001800d2970 f i ImGuiDEBUG:imgui.obj
 0001:000d19e0       ??A?$ImVector@UImDrawCmd@@@@QEAAAEAUImDrawCmd@@H@Z 00000001800d29e0 f i ImGuiDEBUG:imgui.obj
 0001:000d1a50       ??A?$ImVector@UImGuiContextHook@@@@QEAAAEAUImGuiContextHook@@H@Z 00000001800d2a50 f i ImGuiDEBUG:imgui.obj
 0001:000d1ac0       ??A?$ImVector@UImGuiDockContextPruneNodeData@@@@QEAAAEAUImGuiDockContextPruneNodeData@@H@Z 00000001800d2ac0 f i ImGuiDEBUG:imgui.obj
 0001:000d1b30       ??A?$ImVector@UImGuiDockNodeSettings@@@@QEAAAEAUImGuiDockNodeSettings@@H@Z 00000001800d2b30 f i ImGuiDEBUG:imgui.obj
 0001:000d1ba0       ??A?$ImVector@UImGuiFocusScopeData@@@@QEAAAEAUImGuiFocusScopeData@@H@Z 00000001800d2ba0 f i ImGuiDEBUG:imgui.obj
 0001:000d1c10       ??A?$ImVector@UImGuiInputEvent@@@@QEAAAEAUImGuiInputEvent@@H@Z 00000001800d2c10 f i ImGuiDEBUG:imgui.obj
 0001:000d1c80       ??A?$ImVector@UImGuiKeyRoutingData@@@@QEAAAEAUImGuiKeyRoutingData@@H@Z 00000001800d2c80 f i ImGuiDEBUG:imgui.obj
 0001:000d1cf0       ??A?$ImVector@UImGuiListClipperData@@@@QEAAAEAUImGuiListClipperData@@H@Z 00000001800d2cf0 f i ImGuiDEBUG:imgui.obj
 0001:000d1d60       ??A?$ImVector@UImGuiListClipperRange@@@@QEAAAEAUImGuiListClipperRange@@H@Z 00000001800d2d60 f i ImGuiDEBUG:imgui.obj
 0001:000d1dd0       ??A?$ImVector@UImGuiMultiSelectState@@@@QEAAAEAUImGuiMultiSelectState@@H@Z 00000001800d2dd0 f i ImGuiDEBUG:imgui.obj
 0001:000d1e40       ??A?$ImVector@UImGuiPlatformMonitor@@@@QEAAAEAUImGuiPlatformMonitor@@H@Z 00000001800d2e40 f i ImGuiDEBUG:imgui.obj
 0001:000d1eb0       ??A?$ImVector@UImGuiPopupData@@@@QEAAAEAUImGuiPopupData@@H@Z 00000001800d2eb0 f i ImGuiDEBUG:imgui.obj
 0001:000d1f20       ??A?$ImVector@UImGuiStackLevelInfo@@@@QEAAAEAUImGuiStackLevelInfo@@H@Z 00000001800d2f20 f i ImGuiDEBUG:imgui.obj
 0001:000d1f90       ??A?$ImVector@UImGuiStoragePair@@@@QEAAAEAUImGuiStoragePair@@H@Z 00000001800d2f90 f i ImGuiDEBUG:imgui.obj
 0001:000d2000       ??A?$ImVector@UImGuiTabBar@@@@QEAAAEAUImGuiTabBar@@H@Z 00000001800d3000 f i ImGuiDEBUG:imgui.obj
 0001:000d2070       ??A?$ImVector@UImGuiTabItem@@@@QEAAAEAUImGuiTabItem@@H@Z 00000001800d3070 f i ImGuiDEBUG:imgui.obj
 0001:000d20e0       ??A?$ImVector@UImGuiTable@@@@QEAAAEAUImGuiTable@@H@Z 00000001800d30e0 f i ImGuiDEBUG:imgui.obj
 0001:000d2150       ??A?$ImVector@UImGuiTableInstanceData@@@@QEAAAEAUImGuiTableInstanceData@@H@Z 00000001800d3150 f i ImGuiDEBUG:imgui.obj
 0001:000d21c0       ??AImVec2@@QEAAAEAM_K@Z    00000001800d31c0 f i ImGuiDEBUG:imgui.obj
 0001:000d2220       ??AImVec2@@QEBAM_K@Z       00000001800d3220 f i ImGuiDEBUG:imgui.obj
 0001:000d2280       ??_GImDrawList@@QEAAPEAXI@Z 00000001800d3280 f i ImGuiDEBUG:imgui.obj
 0001:000d22d0       ??_GImFontAtlas@@QEAAPEAXI@Z 00000001800d32d0 f i ImGuiDEBUG:imgui.obj
 0001:000d2320       ??_GImGuiContext@@QEAAPEAXI@Z 00000001800d3320 f i ImGuiDEBUG:imgui.obj
 0001:000d2370       ??_GImGuiDockNode@@QEAAPEAXI@Z 00000001800d3370 f i ImGuiDEBUG:imgui.obj
 0001:000d23c0       ??_GImGuiListClipperData@@QEAAPEAXI@Z 00000001800d33c0 f i ImGuiDEBUG:imgui.obj
 0001:000d2410       ??_GImGuiMultiSelectTempData@@QEAAPEAXI@Z 00000001800d3410 f i ImGuiDEBUG:imgui.obj
 0001:000d2460       ??_GImGuiOldColumns@@QEAAPEAXI@Z 00000001800d3460 f i ImGuiDEBUG:imgui.obj
 0001:000d24b0       ??_GImGuiTabBar@@QEAAPEAXI@Z 00000001800d34b0 f i ImGuiDEBUG:imgui.obj
 0001:000d2500       ??_GImGuiTable@@QEAAPEAXI@Z 00000001800d3500 f i ImGuiDEBUG:imgui.obj
 0001:000d2550       ??_GImGuiTableTempData@@QEAAPEAXI@Z 00000001800d3550 f i ImGuiDEBUG:imgui.obj
 0001:000d25a0       ??_GImGuiViewportP@@QEAAPEAXI@Z 00000001800d35a0 f i ImGuiDEBUG:imgui.obj
 0001:000d25f0       ??_GImGuiWindow@@QEAAPEAXI@Z 00000001800d35f0 f i ImGuiDEBUG:imgui.obj
 0001:000d2640       ??_H@YAXPEAX_K1P6APEAX0@Z@Z 00000001800d3640 f i ImGuiDEBUG:imgui.obj
 0001:000d26c0       ??_I@YAXPEAX_K1P6AX0@Z@Z   00000001800d36c0 f i ImGuiDEBUG:imgui.obj
 0001:000d2760       ?Add@?$ImPool@UImGuiDockContextPruneNodeData@@@@QEAAPEAUImGuiDockContextPruneNodeData@@XZ 00000001800d3760 f i ImGuiDEBUG:imgui.obj
 0001:000d2870       ?Add@ImRect@@QEAAXAEBU1@@Z 00000001800d3870 f i ImGuiDEBUG:imgui.obj
 0001:000d2950       ?Add@ImRect@@QEAAXAEBUImVec2@@@Z 00000001800d3950 f i ImGuiDEBUG:imgui.obj
 0001:000d2a30       ?CalcFontSize@ImGuiWindow@@QEBAMXZ 00000001800d3a30 f i ImGuiDEBUG:imgui.obj
 0001:000d2ad0       ?CalcWorkRectPos@ImGuiViewportP@@QEBA?AUImVec2@@AEBU2@@Z 00000001800d3ad0 f i ImGuiDEBUG:imgui.obj
 0001:000d2b40       ?CalcWorkRectSize@ImGuiViewportP@@QEBA?AUImVec2@@AEBU2@0@Z 00000001800d3b40 f i ImGuiDEBUG:imgui.obj
 0001:000d2bf0       ?ChannelsMerge@ImDrawList@@QEAAXXZ 00000001800d3bf0 f i ImGuiDEBUG:imgui.obj
 0001:000d2c20       ?ChannelsSetCurrent@ImDrawList@@QEAAXH@Z 00000001800d3c20 f i ImGuiDEBUG:imgui.obj
 0001:000d2c60       ?ChannelsSplit@ImDrawList@@QEAAXH@Z 00000001800d3c60 f i ImGuiDEBUG:imgui.obj
 0001:000d2ca0       ?Clear@?$ImPool@UImGuiDockContextPruneNodeData@@@@QEAAXXZ 00000001800d3ca0 f i ImGuiDEBUG:imgui.obj
 0001:000d2d70       ?Clear@?$ImPool@UImGuiMultiSelectState@@@@QEAAXXZ 00000001800d3d70 f i ImGuiDEBUG:imgui.obj
 0001:000d2e40       ?Clear@?$ImPool@UImGuiTabBar@@@@QEAAXXZ 00000001800d3e40 f i ImGuiDEBUG:imgui.obj
 0001:000d2f10       ?Clear@?$ImPool@UImGuiTable@@@@QEAAXXZ 00000001800d3f10 f i ImGuiDEBUG:imgui.obj
 0001:000d2fe0       ?Clear@ImGuiKeyRoutingTable@@QEAAXXZ 00000001800d3fe0 f i ImGuiDEBUG:imgui.obj
 0001:000d3070       ?Clear@ImGuiNavItemData@@QEAAXXZ 00000001800d4070 f i ImGuiDEBUG:imgui.obj
 0001:000d3110       ?Clear@ImGuiPayload@@QEAAXXZ 00000001800d4110 f i ImGuiDEBUG:imgui.obj
 0001:000d31a0       ?Clear@ImGuiStorage@@QEAAXXZ 00000001800d41a0 f i ImGuiDEBUG:imgui.obj
 0001:000d31d0       ?ClearAllBits@?$ImBitArray@$0CJK@$0A@@@QEAAXXZ 00000001800d41d0 f i ImGuiDEBUG:imgui.obj
 0001:000d3200       ?ClearAllBits@?$ImBitArray@$0JK@$0?CAA@@@QEAAXXZ 00000001800d4200 f i ImGuiDEBUG:imgui.obj
 0001:000d3230       ?ClearFlags@ImGuiNextWindowData@@QEAAXXZ 00000001800d4230 f i ImGuiDEBUG:imgui.obj
 0001:000d3250       ?ClearFreeMemory@ImGuiInputTextDeactivatedState@@QEAAXXZ 00000001800d4250 f i ImGuiDEBUG:imgui.obj
 0001:000d3290       ?ClearFreeMemory@ImGuiInputTextState@@QEAAXXZ 00000001800d4290 f i ImGuiDEBUG:imgui.obj
 0001:000d32f0       ?ClearRequestFlags@ImGuiViewportP@@QEAAXXZ 00000001800d42f0 f i ImGuiDEBUG:imgui.obj
 0001:000d3320       ?ClipWith@ImRect@@QEAAXAEBU1@@Z 00000001800d4320 f i ImGuiDEBUG:imgui.obj
 0001:000d33a0       ?ClipWithFull@ImRect@@QEAAXAEBU1@@Z 00000001800d43a0 f i ImGuiDEBUG:imgui.obj
 0001:000d3440       ?Contains@ImRect@@QEBA_NAEBU1@@Z 00000001800d4440 f i ImGuiDEBUG:imgui.obj
 0001:000d34e0       ?Contains@ImRect@@QEBA_NAEBUImVec2@@@Z 00000001800d44e0 f i ImGuiDEBUG:imgui.obj
 0001:000d3580       ?ContainsWithPad@ImRect@@QEBA_NAEBUImVec2@@0@Z 00000001800d4580 f i ImGuiDEBUG:imgui.obj
 0001:000d3660       ?ConvertSingleModFlagToKey@ImGui@@YA?AW4ImGuiKey@@W42@@Z 00000001800d4660 f i ImGuiDEBUG:imgui.obj
 0001:000d36c0       ?DockNodeGetDepth@ImGui@@YAHPEBUImGuiDockNode@@@Z 00000001800d46c0 f i ImGuiDEBUG:imgui.obj
 0001:000d3710       ?DockNodeGetRootNode@ImGui@@YAPEAUImGuiDockNode@@PEAU2@@Z 00000001800d4710 f i ImGuiDEBUG:imgui.obj
 0001:000d3740       ?DockNodeIsInHierarchyOf@ImGui@@YA_NPEAUImGuiDockNode@@0@Z 00000001800d4740 f i ImGuiDEBUG:imgui.obj
 0001:000d3790       ?Expand@ImRect@@QEAAXAEBUImVec2@@@Z 00000001800d4790 f i ImGuiDEBUG:imgui.obj
 0001:000d3830       ?Expand@ImRect@@QEAAXM@Z   00000001800d4830 f i ImGuiDEBUG:imgui.obj
 0001:000d38c0       ?FromIndices@ImGuiListClipperRange@@SA?AU1@HH@Z 00000001800d48c0 f i ImGuiDEBUG:imgui.obj
 0001:000d3950       ?FromPositions@ImGuiListClipperRange@@SA?AU1@MMHH@Z 00000001800d4950 f i ImGuiDEBUG:imgui.obj
 0001:000d3a00       ?GetAliveCount@?$ImPool@UImGuiMultiSelectState@@@@QEBAHXZ 00000001800d4a00 f i ImGuiDEBUG:imgui.obj
 0001:000d3a20       ?GetAliveCount@?$ImPool@UImGuiTabBar@@@@QEBAHXZ 00000001800d4a20 f i ImGuiDEBUG:imgui.obj
 0001:000d3a40       ?GetAliveCount@?$ImPool@UImGuiTable@@@@QEBAHXZ 00000001800d4a40 f i ImGuiDEBUG:imgui.obj
 0001:000d3a60       ?GetBL@ImRect@@QEBA?AUImVec2@@XZ 00000001800d4a60 f i ImGuiDEBUG:imgui.obj
 0001:000d3ab0       ?GetBR@ImRect@@QEBA?AUImVec2@@XZ 00000001800d4ab0 f i ImGuiDEBUG:imgui.obj
 0001:000d3ae0       ?GetByIndex@?$ImPool@UImGuiMultiSelectState@@@@QEAAPEAUImGuiMultiSelectState@@H@Z 00000001800d4ae0 f i ImGuiDEBUG:imgui.obj
 0001:000d3b10       ?GetByIndex@?$ImPool@UImGuiTabBar@@@@QEAAPEAUImGuiTabBar@@H@Z 00000001800d4b10 f i ImGuiDEBUG:imgui.obj
 0001:000d3b40       ?GetByIndex@?$ImPool@UImGuiTable@@@@QEAAPEAUImGuiTable@@H@Z 00000001800d4b40 f i ImGuiDEBUG:imgui.obj
 0001:000d3b70       ?GetByKey@?$ImPool@UImGuiDockContextPruneNodeData@@@@QEAAPEAUImGuiDockContextPruneNodeData@@I@Z 00000001800d4b70 f i ImGuiDEBUG:imgui.obj
 0001:000d3bf0       ?GetCenter@ImGuiViewport@@QEBA?AUImVec2@@XZ 00000001800d4bf0 f i ImGuiDEBUG:imgui.obj
 0001:000d3c80       ?GetCenter@ImRect@@QEBA?AUImVec2@@XZ 00000001800d4c80 f i ImGuiDEBUG:imgui.obj
 0001:000d3d00       ?GetCurrentWindow@ImGui@@YAPEAUImGuiWindow@@XZ 00000001800d4d00 f i ImGuiDEBUG:imgui.obj
 0001:000d3d40       ?GetCurrentWindowRead@ImGui@@YAPEAUImGuiWindow@@XZ 00000001800d4d40 f i ImGuiDEBUG:imgui.obj
 0001:000d3d70       ?GetDefaultFont@ImGui@@YAPEAUImFont@@XZ 00000001800d4d70 f i ImGuiDEBUG:imgui.obj
 0001:000d3de0       ?GetForegroundDrawList@ImGui@@YAPEAUImDrawList@@PEAUImGuiWindow@@@Z 00000001800d4de0 f i ImGuiDEBUG:imgui.obj
 0001:000d3e10       ?GetHeight@ImRect@@QEBAMXZ 00000001800d4e10 f i ImGuiDEBUG:imgui.obj
 0001:000d3e30       ?GetKeyData@ImGui@@YAPEAUImGuiKeyData@@W4ImGuiKey@@@Z 00000001800d4e30 f i ImGuiDEBUG:imgui.obj
 0001:000d3e60       ?GetKeyOwnerData@ImGui@@YAPEAUImGuiKeyOwnerData@@PEAUImGuiContext@@W4ImGuiKey@@@Z 00000001800d4e60 f i ImGuiDEBUG:imgui.obj
 0001:000d3ef0       ?GetMainRect@ImGuiViewportP@@QEBA?AUImRect@@XZ 00000001800d4ef0 f i ImGuiDEBUG:imgui.obj
 0001:000d3f70       ?GetMapSize@?$ImPool@UImGuiMultiSelectState@@@@QEBAHXZ 00000001800d4f70 f i ImGuiDEBUG:imgui.obj
 0001:000d3f90       ?GetMapSize@?$ImPool@UImGuiTabBar@@@@QEBAHXZ 00000001800d4f90 f i ImGuiDEBUG:imgui.obj
 0001:000d3fb0       ?GetMapSize@?$ImPool@UImGuiTable@@@@QEBAHXZ 00000001800d4fb0 f i ImGuiDEBUG:imgui.obj
 0001:000d3fd0       ?GetName@ImGuiWindowSettings@@QEAAPEADXZ 00000001800d4fd0 f i ImGuiDEBUG:imgui.obj
 0001:000d3ff0       ?GetOrAddByKey@?$ImPool@UImGuiDockContextPruneNodeData@@@@QEAAPEAUImGuiDockContextPruneNodeData@@I@Z 00000001800d4ff0 f i ImGuiDEBUG:imgui.obj
 0001:000d4080       ?GetSize@ImRect@@QEBA?AUImVec2@@XZ 00000001800d5080 f i ImGuiDEBUG:imgui.obj
 0001:000d40e0       ?GetVarPtr@ImGuiDataVarInfo@@QEBAPEAXPEAX@Z 00000001800d50e0 f i ImGuiDEBUG:imgui.obj
 0001:000d4110       ?GetWidth@ImRect@@QEBAMXZ  00000001800d5110 f i ImGuiDEBUG:imgui.obj
 0001:000d4130       ?GetWorkRect@ImGuiViewportP@@QEBA?AUImRect@@XZ 00000001800d5130 f i ImGuiDEBUG:imgui.obj
 0001:000d41b0       ?ImBitArraySetBit@@YAXPEAIH@Z 00000001800d51b0 f i ImGuiDEBUG:imgui.obj
 0001:000d4220       ?ImTriangleArea@@YAMAEBUImVec2@@00@Z 00000001800d5220 f i ImGuiDEBUG:imgui.obj
 0001:000d42e0       ?IsActiveIdUsingNavDir@ImGui@@YA_NW4ImGuiDir@@@Z 00000001800d52e0 f i ImGuiDEBUG:imgui.obj
 0001:000d4350       ?IsAliasKey@ImGui@@YA_NW4ImGuiKey@@@Z 00000001800d5350 f i ImGuiDEBUG:imgui.obj
 0001:000d43a0       ?IsBuilt@ImFontAtlas@@QEBA_NXZ 00000001800d53a0 f i ImGuiDEBUG:imgui.obj
 0001:000d43f0       ?IsCentralNode@ImGuiDockNode@@QEBA_NXZ 00000001800d53f0 f i ImGuiDEBUG:imgui.obj
 0001:000d4430       ?IsDataType@ImGuiPayload@@QEBA_NPEBD@Z 00000001800d5430 f i ImGuiDEBUG:imgui.obj
 0001:000d44b0       ?IsDelivery@ImGuiPayload@@QEBA_NXZ 00000001800d54b0 f i ImGuiDEBUG:imgui.obj
 0001:000d44d0       ?IsDockSpace@ImGuiDockNode@@QEBA_NXZ 00000001800d54d0 f i ImGuiDEBUG:imgui.obj
 0001:000d4510       ?IsEmpty@ImGuiDockNode@@QEBA_NXZ 00000001800d5510 f i ImGuiDEBUG:imgui.obj
 0001:000d4570       ?IsFloatingNode@ImGuiDockNode@@QEBA_NXZ 00000001800d5570 f i ImGuiDEBUG:imgui.obj
 0001:000d45c0       ?IsGamepadKey@ImGui@@YA_NW4ImGuiKey@@@Z 00000001800d55c0 f i ImGuiDEBUG:imgui.obj
 0001:000d4610       ?IsHiddenTabBar@ImGuiDockNode@@QEBA_NXZ 00000001800d5610 f i ImGuiDEBUG:imgui.obj
 0001:000d4650       ?IsInverted@ImRect@@QEBA_NXZ 00000001800d5650 f i ImGuiDEBUG:imgui.obj
 0001:000d46b0       ?IsKeyboardKey@ImGui@@YA_NW4ImGuiKey@@@Z 00000001800d56b0 f i ImGuiDEBUG:imgui.obj
 0001:000d4700       ?IsLRModKey@ImGui@@YA_NW4ImGuiKey@@@Z 00000001800d5700 f i ImGuiDEBUG:imgui.obj
 0001:000d4750       ?IsLeafNode@ImGuiDockNode@@QEBA_NXZ 00000001800d5750 f i ImGuiDEBUG:imgui.obj
 0001:000d47a0       ?IsLegacyKey@ImGui@@YA_NW4ImGuiKey@@@Z 00000001800d57a0 f i ImGuiDEBUG:imgui.obj
 0001:000d47e0       ?IsLoaded@ImFont@@QEBA_NXZ 00000001800d57e0 f i ImGuiDEBUG:imgui.obj
 0001:000d4820       ?IsMouseKey@ImGui@@YA_NW4ImGuiKey@@@Z 00000001800d5820 f i ImGuiDEBUG:imgui.obj
 0001:000d4870       ?IsNamedKey@ImGui@@YA_NW4ImGuiKey@@@Z 00000001800d5870 f i ImGuiDEBUG:imgui.obj
 0001:000d48c0       ?IsNamedKeyOrMod@ImGui@@YA_NW4ImGuiKey@@@Z 00000001800d58c0 f i ImGuiDEBUG:imgui.obj
 0001:000d4940       ?IsNoTabBar@ImGuiDockNode@@QEBA_NXZ 00000001800d5940 f i ImGuiDEBUG:imgui.obj
 0001:000d4980       ?IsPreview@ImGuiPayload@@QEBA_NXZ 00000001800d5980 f i ImGuiDEBUG:imgui.obj
 0001:000d49a0       ?IsRootNode@ImGuiDockNode@@QEBA_NXZ 00000001800d59a0 f i ImGuiDEBUG:imgui.obj
 0001:000d49e0       ?IsSplitNode@ImGuiDockNode@@QEBA_NXZ 00000001800d59e0 f i ImGuiDEBUG:imgui.obj
 0001:000d4a30       ?LocalizeGetMsg@ImGui@@YAPEBDW4ImGuiLocKey@@@Z 00000001800d5a30 f i ImGuiDEBUG:imgui.obj
 0001:000d4aa0       ?MenuBarRect@ImGuiWindow@@QEBA?AUImRect@@XZ 00000001800d5aa0 f i ImGuiDEBUG:imgui.obj
 0001:000d4b40       ?MouseButtonToKey@ImGui@@YA?AW4ImGuiKey@@H@Z 00000001800d5b40 f i ImGuiDEBUG:imgui.obj
 0001:000d4b90       ?Overlaps@ImRect@@QEBA_NAEBU1@@Z 00000001800d5b90 f i ImGuiDEBUG:imgui.obj
 0001:000d4c30       ?PathFillConvex@ImDrawList@@QEAAXI@Z 00000001800d5c30 f i ImGuiDEBUG:imgui.obj
 0001:000d4c80       ?PathLineTo@ImDrawList@@QEAAXAEBUImVec2@@@Z 00000001800d5c80 f i ImGuiDEBUG:imgui.obj
 0001:000d4cc0       ?PathStroke@ImDrawList@@QEAAXIHM@Z 00000001800d5cc0 f i ImGuiDEBUG:imgui.obj
 0001:000d4d40       ?Rect@ImGuiDockNode@@QEBA?AUImRect@@XZ 00000001800d5d40 f i ImGuiDEBUG:imgui.obj
 0001:000d4dc0       ?Rect@ImGuiWindow@@QEBA?AUImRect@@XZ 00000001800d5dc0 f i ImGuiDEBUG:imgui.obj
 0001:000d4e40       ?Reserve@?$ImPool@UImGuiDockContextPruneNodeData@@@@QEAAXH@Z 00000001800d5e40 f i ImGuiDEBUG:imgui.obj
 0001:000d4e90       ?Reset@ImGuiListClipperData@@QEAAXPEAUImGuiListClipper@@@Z 00000001800d5e90 f i ImGuiDEBUG:imgui.obj
 0001:000d4ef0       ?SetBit@?$ImBitArray@$0CJK@$0A@@@QEAAXH@Z 00000001800d5ef0 f i ImGuiDEBUG:imgui.obj
 0001:000d4f60       ?SetBit@?$ImBitArray@$0JK@$0?CAA@@@QEAAXH@Z 00000001800d5f60 f i ImGuiDEBUG:imgui.obj
 0001:000d4fe0       ?SetLocalFlags@ImGuiDockNode@@QEAAXH@Z 00000001800d5fe0 f i ImGuiDEBUG:imgui.obj
 0001:000d5020       ?TabBarGetTabOrder@ImGui@@YAHPEAUImGuiTabBar@@PEAUImGuiTabItem@@@Z 00000001800d6020 f i ImGuiDEBUG:imgui.obj
 0001:000d5050       ?TableGetInstanceData@ImGui@@YAPEAUImGuiTableInstanceData@@PEAUImGuiTable@@H@Z 00000001800d6050 f i ImGuiDEBUG:imgui.obj
 0001:000d50a0       ?TestBit@?$ImBitArray@$0CJK@$0A@@@QEBA_NH@Z 00000001800d60a0 f i ImGuiDEBUG:imgui.obj
 0001:000d5150       ?TestBit@?$ImBitArray@$0JK@$0?CAA@@@QEBA_NH@Z 00000001800d6150 f i ImGuiDEBUG:imgui.obj
 0001:000d5200       ?TitleBarRect@ImGuiWindow@@QEBA?AUImRect@@XZ 00000001800d6200 f i ImGuiDEBUG:imgui.obj
 0001:000d5290       ?ToVec4@ImRect@@QEBA?AUImVec4@@XZ 00000001800d6290 f i ImGuiDEBUG:imgui.obj
 0001:000d5300       ?Translate@ImRect@@QEAAXAEBUImVec2@@@Z 00000001800d6300 f i ImGuiDEBUG:imgui.obj
 0001:000d53a0       ?TranslateX@ImRect@@QEAAXM@Z 00000001800d63a0 f i ImGuiDEBUG:imgui.obj
 0001:000d53f0       ?TranslateY@ImRect@@QEAAXM@Z 00000001800d63f0 f i ImGuiDEBUG:imgui.obj
 0001:000d5440       ?TryGetMapData@?$ImPool@UImGuiMultiSelectState@@@@QEAAPEAUImGuiMultiSelectState@@H@Z 00000001800d6440 f i ImGuiDEBUG:imgui.obj
 0001:000d54a0       ?TryGetMapData@?$ImPool@UImGuiTabBar@@@@QEAAPEAUImGuiTabBar@@H@Z 00000001800d64a0 f i ImGuiDEBUG:imgui.obj
 0001:000d5500       ?TryGetMapData@?$ImPool@UImGuiTable@@@@QEAAPEAUImGuiTable@@H@Z 00000001800d6500 f i ImGuiDEBUG:imgui.obj
 0001:000d5560       ?UpdateMergedFlags@ImGuiDockNode@@QEAAXXZ 00000001800d6560 f i ImGuiDEBUG:imgui.obj
 0001:000d55a0       ?UpdateWorkRect@ImGuiViewportP@@QEAAXXZ 00000001800d65a0 f i ImGuiDEBUG:imgui.obj
 0001:000d5630       ?WindowRectAbsToRel@ImGui@@YA?AUImRect@@PEAUImGuiWindow@@AEBU2@@Z 00000001800d6630 f i ImGuiDEBUG:imgui.obj
 0001:000d56f0       ?WindowRectRelToAbs@ImGui@@YA?AUImRect@@PEAUImGuiWindow@@AEBU2@@Z 00000001800d66f0 f i ImGuiDEBUG:imgui.obj
 0001:000d57b0       ?_grow_capacity@?$ImVector@D@@QEBAHH@Z 00000001800d67b0 f i ImGuiDEBUG:imgui.obj
 0001:000d5830       ?_grow_capacity@?$ImVector@E@@QEBAHH@Z 00000001800d6830 f i ImGuiDEBUG:imgui.obj
 0001:000d58b0       ?_grow_capacity@?$ImVector@G@@QEBAHH@Z 00000001800d68b0 f i ImGuiDEBUG:imgui.obj
 0001:000d5930       ?_grow_capacity@?$ImVector@H@@QEBAHH@Z 00000001800d6930 f i ImGuiDEBUG:imgui.obj
 0001:000d59b0       ?_grow_capacity@?$ImVector@I@@QEBAHH@Z 00000001800d69b0 f i ImGuiDEBUG:imgui.obj
 0001:000d5a30       ?_grow_capacity@?$ImVector@M@@QEBAHH@Z 00000001800d6a30 f i ImGuiDEBUG:imgui.obj
 0001:000d5ab0       ?_grow_capacity@?$ImVector@PEAUImDrawList@@@@QEBAHH@Z 00000001800d6ab0 f i ImGuiDEBUG:imgui.obj
 0001:000d5b30       ?_grow_capacity@?$ImVector@PEAUImFont@@@@QEBAHH@Z 00000001800d6b30 f i ImGuiDEBUG:imgui.obj
 0001:000d5bb0       ?_grow_capacity@?$ImVector@PEAUImGuiDockNode@@@@QEBAHH@Z 00000001800d6bb0 f i ImGuiDEBUG:imgui.obj
 0001:000d5c30       ?_grow_capacity@?$ImVector@PEAUImGuiViewport@@@@QEBAHH@Z 00000001800d6c30 f i ImGuiDEBUG:imgui.obj
 0001:000d5cb0       ?_grow_capacity@?$ImVector@PEAUImGuiViewportP@@@@QEBAHH@Z 00000001800d6cb0 f i ImGuiDEBUG:imgui.obj
 0001:000d5d30       ?_grow_capacity@?$ImVector@PEAUImGuiWindow@@@@QEBAHH@Z 00000001800d6d30 f i ImGuiDEBUG:imgui.obj
 0001:000d5db0       ?_grow_capacity@?$ImVector@UImDrawCmd@@@@QEBAHH@Z 00000001800d6db0 f i ImGuiDEBUG:imgui.obj
 0001:000d5e30       ?_grow_capacity@?$ImVector@UImGuiColorMod@@@@QEBAHH@Z 00000001800d6e30 f i ImGuiDEBUG:imgui.obj
 0001:000d5eb0       ?_grow_capacity@?$ImVector@UImGuiContextHook@@@@QEBAHH@Z 00000001800d6eb0 f i ImGuiDEBUG:imgui.obj
 0001:000d5f30       ?_grow_capacity@?$ImVector@UImGuiDockContextPruneNodeData@@@@QEBAHH@Z 00000001800d6f30 f i ImGuiDEBUG:imgui.obj
 0001:000d5fb0       ?_grow_capacity@?$ImVector@UImGuiDockNodeSettings@@@@QEBAHH@Z 00000001800d6fb0 f i ImGuiDEBUG:imgui.obj
 0001:000d6030       ?_grow_capacity@?$ImVector@UImGuiDockRequest@@@@QEBAHH@Z 00000001800d7030 f i ImGuiDEBUG:imgui.obj
 0001:000d60b0       ?_grow_capacity@?$ImVector@UImGuiFocusScopeData@@@@QEBAHH@Z 00000001800d70b0 f i ImGuiDEBUG:imgui.obj
 0001:000d6130       ?_grow_capacity@?$ImVector@UImGuiGroupData@@@@QEBAHH@Z 00000001800d7130 f i ImGuiDEBUG:imgui.obj
 0001:000d61b0       ?_grow_capacity@?$ImVector@UImGuiInputEvent@@@@QEBAHH@Z 00000001800d71b0 f i ImGuiDEBUG:imgui.obj
 0001:000d6230       ?_grow_capacity@?$ImVector@UImGuiKeyRoutingData@@@@QEBAHH@Z 00000001800d7230 f i ImGuiDEBUG:imgui.obj
 0001:000d62b0       ?_grow_capacity@?$ImVector@UImGuiListClipperData@@@@QEBAHH@Z 00000001800d72b0 f i ImGuiDEBUG:imgui.obj
 0001:000d6330       ?_grow_capacity@?$ImVector@UImGuiListClipperRange@@@@QEBAHH@Z 00000001800d7330 f i ImGuiDEBUG:imgui.obj
 0001:000d63b0       ?_grow_capacity@?$ImVector@UImGuiPopupData@@@@QEBAHH@Z 00000001800d73b0 f i ImGuiDEBUG:imgui.obj
 0001:000d6430       ?_grow_capacity@?$ImVector@UImGuiSettingsHandler@@@@QEBAHH@Z 00000001800d7430 f i ImGuiDEBUG:imgui.obj
 0001:000d64b0       ?_grow_capacity@?$ImVector@UImGuiStackLevelInfo@@@@QEBAHH@Z 00000001800d74b0 f i ImGuiDEBUG:imgui.obj
 0001:000d6530       ?_grow_capacity@?$ImVector@UImGuiStoragePair@@@@QEBAHH@Z 00000001800d7530 f i ImGuiDEBUG:imgui.obj
 0001:000d65b0       ?_grow_capacity@?$ImVector@UImGuiStyleMod@@@@QEBAHH@Z 00000001800d75b0 f i ImGuiDEBUG:imgui.obj
 0001:000d6630       ?_grow_capacity@?$ImVector@UImGuiTextRange@ImGuiTextFilter@@@@QEBAHH@Z 00000001800d7630 f i ImGuiDEBUG:imgui.obj
 0001:000d66b0       ?_grow_capacity@?$ImVector@UImGuiWindowStackData@@@@QEBAHH@Z 00000001800d76b0 f i ImGuiDEBUG:imgui.obj
 0001:000d6730       ?_grow_capacity@?$ImVector@UImVec2@@@@QEBAHH@Z 00000001800d7730 f i ImGuiDEBUG:imgui.obj
 0001:000d67b0       ?_grow_capacity@?$ImVector@_W@@QEBAHH@Z 00000001800d77b0 f i ImGuiDEBUG:imgui.obj
 0001:000d6830       ?alloc_chunk@?$ImChunkStream@UImGuiWindowSettings@@@@QEAAPEAUImGuiWindowSettings@@_K@Z 00000001800d7830 f i ImGuiDEBUG:imgui.obj
 0001:000d68f0       ?back@?$ImVector@H@@QEAAAEAHXZ 00000001800d78f0 f i ImGuiDEBUG:imgui.obj
 0001:000d6950       ?back@?$ImVector@I@@QEAAAEAIXZ 00000001800d7950 f i ImGuiDEBUG:imgui.obj
 0001:000d69b0       ?back@?$ImVector@M@@QEAAAEAMXZ 00000001800d79b0 f i ImGuiDEBUG:imgui.obj
 0001:000d6a10       ?back@?$ImVector@PEAUImFont@@@@QEAAAEAPEAUImFont@@XZ 00000001800d7a10 f i ImGuiDEBUG:imgui.obj
 0001:000d6a70       ?back@?$ImVector@PEAUImGuiWindow@@@@QEAAAEAPEAUImGuiWindow@@XZ 00000001800d7a70 f i ImGuiDEBUG:imgui.obj
 0001:000d6ad0       ?back@?$ImVector@UImDrawCmd@@@@QEAAAEAUImDrawCmd@@XZ 00000001800d7ad0 f i ImGuiDEBUG:imgui.obj
 0001:000d6b30       ?back@?$ImVector@UImDrawCmd@@@@QEBAAEBUImDrawCmd@@XZ 00000001800d7b30 f i ImGuiDEBUG:imgui.obj
 0001:000d6b90       ?back@?$ImVector@UImGuiColorMod@@@@QEAAAEAUImGuiColorMod@@XZ 00000001800d7b90 f i ImGuiDEBUG:imgui.obj
 0001:000d6bf0       ?back@?$ImVector@UImGuiContextHook@@@@QEAAAEAUImGuiContextHook@@XZ 00000001800d7bf0 f i ImGuiDEBUG:imgui.obj
 0001:000d6c50       ?back@?$ImVector@UImGuiFocusScopeData@@@@QEAAAEAUImGuiFocusScopeData@@XZ 00000001800d7c50 f i ImGuiDEBUG:imgui.obj
 0001:000d6cb0       ?back@?$ImVector@UImGuiGroupData@@@@QEAAAEAUImGuiGroupData@@XZ 00000001800d7cb0 f i ImGuiDEBUG:imgui.obj
 0001:000d6d10       ?back@?$ImVector@UImGuiPopupData@@@@QEAAAEAUImGuiPopupData@@XZ 00000001800d7d10 f i ImGuiDEBUG:imgui.obj
 0001:000d6d70       ?back@?$ImVector@UImGuiStyleMod@@@@QEAAAEAUImGuiStyleMod@@XZ 00000001800d7d70 f i ImGuiDEBUG:imgui.obj
 0001:000d6dd0       ?back@?$ImVector@UImGuiTabItem@@@@QEAAAEAUImGuiTabItem@@XZ 00000001800d7dd0 f i ImGuiDEBUG:imgui.obj
 0001:000d6e30       ?back@?$ImVector@UImGuiWindowStackData@@@@QEAAAEAUImGuiWindowStackData@@XZ 00000001800d7e30 f i ImGuiDEBUG:imgui.obj
 0001:000d6e90       ?back@?$ImVector@UImVec4@@@@QEAAAEAUImVec4@@XZ 00000001800d7e90 f i ImGuiDEBUG:imgui.obj
 0001:000d6ef0       ?begin@?$ImChunkStream@UImGuiTableSettings@@@@QEAAPEAUImGuiTableSettings@@XZ 00000001800d7ef0 f i ImGuiDEBUG:imgui.obj
 0001:000d6f30       ?begin@?$ImChunkStream@UImGuiWindowSettings@@@@QEAAPEAUImGuiWindowSettings@@XZ 00000001800d7f30 f i ImGuiDEBUG:imgui.obj
 0001:000d6f70       ?begin@?$ImVector@PEAUImDrawList@@@@QEAAPEAPEAUImDrawList@@XZ 00000001800d7f70 f i ImGuiDEBUG:imgui.obj
 0001:000d6f90       ?begin@?$ImVector@PEAUImFont@@@@QEAAPEAPEAUImFont@@XZ 00000001800d7f90 f i ImGuiDEBUG:imgui.obj
 0001:000d6fb0       ?begin@?$ImVector@PEAUImGuiViewportP@@@@QEAAPEAPEAUImGuiViewportP@@XZ 00000001800d7fb0 f i ImGuiDEBUG:imgui.obj
 0001:000d6fd0       ?begin@?$ImVector@PEAUImGuiWindow@@@@QEAAPEAPEAUImGuiWindow@@XZ 00000001800d7fd0 f i ImGuiDEBUG:imgui.obj
 0001:000d6ff0       ?begin@?$ImVector@UImDrawCmd@@@@QEBAPEBUImDrawCmd@@XZ 00000001800d7ff0 f i ImGuiDEBUG:imgui.obj
 0001:000d7010       ?begin@?$ImVector@UImGuiContextHook@@@@QEAAPEAUImGuiContextHook@@XZ 00000001800d8010 f i ImGuiDEBUG:imgui.obj
 0001:000d7030       ?begin@?$ImVector@UImGuiDockRequest@@@@QEAAPEAUImGuiDockRequest@@XZ 00000001800d8030 f i ImGuiDEBUG:imgui.obj
 0001:000d7050       ?begin@?$ImVector@UImGuiListClipperRange@@@@QEAAPEAUImGuiListClipperRange@@XZ 00000001800d8050 f i ImGuiDEBUG:imgui.obj
 0001:000d7070       ?begin@?$ImVector@UImGuiOldColumnData@@@@QEAAPEAUImGuiOldColumnData@@XZ 00000001800d8070 f i ImGuiDEBUG:imgui.obj
 0001:000d7090       ?begin@?$ImVector@UImGuiOldColumns@@@@QEAAPEAUImGuiOldColumns@@XZ 00000001800d8090 f i ImGuiDEBUG:imgui.obj
 0001:000d70b0       ?begin@?$ImVector@UImGuiPlatformMonitor@@@@QEAAPEAUImGuiPlatformMonitor@@XZ 00000001800d80b0 f i ImGuiDEBUG:imgui.obj
 0001:000d70d0       ?begin@?$ImVector@UImGuiPopupData@@@@QEAAPEAUImGuiPopupData@@XZ 00000001800d80d0 f i ImGuiDEBUG:imgui.obj
 0001:000d70f0       ?begin@?$ImVector@UImGuiSettingsHandler@@@@QEAAPEAUImGuiSettingsHandler@@XZ 00000001800d80f0 f i ImGuiDEBUG:imgui.obj
 0001:000d7110       ?begin@?$ImVector@UImGuiStoragePair@@@@QEAAPEAUImGuiStoragePair@@XZ 00000001800d8110 f i ImGuiDEBUG:imgui.obj
 0001:000d7130       ?begin@?$ImVector@UImGuiTableTempData@@@@QEAAPEAUImGuiTableTempData@@XZ 00000001800d8130 f i ImGuiDEBUG:imgui.obj
 0001:000d7150       ?begin@?$ImVector@UImGuiTextRange@ImGuiTextFilter@@@@QEAAPEAUImGuiTextRange@ImGuiTextFilter@@XZ 00000001800d8150 f i ImGuiDEBUG:imgui.obj
 0001:000d7170       ?begin@?$ImVector@UImGuiTextRange@ImGuiTextFilter@@@@QEBAPEBUImGuiTextRange@ImGuiTextFilter@@XZ 00000001800d8170 f i ImGuiDEBUG:imgui.obj
 0001:000d7190       ?begin@ImGuiTextBuffer@@QEBAPEBDXZ 00000001800d8190 f i ImGuiDEBUG:imgui.obj
 0001:000d71e0       ?c_str@ImGuiTextBuffer@@QEBAPEBDXZ 00000001800d81e0 f i ImGuiDEBUG:imgui.obj
 0001:000d7230       ?chunk_size@?$ImChunkStream@UImGuiTableSettings@@@@QEAAHPEBUImGuiTableSettings@@@Z 00000001800d8230 f i ImGuiDEBUG:imgui.obj
 0001:000d7260       ?chunk_size@?$ImChunkStream@UImGuiWindowSettings@@@@QEAAHPEBUImGuiWindowSettings@@@Z 00000001800d8260 f i ImGuiDEBUG:imgui.obj
 0001:000d7290       ?clear@?$ImChunkStream@UImGuiWindowSettings@@@@QEAAXXZ 00000001800d8290 f i ImGuiDEBUG:imgui.obj
 0001:000d72c0       ?clear@?$ImVector@D@@QEAAXXZ 00000001800d82c0 f i ImGuiDEBUG:imgui.obj
 0001:000d7320       ?clear@?$ImVector@E@@QEAAXXZ 00000001800d8320 f i ImGuiDEBUG:imgui.obj
 0001:000d7380       ?clear@?$ImVector@G@@QEAAXXZ 00000001800d8380 f i ImGuiDEBUG:imgui.obj
 0001:000d73e0       ?clear@?$ImVector@H@@QEAAXXZ 00000001800d83e0 f i ImGuiDEBUG:imgui.obj
 0001:000d7440       ?clear@?$ImVector@I@@QEAAXXZ 00000001800d8440 f i ImGuiDEBUG:imgui.obj
 0001:000d74a0       ?clear@?$ImVector@M@@QEAAXXZ 00000001800d84a0 f i ImGuiDEBUG:imgui.obj
 0001:000d7500       ?clear@?$ImVector@PEAUImFont@@@@QEAAXXZ 00000001800d8500 f i ImGuiDEBUG:imgui.obj
 0001:000d7560       ?clear@?$ImVector@PEAUImGuiViewportP@@@@QEAAXXZ 00000001800d8560 f i ImGuiDEBUG:imgui.obj
 0001:000d75c0       ?clear@?$ImVector@PEAUImGuiWindow@@@@QEAAXXZ 00000001800d85c0 f i ImGuiDEBUG:imgui.obj
 0001:000d7620       ?clear@?$ImVector@UImDrawChannel@@@@QEAAXXZ 00000001800d8620 f i ImGuiDEBUG:imgui.obj
 0001:000d7680       ?clear@?$ImVector@UImGuiColorMod@@@@QEAAXXZ 00000001800d8680 f i ImGuiDEBUG:imgui.obj
 0001:000d76e0       ?clear@?$ImVector@UImGuiDockContextPruneNodeData@@@@QEAAXXZ 00000001800d86e0 f i ImGuiDEBUG:imgui.obj
 0001:000d7740       ?clear@?$ImVector@UImGuiDockNodeSettings@@@@QEAAXXZ 00000001800d8740 f i ImGuiDEBUG:imgui.obj
 0001:000d77a0       ?clear@?$ImVector@UImGuiDockRequest@@@@QEAAXXZ 00000001800d87a0 f i ImGuiDEBUG:imgui.obj
 0001:000d7800       ?clear@?$ImVector@UImGuiGroupData@@@@QEAAXXZ 00000001800d8800 f i ImGuiDEBUG:imgui.obj
 0001:000d7860       ?clear@?$ImVector@UImGuiInputEvent@@@@QEAAXXZ 00000001800d8860 f i ImGuiDEBUG:imgui.obj
 0001:000d78c0       ?clear@?$ImVector@UImGuiKeyRoutingData@@@@QEAAXXZ 00000001800d88c0 f i ImGuiDEBUG:imgui.obj
 0001:000d7920       ?clear@?$ImVector@UImGuiListClipperData@@@@QEAAXXZ 00000001800d8920 f i ImGuiDEBUG:imgui.obj
 0001:000d7980       ?clear@?$ImVector@UImGuiMultiSelectState@@@@QEAAXXZ 00000001800d8980 f i ImGuiDEBUG:imgui.obj
 0001:000d79e0       ?clear@?$ImVector@UImGuiMultiSelectTempData@@@@QEAAXXZ 00000001800d89e0 f i ImGuiDEBUG:imgui.obj
 0001:000d7a40       ?clear@?$ImVector@UImGuiOldColumns@@@@QEAAXXZ 00000001800d8a40 f i ImGuiDEBUG:imgui.obj
 0001:000d7aa0       ?clear@?$ImVector@UImGuiPopupData@@@@QEAAXXZ 00000001800d8aa0 f i ImGuiDEBUG:imgui.obj
 0001:000d7b00       ?clear@?$ImVector@UImGuiPtrOrIndex@@@@QEAAXXZ 00000001800d8b00 f i ImGuiDEBUG:imgui.obj
 0001:000d7b60       ?clear@?$ImVector@UImGuiSettingsHandler@@@@QEAAXXZ 00000001800d8b60 f i ImGuiDEBUG:imgui.obj
 0001:000d7bc0       ?clear@?$ImVector@UImGuiShrinkWidthItem@@@@QEAAXXZ 00000001800d8bc0 f i ImGuiDEBUG:imgui.obj
 0001:000d7c20       ?clear@?$ImVector@UImGuiStoragePair@@@@QEAAXXZ 00000001800d8c20 f i ImGuiDEBUG:imgui.obj
 0001:000d7c80       ?clear@?$ImVector@UImGuiStyleMod@@@@QEAAXXZ 00000001800d8c80 f i ImGuiDEBUG:imgui.obj
 0001:000d7ce0       ?clear@?$ImVector@UImGuiTabBar@@@@QEAAXXZ 00000001800d8ce0 f i ImGuiDEBUG:imgui.obj
 0001:000d7d40       ?clear@?$ImVector@UImGuiTable@@@@QEAAXXZ 00000001800d8d40 f i ImGuiDEBUG:imgui.obj
 0001:000d7da0       ?clear@?$ImVector@UImGuiTableTempData@@@@QEAAXXZ 00000001800d8da0 f i ImGuiDEBUG:imgui.obj
 0001:000d7e00       ?clear@?$ImVector@UImGuiTreeNodeStackData@@@@QEAAXXZ 00000001800d8e00 f i ImGuiDEBUG:imgui.obj
 0001:000d7e60       ?clear@?$ImVector@UImGuiWindowStackData@@@@QEAAXXZ 00000001800d8e60 f i ImGuiDEBUG:imgui.obj
 0001:000d7ec0       ?clear@?$ImVector@UImVec2@@@@QEAAXXZ 00000001800d8ec0 f i ImGuiDEBUG:imgui.obj
 0001:000d7f20       ?clear@ImGuiTextBuffer@@QEAAXXZ 00000001800d8f20 f i ImGuiDEBUG:imgui.obj
 0001:000d7f50       ?clear@ImGuiTextIndex@@QEAAXXZ 00000001800d8f50 f i ImGuiDEBUG:imgui.obj
 0001:000d7f80       ?clear_delete@?$ImVector@PEAUImGuiViewportP@@@@QEAAXXZ 00000001800d8f80 f i ImGuiDEBUG:imgui.obj
 0001:000d7ff0       ?clear_delete@?$ImVector@PEAUImGuiWindow@@@@QEAAXXZ 00000001800d8ff0 f i ImGuiDEBUG:imgui.obj
 0001:000d8060       ?clear_destruct@?$ImVector@UImGuiListClipperData@@@@QEAAXXZ 00000001800d9060 f i ImGuiDEBUG:imgui.obj
 0001:000d80d0       ?clear_destruct@?$ImVector@UImGuiMultiSelectTempData@@@@QEAAXXZ 00000001800d90d0 f i ImGuiDEBUG:imgui.obj
 0001:000d8140       ?clear_destruct@?$ImVector@UImGuiOldColumns@@@@QEAAXXZ 00000001800d9140 f i ImGuiDEBUG:imgui.obj
 0001:000d81c0       ?clear_destruct@?$ImVector@UImGuiTableTempData@@@@QEAAXXZ 00000001800d91c0 f i ImGuiDEBUG:imgui.obj
 0001:000d8240       ?contains@?$ImVector@I@@QEBA_NAEBI@Z 00000001800d9240 f i ImGuiDEBUG:imgui.obj
 0001:000d82e0       ?contains@?$ImVector@PEAUImGuiViewport@@@@QEBA_NAEBQEAUImGuiViewport@@@Z 00000001800d92e0 f i ImGuiDEBUG:imgui.obj
 0001:000d8380       ?contains@?$ImVector@PEAUImGuiWindow@@@@QEBA_NAEBQEAUImGuiWindow@@@Z 00000001800d9380 f i ImGuiDEBUG:imgui.obj
 0001:000d8420       ?empty@?$ImChunkStream@UImGuiWindowSettings@@@@QEBA_NXZ 00000001800d9420 f i ImGuiDEBUG:imgui.obj
 0001:000d8460       ?empty@?$ImVector@PEAUImDrawList@@@@QEBA_NXZ 00000001800d9460 f i ImGuiDEBUG:imgui.obj
 0001:000d84a0       ?empty@?$ImVector@UImGuiWindowStackData@@@@QEBA_NXZ 00000001800d94a0 f i ImGuiDEBUG:imgui.obj
 0001:000d84e0       ?empty@ImGuiTextBuffer@@QEBA_NXZ 00000001800d94e0 f i ImGuiDEBUG:imgui.obj
 0001:000d8520       ?empty@ImGuiTextRange@ImGuiTextFilter@@QEBA_NXZ 00000001800d9520 f i ImGuiDEBUG:imgui.obj
 0001:000d8570       ?end@?$ImChunkStream@UImGuiTableSettings@@@@QEAAPEAUImGuiTableSettings@@XZ 00000001800d9570 f i ImGuiDEBUG:imgui.obj
 0001:000d8590       ?end@?$ImChunkStream@UImGuiWindowSettings@@@@QEAAPEAUImGuiWindowSettings@@XZ 00000001800d9590 f i ImGuiDEBUG:imgui.obj
 0001:000d85b0       ?end@?$ImVector@PEAUImDrawList@@@@QEAAPEAPEAUImDrawList@@XZ 00000001800d95b0 f i ImGuiDEBUG:imgui.obj
 0001:000d85e0       ?end@?$ImVector@PEAUImFont@@@@QEAAPEAPEAUImFont@@XZ 00000001800d95e0 f i ImGuiDEBUG:imgui.obj
 0001:000d8610       ?end@?$ImVector@PEAUImGuiViewportP@@@@QEAAPEAPEAUImGuiViewportP@@XZ 00000001800d9610 f i ImGuiDEBUG:imgui.obj
 0001:000d8640       ?end@?$ImVector@PEAUImGuiWindow@@@@QEAAPEAPEAUImGuiWindow@@XZ 00000001800d9640 f i ImGuiDEBUG:imgui.obj
 0001:000d8670       ?end@?$ImVector@UImGuiContextHook@@@@QEAAPEAUImGuiContextHook@@XZ 00000001800d9670 f i ImGuiDEBUG:imgui.obj
 0001:000d86a0       ?end@?$ImVector@UImGuiDockRequest@@@@QEAAPEAUImGuiDockRequest@@XZ 00000001800d96a0 f i ImGuiDEBUG:imgui.obj
 0001:000d86d0       ?end@?$ImVector@UImGuiListClipperRange@@@@QEAAPEAUImGuiListClipperRange@@XZ 00000001800d96d0 f i ImGuiDEBUG:imgui.obj
 0001:000d8700       ?end@?$ImVector@UImGuiOldColumnData@@@@QEAAPEAUImGuiOldColumnData@@XZ 00000001800d9700 f i ImGuiDEBUG:imgui.obj
 0001:000d8730       ?end@?$ImVector@UImGuiOldColumns@@@@QEAAPEAUImGuiOldColumns@@XZ 00000001800d9730 f i ImGuiDEBUG:imgui.obj
 0001:000d8760       ?end@?$ImVector@UImGuiPlatformMonitor@@@@QEAAPEAUImGuiPlatformMonitor@@XZ 00000001800d9760 f i ImGuiDEBUG:imgui.obj
 0001:000d8790       ?end@?$ImVector@UImGuiPopupData@@@@QEAAPEAUImGuiPopupData@@XZ 00000001800d9790 f i ImGuiDEBUG:imgui.obj
 0001:000d87c0       ?end@?$ImVector@UImGuiSettingsHandler@@@@QEAAPEAUImGuiSettingsHandler@@XZ 00000001800d97c0 f i ImGuiDEBUG:imgui.obj
 0001:000d87f0       ?end@?$ImVector@UImGuiStoragePair@@@@QEAAPEAUImGuiStoragePair@@XZ 00000001800d97f0 f i ImGuiDEBUG:imgui.obj
 0001:000d8820       ?end@?$ImVector@UImGuiTableTempData@@@@QEAAPEAUImGuiTableTempData@@XZ 00000001800d9820 f i ImGuiDEBUG:imgui.obj
 0001:000d8850       ?end@?$ImVector@UImGuiTextRange@ImGuiTextFilter@@@@QEAAPEAUImGuiTextRange@ImGuiTextFilter@@XZ 00000001800d9850 f i ImGuiDEBUG:imgui.obj
 0001:000d8880       ?end@?$ImVector@UImGuiTextRange@ImGuiTextFilter@@@@QEBAPEBUImGuiTextRange@ImGuiTextFilter@@XZ 00000001800d9880 f i ImGuiDEBUG:imgui.obj
 0001:000d88b0       ?erase@?$ImVector@PEAUImGuiViewportP@@@@QEAAPEAPEAUImGuiViewportP@@PEBQEAU2@@Z 00000001800d98b0 f i ImGuiDEBUG:imgui.obj
 0001:000d89e0       ?erase@?$ImVector@PEAUImGuiWindow@@@@QEAAPEAPEAUImGuiWindow@@PEBQEAU2@@Z 00000001800d99e0 f i ImGuiDEBUG:imgui.obj
 0001:000d8b10       ?erase@?$ImVector@UImGuiContextHook@@@@QEAAPEAUImGuiContextHook@@PEBU2@@Z 00000001800d9b10 f i ImGuiDEBUG:imgui.obj
 0001:000d8c30       ?erase@?$ImVector@UImGuiInputEvent@@@@QEAAPEAUImGuiInputEvent@@PEBU2@0@Z 00000001800d9c30 f i ImGuiDEBUG:imgui.obj
 0001:000d8dd0       ?erase@?$ImVector@UImGuiListClipperRange@@@@QEAAPEAUImGuiListClipperRange@@PEBU2@@Z 00000001800d9dd0 f i ImGuiDEBUG:imgui.obj
 0001:000d8f00       ?erase@?$ImVector@UImGuiSettingsHandler@@@@QEAAPEAUImGuiSettingsHandler@@PEBU2@@Z 00000001800d9f00 f i ImGuiDEBUG:imgui.obj
 0001:000d9030       ?find@?$ImVector@PEAUImGuiWindow@@@@QEAAPEAPEAUImGuiWindow@@AEBQEAU2@@Z 00000001800da030 f i ImGuiDEBUG:imgui.obj
 0001:000d90c0       ?find_erase@?$ImVector@PEAUImGuiWindow@@@@QEAA_NAEBQEAUImGuiWindow@@@Z 00000001800da0c0 f i ImGuiDEBUG:imgui.obj
 0001:000d9130       ?front@?$ImVector@D@@QEBAAEBDXZ 00000001800da130 f i ImGuiDEBUG:imgui.obj
 0001:000d9190       ?get_line_begin@ImGuiTextIndex@@QEAAPEBDPEBDH@Z 00000001800da190 f i ImGuiDEBUG:imgui.obj
 0001:000d91e0       ?get_line_end@ImGuiTextIndex@@QEAAPEBDPEBDH@Z 00000001800da1e0 f i ImGuiDEBUG:imgui.obj
 0001:000d9260       ?index_from_ptr@?$ImVector@PEAUImGuiWindow@@@@QEBAHPEBQEAUImGuiWindow@@@Z 00000001800da260 f i ImGuiDEBUG:imgui.obj
 0001:000d9300       ?index_from_ptr@?$ImVector@UImGuiOldColumnData@@@@QEBAHPEBUImGuiOldColumnData@@@Z 00000001800da300 f i ImGuiDEBUG:imgui.obj
 0001:000d93b0       ?index_from_ptr@?$ImVector@UImGuiPlatformMonitor@@@@QEBAHPEBUImGuiPlatformMonitor@@@Z 00000001800da3b0 f i ImGuiDEBUG:imgui.obj
 0001:000d9460       ?index_from_ptr@?$ImVector@UImGuiTabItem@@@@QEBAHPEBUImGuiTabItem@@@Z 00000001800da460 f i ImGuiDEBUG:imgui.obj
 0001:000d9510       ?insert@?$ImVector@PEAUImGuiWindow@@@@QEAAPEAPEAUImGuiWindow@@PEBQEAU2@AEBQEAU2@@Z 00000001800da510 f i ImGuiDEBUG:imgui.obj
 0001:000d96b0       ?insert@?$ImVector@UImDrawCmd@@@@QEAAPEAUImDrawCmd@@PEBU2@AEBU2@@Z 00000001800da6b0 f i ImGuiDEBUG:imgui.obj
 0001:000d9860       ?insert@?$ImVector@UImGuiListClipperRange@@@@QEAAPEAUImGuiListClipperRange@@PEBU2@AEBU2@@Z 00000001800da860 f i ImGuiDEBUG:imgui.obj
 0001:000d9a10       ?insert@?$ImVector@UImGuiStoragePair@@@@QEAAPEAUImGuiStoragePair@@PEBU2@AEBU2@@Z 00000001800daa10 f i ImGuiDEBUG:imgui.obj
 0001:000d9bb0       ?next_chunk@?$ImChunkStream@UImGuiTableSettings@@@@QEAAPEAUImGuiTableSettings@@PEAU2@@Z 00000001800dabb0 f i ImGuiDEBUG:imgui.obj
 0001:000d9cb0       ?next_chunk@?$ImChunkStream@UImGuiWindowSettings@@@@QEAAPEAUImGuiWindowSettings@@PEAU2@@Z 00000001800dacb0 f i ImGuiDEBUG:imgui.obj
 0001:000d9db0       ?offset_from_ptr@?$ImChunkStream@UImGuiWindowSettings@@@@QEAAHPEBUImGuiWindowSettings@@@Z 00000001800dadb0 f i ImGuiDEBUG:imgui.obj
 0001:000d9e40       ?pop_back@?$ImVector@H@@QEAAXXZ 00000001800dae40 f i ImGuiDEBUG:imgui.obj
 0001:000d9ea0       ?pop_back@?$ImVector@I@@QEAAXXZ 00000001800daea0 f i ImGuiDEBUG:imgui.obj
 0001:000d9f00       ?pop_back@?$ImVector@M@@QEAAXXZ 00000001800daf00 f i ImGuiDEBUG:imgui.obj
 0001:000d9f60       ?pop_back@?$ImVector@PEAUImFont@@@@QEAAXXZ 00000001800daf60 f i ImGuiDEBUG:imgui.obj
 0001:000d9fc0       ?pop_back@?$ImVector@UImDrawCmd@@@@QEAAXXZ 00000001800dafc0 f i ImGuiDEBUG:imgui.obj
 0001:000da020       ?pop_back@?$ImVector@UImGuiColorMod@@@@QEAAXXZ 00000001800db020 f i ImGuiDEBUG:imgui.obj
 0001:000da080       ?pop_back@?$ImVector@UImGuiFocusScopeData@@@@QEAAXXZ 00000001800db080 f i ImGuiDEBUG:imgui.obj
 0001:000da0e0       ?pop_back@?$ImVector@UImGuiGroupData@@@@QEAAXXZ 00000001800db0e0 f i ImGuiDEBUG:imgui.obj
 0001:000da140       ?pop_back@?$ImVector@UImGuiPopupData@@@@QEAAXXZ 00000001800db140 f i ImGuiDEBUG:imgui.obj
 0001:000da1a0       ?pop_back@?$ImVector@UImGuiStyleMod@@@@QEAAXXZ 00000001800db1a0 f i ImGuiDEBUG:imgui.obj
 0001:000da200       ?pop_back@?$ImVector@UImGuiWindowStackData@@@@QEAAXXZ 00000001800db200 f i ImGuiDEBUG:imgui.obj
 0001:000da260       ?ptr_from_offset@?$ImChunkStream@UImGuiWindowSettings@@@@QEAAPEAUImGuiWindowSettings@@H@Z 00000001800db260 f i ImGuiDEBUG:imgui.obj
 0001:000da2d0       ?push_back@?$ImVector@D@@QEAAXAEBD@Z 00000001800db2d0 f i ImGuiDEBUG:imgui.obj
 0001:000da360       ?push_back@?$ImVector@G@@QEAAXAEBG@Z 00000001800db360 f i ImGuiDEBUG:imgui.obj
 0001:000da3f0       ?push_back@?$ImVector@H@@QEAAXAEBH@Z 00000001800db3f0 f i ImGuiDEBUG:imgui.obj
 0001:000da480       ?push_back@?$ImVector@I@@QEAAXAEBI@Z 00000001800db480 f i ImGuiDEBUG:imgui.obj
 0001:000da510       ?push_back@?$ImVector@M@@QEAAXAEBM@Z 00000001800db510 f i ImGuiDEBUG:imgui.obj
 0001:000da5a0       ?push_back@?$ImVector@PEAUImFont@@@@QEAAXAEBQEAUImFont@@@Z 00000001800db5a0 f i ImGuiDEBUG:imgui.obj
 0001:000da630       ?push_back@?$ImVector@PEAUImGuiDockNode@@@@QEAAXAEBQEAUImGuiDockNode@@@Z 00000001800db630 f i ImGuiDEBUG:imgui.obj
 0001:000da6c0       ?push_back@?$ImVector@PEAUImGuiViewport@@@@QEAAXAEBQEAUImGuiViewport@@@Z 00000001800db6c0 f i ImGuiDEBUG:imgui.obj
 0001:000da750       ?push_back@?$ImVector@PEAUImGuiViewportP@@@@QEAAXAEBQEAUImGuiViewportP@@@Z 00000001800db750 f i ImGuiDEBUG:imgui.obj
 0001:000da7e0       ?push_back@?$ImVector@PEAUImGuiWindow@@@@QEAAXAEBQEAUImGuiWindow@@@Z 00000001800db7e0 f i ImGuiDEBUG:imgui.obj
 0001:000da870       ?push_back@?$ImVector@UImDrawCmd@@@@QEAAXAEBUImDrawCmd@@@Z 00000001800db870 f i ImGuiDEBUG:imgui.obj
 0001:000da910       ?push_back@?$ImVector@UImGuiColorMod@@@@QEAAXAEBUImGuiColorMod@@@Z 00000001800db910 f i ImGuiDEBUG:imgui.obj
 0001:000da9b0       ?push_back@?$ImVector@UImGuiContextHook@@@@QEAAXAEBUImGuiContextHook@@@Z 00000001800db9b0 f i ImGuiDEBUG:imgui.obj
 0001:000daa50       ?push_back@?$ImVector@UImGuiDockNodeSettings@@@@QEAAXAEBUImGuiDockNodeSettings@@@Z 00000001800dba50 f i ImGuiDEBUG:imgui.obj
 0001:000daaf0       ?push_back@?$ImVector@UImGuiDockRequest@@@@QEAAXAEBUImGuiDockRequest@@@Z 00000001800dbaf0 f i ImGuiDEBUG:imgui.obj
 0001:000dab90       ?push_back@?$ImVector@UImGuiFocusScopeData@@@@QEAAXAEBUImGuiFocusScopeData@@@Z 00000001800dbb90 f i ImGuiDEBUG:imgui.obj
 0001:000dac20       ?push_back@?$ImVector@UImGuiInputEvent@@@@QEAAXAEBUImGuiInputEvent@@@Z 00000001800dbc20 f i ImGuiDEBUG:imgui.obj
 0001:000dacc0       ?push_back@?$ImVector@UImGuiKeyRoutingData@@@@QEAAXAEBUImGuiKeyRoutingData@@@Z 00000001800dbcc0 f i ImGuiDEBUG:imgui.obj
 0001:000dad60       ?push_back@?$ImVector@UImGuiListClipperRange@@@@QEAAXAEBUImGuiListClipperRange@@@Z 00000001800dbd60 f i ImGuiDEBUG:imgui.obj
 0001:000dae00       ?push_back@?$ImVector@UImGuiPopupData@@@@QEAAXAEBUImGuiPopupData@@@Z 00000001800dbe00 f i ImGuiDEBUG:imgui.obj
 0001:000daea0       ?push_back@?$ImVector@UImGuiSettingsHandler@@@@QEAAXAEBUImGuiSettingsHandler@@@Z 00000001800dbea0 f i ImGuiDEBUG:imgui.obj
 0001:000daf40       ?push_back@?$ImVector@UImGuiStyleMod@@@@QEAAXAEBUImGuiStyleMod@@@Z 00000001800dbf40 f i ImGuiDEBUG:imgui.obj
 0001:000dafe0       ?push_back@?$ImVector@UImGuiTextRange@ImGuiTextFilter@@@@QEAAXAEBUImGuiTextRange@ImGuiTextFilter@@@Z 00000001800dbfe0 f i ImGuiDEBUG:imgui.obj
 0001:000db080       ?push_back@?$ImVector@UImGuiWindowStackData@@@@QEAAXAEBUImGuiWindowStackData@@@Z 00000001800dc080 f i ImGuiDEBUG:imgui.obj
 0001:000db120       ?push_back@?$ImVector@UImVec2@@@@QEAAXAEBUImVec2@@@Z 00000001800dc120 f i ImGuiDEBUG:imgui.obj
 0001:000db1b0       ?push_front@?$ImVector@PEAUImGuiWindow@@@@QEAAXAEBQEAUImGuiWindow@@@Z 00000001800dc1b0 f i ImGuiDEBUG:imgui.obj
 0001:000db210       ?push_front@?$ImVector@UImDrawCmd@@@@QEAAXAEBUImDrawCmd@@@Z 00000001800dc210 f i ImGuiDEBUG:imgui.obj
 0001:000db270       ?push_front@?$ImVector@UImGuiListClipperRange@@@@QEAAXAEBUImGuiListClipperRange@@@Z 00000001800dc270 f i ImGuiDEBUG:imgui.obj
 0001:000db2d0       ?reserve@?$ImVector@D@@QEAAXH@Z 00000001800dc2d0 f i ImGuiDEBUG:imgui.obj
 0001:000db380       ?reserve@?$ImVector@E@@QEAAXH@Z 00000001800dc380 f i ImGuiDEBUG:imgui.obj
 0001:000db430       ?reserve@?$ImVector@G@@QEAAXH@Z 00000001800dc430 f i ImGuiDEBUG:imgui.obj
 0001:000db4f0       ?reserve@?$ImVector@H@@QEAAXH@Z 00000001800dc4f0 f i ImGuiDEBUG:imgui.obj
 0001:000db5b0       ?reserve@?$ImVector@I@@QEAAXH@Z 00000001800dc5b0 f i ImGuiDEBUG:imgui.obj
 0001:000db670       ?reserve@?$ImVector@M@@QEAAXH@Z 00000001800dc670 f i ImGuiDEBUG:imgui.obj
 0001:000db730       ?reserve@?$ImVector@PEAUImDrawList@@@@QEAAXH@Z 00000001800dc730 f i ImGuiDEBUG:imgui.obj
 0001:000db7f0       ?reserve@?$ImVector@PEAUImFont@@@@QEAAXH@Z 00000001800dc7f0 f i ImGuiDEBUG:imgui.obj
 0001:000db8b0       ?reserve@?$ImVector@PEAUImGuiDockNode@@@@QEAAXH@Z 00000001800dc8b0 f i ImGuiDEBUG:imgui.obj
 0001:000db970       ?reserve@?$ImVector@PEAUImGuiViewport@@@@QEAAXH@Z 00000001800dc970 f i ImGuiDEBUG:imgui.obj
 0001:000dba30       ?reserve@?$ImVector@PEAUImGuiViewportP@@@@QEAAXH@Z 00000001800dca30 f i ImGuiDEBUG:imgui.obj
 0001:000dbaf0       ?reserve@?$ImVector@PEAUImGuiWindow@@@@QEAAXH@Z 00000001800dcaf0 f i ImGuiDEBUG:imgui.obj
 0001:000dbbb0       ?reserve@?$ImVector@UImDrawCmd@@@@QEAAXH@Z 00000001800dcbb0 f i ImGuiDEBUG:imgui.obj
 0001:000dbc70       ?reserve@?$ImVector@UImDrawVert@@@@QEAAXH@Z 00000001800dcc70 f i ImGuiDEBUG:imgui.obj
 0001:000dbd30       ?reserve@?$ImVector@UImGuiColorMod@@@@QEAAXH@Z 00000001800dcd30 f i ImGuiDEBUG:imgui.obj
 0001:000dbdf0       ?reserve@?$ImVector@UImGuiContextHook@@@@QEAAXH@Z 00000001800dcdf0 f i ImGuiDEBUG:imgui.obj
 0001:000dbeb0       ?reserve@?$ImVector@UImGuiDockContextPruneNodeData@@@@QEAAXH@Z 00000001800dceb0 f i ImGuiDEBUG:imgui.obj
 0001:000dbf70       ?reserve@?$ImVector@UImGuiDockNodeSettings@@@@QEAAXH@Z 00000001800dcf70 f i ImGuiDEBUG:imgui.obj
 0001:000dc030       ?reserve@?$ImVector@UImGuiDockRequest@@@@QEAAXH@Z 00000001800dd030 f i ImGuiDEBUG:imgui.obj
 0001:000dc0f0       ?reserve@?$ImVector@UImGuiFocusScopeData@@@@QEAAXH@Z 00000001800dd0f0 f i ImGuiDEBUG:imgui.obj
 0001:000dc1b0       ?reserve@?$ImVector@UImGuiGroupData@@@@QEAAXH@Z 00000001800dd1b0 f i ImGuiDEBUG:imgui.obj
 0001:000dc270       ?reserve@?$ImVector@UImGuiInputEvent@@@@QEAAXH@Z 00000001800dd270 f i ImGuiDEBUG:imgui.obj
 0001:000dc330       ?reserve@?$ImVector@UImGuiKeyRoutingData@@@@QEAAXH@Z 00000001800dd330 f i ImGuiDEBUG:imgui.obj
 0001:000dc3f0       ?reserve@?$ImVector@UImGuiListClipperData@@@@QEAAXH@Z 00000001800dd3f0 f i ImGuiDEBUG:imgui.obj
 0001:000dc4b0       ?reserve@?$ImVector@UImGuiListClipperRange@@@@QEAAXH@Z 00000001800dd4b0 f i ImGuiDEBUG:imgui.obj
 0001:000dc570       ?reserve@?$ImVector@UImGuiPopupData@@@@QEAAXH@Z 00000001800dd570 f i ImGuiDEBUG:imgui.obj
 0001:000dc630       ?reserve@?$ImVector@UImGuiSettingsHandler@@@@QEAAXH@Z 00000001800dd630 f i ImGuiDEBUG:imgui.obj
 0001:000dc6f0       ?reserve@?$ImVector@UImGuiStackLevelInfo@@@@QEAAXH@Z 00000001800dd6f0 f i ImGuiDEBUG:imgui.obj
 0001:000dc7b0       ?reserve@?$ImVector@UImGuiStoragePair@@@@QEAAXH@Z 00000001800dd7b0 f i ImGuiDEBUG:imgui.obj
 0001:000dc870       ?reserve@?$ImVector@UImGuiStyleMod@@@@QEAAXH@Z 00000001800dd870 f i ImGuiDEBUG:imgui.obj
 0001:000dc930       ?reserve@?$ImVector@UImGuiTextRange@ImGuiTextFilter@@@@QEAAXH@Z 00000001800dd930 f i ImGuiDEBUG:imgui.obj
 0001:000dc9f0       ?reserve@?$ImVector@UImGuiWindowStackData@@@@QEAAXH@Z 00000001800dd9f0 f i ImGuiDEBUG:imgui.obj
 0001:000dcab0       ?reserve@?$ImVector@UImVec2@@@@QEAAXH@Z 00000001800ddab0 f i ImGuiDEBUG:imgui.obj
 0001:000dcb70       ?reserve@?$ImVector@_W@@QEAAXH@Z 00000001800ddb70 f i ImGuiDEBUG:imgui.obj
 0001:000dcc30       ?reserve@ImGuiTextBuffer@@QEAAXH@Z 00000001800ddc30 f i ImGuiDEBUG:imgui.obj
 0001:000dcc60       ?resize@?$ImVector@D@@QEAAXH@Z 00000001800ddc60 f i ImGuiDEBUG:imgui.obj
 0001:000dccc0       ?resize@?$ImVector@D@@QEAAXHAEBD@Z 00000001800ddcc0 f i ImGuiDEBUG:imgui.obj
 0001:000dcd80       ?resize@?$ImVector@E@@QEAAXH@Z 00000001800ddd80 f i ImGuiDEBUG:imgui.obj
 0001:000dcde0       ?resize@?$ImVector@G@@QEAAXH@Z 00000001800ddde0 f i ImGuiDEBUG:imgui.obj
 0001:000dce40       ?resize@?$ImVector@H@@QEAAXH@Z 00000001800dde40 f i ImGuiDEBUG:imgui.obj
 0001:000dcea0       ?resize@?$ImVector@I@@QEAAXH@Z 00000001800ddea0 f i ImGuiDEBUG:imgui.obj
 0001:000dcf00       ?resize@?$ImVector@M@@QEAAXH@Z 00000001800ddf00 f i ImGuiDEBUG:imgui.obj
 0001:000dcf60       ?resize@?$ImVector@PEAUImDrawList@@@@QEAAXH@Z 00000001800ddf60 f i ImGuiDEBUG:imgui.obj
 0001:000dcfc0       ?resize@?$ImVector@PEAUImGuiViewport@@@@QEAAXH@Z 00000001800ddfc0 f i ImGuiDEBUG:imgui.obj
 0001:000dd020       ?resize@?$ImVector@PEAUImGuiViewportP@@@@QEAAXH@Z 00000001800de020 f i ImGuiDEBUG:imgui.obj
 0001:000dd080       ?resize@?$ImVector@PEAUImGuiWindow@@@@QEAAXH@Z 00000001800de080 f i ImGuiDEBUG:imgui.obj
 0001:000dd0e0       ?resize@?$ImVector@UImGuiDockContextPruneNodeData@@@@QEAAXH@Z 00000001800de0e0 f i ImGuiDEBUG:imgui.obj
 0001:000dd140       ?resize@?$ImVector@UImGuiDockNodeSettings@@@@QEAAXH@Z 00000001800de140 f i ImGuiDEBUG:imgui.obj
 0001:000dd1a0       ?resize@?$ImVector@UImGuiDockRequest@@@@QEAAXH@Z 00000001800de1a0 f i ImGuiDEBUG:imgui.obj
 0001:000dd200       ?resize@?$ImVector@UImGuiFocusScopeData@@@@QEAAXH@Z 00000001800de200 f i ImGuiDEBUG:imgui.obj
 0001:000dd260       ?resize@?$ImVector@UImGuiGroupData@@@@QEAAXH@Z 00000001800de260 f i ImGuiDEBUG:imgui.obj
 0001:000dd2c0       ?resize@?$ImVector@UImGuiInputEvent@@@@QEAAXH@Z 00000001800de2c0 f i ImGuiDEBUG:imgui.obj
 0001:000dd320       ?resize@?$ImVector@UImGuiKeyRoutingData@@@@QEAAXH@Z 00000001800de320 f i ImGuiDEBUG:imgui.obj
 0001:000dd380       ?resize@?$ImVector@UImGuiListClipperData@@@@QEAAXHAEBUImGuiListClipperData@@@Z 00000001800de380 f i ImGuiDEBUG:imgui.obj
 0001:000dd450       ?resize@?$ImVector@UImGuiListClipperRange@@@@QEAAXH@Z 00000001800de450 f i ImGuiDEBUG:imgui.obj
 0001:000dd4b0       ?resize@?$ImVector@UImGuiPopupData@@@@QEAAXH@Z 00000001800de4b0 f i ImGuiDEBUG:imgui.obj
 0001:000dd510       ?resize@?$ImVector@UImGuiStackLevelInfo@@@@QEAAXH@Z 00000001800de510 f i ImGuiDEBUG:imgui.obj
 0001:000dd570       ?resize@?$ImVector@UImGuiStackLevelInfo@@@@QEAAXHAEBUImGuiStackLevelInfo@@@Z 00000001800de570 f i ImGuiDEBUG:imgui.obj
 0001:000dd640       ?resize@?$ImVector@UImGuiTextRange@ImGuiTextFilter@@@@QEAAXH@Z 00000001800de640 f i ImGuiDEBUG:imgui.obj
 0001:000dd6a0       ?resize@?$ImVector@UImGuiWindowStackData@@@@QEAAXH@Z 00000001800de6a0 f i ImGuiDEBUG:imgui.obj
 0001:000dd700       ?resize@?$ImVector@_W@@QEAAXH@Z 00000001800de700 f i ImGuiDEBUG:imgui.obj
 0001:000dd760       ?size@?$ImChunkStream@UImGuiTableSettings@@@@QEBAHXZ 00000001800de760 f i ImGuiDEBUG:imgui.obj
 0001:000dd770       ?size@?$ImChunkStream@UImGuiWindowSettings@@@@QEBAHXZ 00000001800de770 f i ImGuiDEBUG:imgui.obj
 0001:000dd780       ?size@ImGuiTextBuffer@@QEBAHXZ 00000001800de780 f i ImGuiDEBUG:imgui.obj
 0001:000dd7c0       ?size@ImGuiTextIndex@@QEAAHXZ 00000001800de7c0 f i ImGuiDEBUG:imgui.obj
 0001:000dd7d0       ?size_in_bytes@?$ImVector@PEAUImGuiViewportP@@@@QEBAHXZ 00000001800de7d0 f i ImGuiDEBUG:imgui.obj
 0001:000dd7f0       ?size_in_bytes@?$ImVector@UImGuiStoragePair@@@@QEBAHXZ 00000001800de7f0 f i ImGuiDEBUG:imgui.obj
 0001:000dd810       ?swap@?$ImVector@PEAUImGuiWindow@@@@QEAAXAEAU1@@Z 00000001800de810 f i ImGuiDEBUG:imgui.obj
 0001:000dd8c0       ?swap@?$ImVector@UImGuiKeyRoutingData@@@@QEAAXAEAU1@@Z 00000001800de8c0 f i ImGuiDEBUG:imgui.obj
 0001:000dd970       __local_stdio_scanf_options 00000001800de970 f i ImGuiDEBUG:imgui.obj
 0001:000dd980       _vsnprintf                 00000001800de980 f i ImGuiDEBUG:imgui.obj
 0001:000dd9d0       _vsscanf_l                 00000001800de9d0 f i ImGuiDEBUG:imgui.obj
 0001:000dda40       sscanf                     00000001800dea40 f i ImGuiDEBUG:imgui.obj
 0001:000ddab0       ?Separator@ImGui@@YAXXZ    00000001800deab0 f   ImGuiDEBUG:imgui_widgets.obj
 0001:000ddb50       ?NewLine@ImGui@@YAXXZ      00000001800deb50 f   ImGuiDEBUG:imgui_widgets.obj
 0001:000ddc30       ?Spacing@ImGui@@YAXXZ      00000001800dec30 f   ImGuiDEBUG:imgui_widgets.obj
 0001:000ddc80       ?Dummy@ImGui@@YAXAEBUImVec2@@@Z 00000001800dec80 f   ImGuiDEBUG:imgui_widgets.obj
 0001:000ddd10       ?AlignTextToFramePadding@ImGui@@YAXXZ 00000001800ded10 f   ImGuiDEBUG:imgui_widgets.obj
 0001:000dddd0       ?TextUnformatted@ImGui@@YAXPEBD0@Z 00000001800dedd0 f   ImGuiDEBUG:imgui_widgets.obj
 0001:000dde00       ?Text@ImGui@@YAXPEBDZZ     00000001800dee00 f   ImGuiDEBUG:imgui_widgets.obj
 0001:000dde50       ?TextV@ImGui@@YAXPEBDPEAD@Z 00000001800dee50 f   ImGuiDEBUG:imgui_widgets.obj
 0001:000ddec0       ?TextColored@ImGui@@YAXAEBUImVec4@@PEBDZZ 00000001800deec0 f   ImGuiDEBUG:imgui_widgets.obj
 0001:000ddf10       ?TextColoredV@ImGui@@YAXAEBUImVec4@@PEBDPEAD@Z 00000001800def10 f   ImGuiDEBUG:imgui_widgets.obj
 0001:000ddf60       ?TextDisabled@ImGui@@YAXPEBDZZ 00000001800def60 f   ImGuiDEBUG:imgui_widgets.obj
 0001:000ddfb0       ?TextDisabledV@ImGui@@YAXPEBDPEAD@Z 00000001800defb0 f   ImGuiDEBUG:imgui_widgets.obj
 0001:000de010       ?TextWrapped@ImGui@@YAXPEBDZZ 00000001800df010 f   ImGuiDEBUG:imgui_widgets.obj
 0001:000de060       ?TextWrappedV@ImGui@@YAXPEBDPEAD@Z 00000001800df060 f   ImGuiDEBUG:imgui_widgets.obj
 0001:000de0f0       ?LabelText@ImGui@@YAXPEBD0ZZ 00000001800df0f0 f   ImGuiDEBUG:imgui_widgets.obj
 0001:000de140       ?LabelTextV@ImGui@@YAXPEBD0PEAD@Z 00000001800df140 f   ImGuiDEBUG:imgui_widgets.obj
 0001:000de440       ?BulletText@ImGui@@YAXPEBDZZ 00000001800df440 f   ImGuiDEBUG:imgui_widgets.obj
 0001:000de490       ?BulletTextV@ImGui@@YAXPEBDPEAD@Z 00000001800df490 f   ImGuiDEBUG:imgui_widgets.obj
 0001:000de710       ?SeparatorText@ImGui@@YAXPEBD@Z 00000001800df710 f   ImGuiDEBUG:imgui_widgets.obj
 0001:000de760       ?Button@ImGui@@YA_NPEBDAEBUImVec2@@@Z 00000001800df760 f   ImGuiDEBUG:imgui_widgets.obj
 0001:000de790       ?SmallButton@ImGui@@YA_NPEBD@Z 00000001800df790 f   ImGuiDEBUG:imgui_widgets.obj
 0001:000de820       ?InvisibleButton@ImGui@@YA_NPEBDAEBUImVec2@@H@Z 00000001800df820 f   ImGuiDEBUG:imgui_widgets.obj
 0001:000de990       ?ArrowButton@ImGui@@YA_NPEBDW4ImGuiDir@@@Z 00000001800df990 f   ImGuiDEBUG:imgui_widgets.obj
 0001:000de9e0       ?Checkbox@ImGui@@YA_NPEBDPEA_N@Z 00000001800df9e0 f   ImGuiDEBUG:imgui_widgets.obj
 0001:000df080       ?CheckboxFlags@ImGui@@YA_NPEBDPEAHH@Z 00000001800e0080 f   ImGuiDEBUG:imgui_widgets.obj
 0001:000df0c0       ?CheckboxFlags@ImGui@@YA_NPEBDPEAII@Z 00000001800e00c0 f   ImGuiDEBUG:imgui_widgets.obj
 0001:000df100       ?RadioButton@ImGui@@YA_NPEBD_N@Z 00000001800e0100 f   ImGuiDEBUG:imgui_widgets.obj
 0001:000df640       ?RadioButton@ImGui@@YA_NPEBDPEAHH@Z 00000001800e0640 f   ImGuiDEBUG:imgui_widgets.obj
 0001:000df6b0       ?ProgressBar@ImGui@@YAXMAEBUImVec2@@PEBD@Z 00000001800e06b0 f   ImGuiDEBUG:imgui_widgets.obj
 0001:000dfb80       ?Bullet@ImGui@@YAXXZ       00000001800e0b80 f   ImGuiDEBUG:imgui_widgets.obj
 0001:000dfd70       ?TextLink@ImGui@@YA_NPEBD@Z 00000001800e0d70 f   ImGuiDEBUG:imgui_widgets.obj
 0001:000e0150       ?TextLinkOpenURL@ImGui@@YAXPEBD0@Z 00000001800e1150 f   ImGuiDEBUG:imgui_widgets.obj
 0001:000e0220       ?Image@ImGui@@YAXPEAXAEBUImVec2@@11AEBUImVec4@@2@Z 00000001800e1220 f   ImGuiDEBUG:imgui_widgets.obj
 0001:000e0450       ?ImageButton@ImGui@@YA_NPEBDPEAXAEBUImVec2@@22AEBUImVec4@@3@Z 00000001800e1450 f   ImGuiDEBUG:imgui_widgets.obj
 0001:000e0500       ?BeginCombo@ImGui@@YA_NPEBD0H@Z 00000001800e1500 f   ImGuiDEBUG:imgui_widgets.obj
 0001:000e0db0       ?EndCombo@ImGui@@YAXXZ     00000001800e1db0 f   ImGuiDEBUG:imgui_widgets.obj
 0001:000e0df0       ?Combo@ImGui@@YA_NPEBDPEAHQEBQEBDHH@Z 00000001800e1df0 f   ImGuiDEBUG:imgui_widgets.obj
 0001:000e0e50       ?Combo@ImGui@@YA_NPEBDPEAH0H@Z 00000001800e1e50 f   ImGuiDEBUG:imgui_widgets.obj
 0001:000e0f10       ?Combo@ImGui@@YA_NPEBDPEAHP6APEBDPEAXH@Z2HH@Z 00000001800e1f10 f   ImGuiDEBUG:imgui_widgets.obj
 0001:000e11a0       ?DragFloat@ImGui@@YA_NPEBDPEAMMMM0H@Z 00000001800e21a0 f   ImGuiDEBUG:imgui_widgets.obj
 0001:000e1210       ?DragFloat2@ImGui@@YA_NPEBDQEAMMMM0H@Z 00000001800e2210 f   ImGuiDEBUG:imgui_widgets.obj
 0001:000e1290       ?DragFloat3@ImGui@@YA_NPEBDQEAMMMM0H@Z 00000001800e2290 f   ImGuiDEBUG:imgui_widgets.obj
 0001:000e1310       ?DragFloat4@ImGui@@YA_NPEBDQEAMMMM0H@Z 00000001800e2310 f   ImGuiDEBUG:imgui_widgets.obj
 0001:000e1390       ?DragFloatRange2@ImGui@@YA_NPEBDPEAM1MMM00H@Z 00000001800e2390 f   ImGuiDEBUG:imgui_widgets.obj
 0001:000e16e0       ?DragInt@ImGui@@YA_NPEBDPEAHMHH0H@Z 00000001800e26e0 f   ImGuiDEBUG:imgui_widgets.obj
 0001:000e1750       ?DragInt2@ImGui@@YA_NPEBDQEAHMHH0H@Z 00000001800e2750 f   ImGuiDEBUG:imgui_widgets.obj
 0001:000e17d0       ?DragInt3@ImGui@@YA_NPEBDQEAHMHH0H@Z 00000001800e27d0 f   ImGuiDEBUG:imgui_widgets.obj
 0001:000e1850       ?DragInt4@ImGui@@YA_NPEBDQEAHMHH0H@Z 00000001800e2850 f   ImGuiDEBUG:imgui_widgets.obj
 0001:000e18d0       ?DragIntRange2@ImGui@@YA_NPEBDPEAH1MHH00H@Z 00000001800e28d0 f   ImGuiDEBUG:imgui_widgets.obj
 0001:000e1bc0       ?DragScalar@ImGui@@YA_NPEBDHPEAXMPEBX20H@Z 00000001800e2bc0 f   ImGuiDEBUG:imgui_widgets.obj
 0001:000e2400       ?DragScalarN@ImGui@@YA_NPEBDHPEAXHMPEBX20H@Z 00000001800e3400 f   ImGuiDEBUG:imgui_widgets.obj
 0001:000e25e0       ?SliderFloat@ImGui@@YA_NPEBDPEAMMM0H@Z 00000001800e35e0 f   ImGuiDEBUG:imgui_widgets.obj
 0001:000e2640       ?SliderFloat2@ImGui@@YA_NPEBDQEAMMM0H@Z 00000001800e3640 f   ImGuiDEBUG:imgui_widgets.obj
 0001:000e26b0       ?SliderFloat3@ImGui@@YA_NPEBDQEAMMM0H@Z 00000001800e36b0 f   ImGuiDEBUG:imgui_widgets.obj
 0001:000e2720       ?SliderFloat4@ImGui@@YA_NPEBDQEAMMM0H@Z 00000001800e3720 f   ImGuiDEBUG:imgui_widgets.obj
 0001:000e2790       ?SliderAngle@ImGui@@YA_NPEBDPEAMMM0H@Z 00000001800e3790 f   ImGuiDEBUG:imgui_widgets.obj
 0001:000e2840       ?SliderInt@ImGui@@YA_NPEBDPEAHHH0H@Z 00000001800e3840 f   ImGuiDEBUG:imgui_widgets.obj
 0001:000e28a0       ?SliderInt2@ImGui@@YA_NPEBDQEAHHH0H@Z 00000001800e38a0 f   ImGuiDEBUG:imgui_widgets.obj
 0001:000e2910       ?SliderInt3@ImGui@@YA_NPEBDQEAHHH0H@Z 00000001800e3910 f   ImGuiDEBUG:imgui_widgets.obj
 0001:000e2980       ?SliderInt4@ImGui@@YA_NPEBDQEAHHH0H@Z 00000001800e3980 f   ImGuiDEBUG:imgui_widgets.obj
 0001:000e29f0       ?SliderScalar@ImGui@@YA_NPEBDHPEAXPEBX20H@Z 00000001800e39f0 f   ImGuiDEBUG:imgui_widgets.obj
 0001:000e31b0       ?SliderScalarN@ImGui@@YA_NPEBDHPEAXHPEBX20H@Z 00000001800e41b0 f   ImGuiDEBUG:imgui_widgets.obj
 0001:000e3380       ?VSliderFloat@ImGui@@YA_NPEBDAEBUImVec2@@PEAMMM0H@Z 00000001800e4380 f   ImGuiDEBUG:imgui_widgets.obj
 0001:000e33f0       ?VSliderInt@ImGui@@YA_NPEBDAEBUImVec2@@PEAHHH0H@Z 00000001800e43f0 f   ImGuiDEBUG:imgui_widgets.obj
 0001:000e3460       ?VSliderScalar@ImGui@@YA_NPEBDAEBUImVec2@@HPEAXPEBX30H@Z 00000001800e4460 f   ImGuiDEBUG:imgui_widgets.obj
 0001:000e39f0       ?InputText@ImGui@@YA_NPEBDPEAD_KHP6AHPEAUImGuiInputTextCallbackData@@@ZPEAX@Z 00000001800e49f0 f   ImGuiDEBUG:imgui_widgets.obj
 0001:000e3a90       ?InputTextMultiline@ImGui@@YA_NPEBDPEAD_KAEBUImVec2@@HP6AHPEAUImGuiInputTextCallbackData@@@ZPEAX@Z 00000001800e4a90 f   ImGuiDEBUG:imgui_widgets.obj
 0001:000e3b00       ?InputTextWithHint@ImGui@@YA_NPEBD0PEAD_KHP6AHPEAUImGuiInputTextCallbackData@@@ZPEAX@Z 00000001800e4b00 f   ImGuiDEBUG:imgui_widgets.obj
 0001:000e3bb0       ?InputFloat@ImGui@@YA_NPEBDPEAMMM0H@Z 00000001800e4bb0 f   ImGuiDEBUG:imgui_widgets.obj
 0001:000e3c60       ?InputFloat2@ImGui@@YA_NPEBDQEAM0H@Z 00000001800e4c60 f   ImGuiDEBUG:imgui_widgets.obj
 0001:000e3cd0       ?InputFloat3@ImGui@@YA_NPEBDQEAM0H@Z 00000001800e4cd0 f   ImGuiDEBUG:imgui_widgets.obj
 0001:000e3d40       ?InputFloat4@ImGui@@YA_NPEBDQEAM0H@Z 00000001800e4d40 f   ImGuiDEBUG:imgui_widgets.obj
 0001:000e3db0       ?InputInt@ImGui@@YA_NPEBDPEAHHHH@Z 00000001800e4db0 f   ImGuiDEBUG:imgui_widgets.obj
 0001:000e3e90       ?InputInt2@ImGui@@YA_NPEBDQEAHH@Z 00000001800e4e90 f   ImGuiDEBUG:imgui_widgets.obj
 0001:000e3ef0       ?InputInt3@ImGui@@YA_NPEBDQEAHH@Z 00000001800e4ef0 f   ImGuiDEBUG:imgui_widgets.obj
 0001:000e3f50       ?InputInt4@ImGui@@YA_NPEBDQEAHH@Z 00000001800e4f50 f   ImGuiDEBUG:imgui_widgets.obj
 0001:000e3fb0       ?InputDouble@ImGui@@YA_NPEBDPEANNN0H@Z 00000001800e4fb0 f   ImGuiDEBUG:imgui_widgets.obj
 0001:000e4060       ?InputScalar@ImGui@@YA_NPEBDHPEAXPEBX20H@Z 00000001800e5060 f   ImGuiDEBUG:imgui_widgets.obj
 0001:000e45e0       ?InputScalarN@ImGui@@YA_NPEBDHPEAXHPEBX20H@Z 00000001800e55e0 f   ImGuiDEBUG:imgui_widgets.obj
 0001:000e47b0       ?ColorEdit3@ImGui@@YA_NPEBDQEAMH@Z 00000001800e57b0 f   ImGuiDEBUG:imgui_widgets.obj
 0001:000e47f0       ?ColorEdit4@ImGui@@YA_NPEBDQEAMH@Z 00000001800e57f0 f   ImGuiDEBUG:imgui_widgets.obj
 0001:000e6120       ?ColorPicker3@ImGui@@YA_NPEBDQEAMH@Z 00000001800e7120 f   ImGuiDEBUG:imgui_widgets.obj
 0001:000e6250       ?ColorPicker4@ImGui@@YA_NPEBDQEAMHPEBM@Z 00000001800e7250 f   ImGuiDEBUG:imgui_widgets.obj
 0001:000e8be0       ?ColorButton@ImGui@@YA_NPEBDAEBUImVec4@@HAEBUImVec2@@@Z 00000001800e9be0 f   ImGuiDEBUG:imgui_widgets.obj
 0001:000e93d0       ?SetColorEditOptions@ImGui@@YAXH@Z 00000001800ea3d0 f   ImGuiDEBUG:imgui_widgets.obj
 0001:000e9530       ?TreeNode@ImGui@@YA_NPEBD@Z 00000001800ea530 f   ImGuiDEBUG:imgui_widgets.obj
 0001:000e9590       ?TreeNode@ImGui@@YA_NPEBD0ZZ 00000001800ea590 f   ImGuiDEBUG:imgui_widgets.obj
 0001:000e95f0       ?TreeNode@ImGui@@YA_NPEBXPEBDZZ 00000001800ea5f0 f   ImGuiDEBUG:imgui_widgets.obj
 0001:000e9650       ?TreeNodeV@ImGui@@YA_NPEBD0PEAD@Z 00000001800ea650 f   ImGuiDEBUG:imgui_widgets.obj
 0001:000e9690       ?TreeNodeV@ImGui@@YA_NPEBXPEBDPEAD@Z 00000001800ea690 f   ImGuiDEBUG:imgui_widgets.obj
 0001:000e96d0       ?TreeNodeEx@ImGui@@YA_NPEBDH@Z 00000001800ea6d0 f   ImGuiDEBUG:imgui_widgets.obj
 0001:000e9740       ?TreeNodeEx@ImGui@@YA_NPEBDH0ZZ 00000001800ea740 f   ImGuiDEBUG:imgui_widgets.obj
 0001:000e97a0       ?TreeNodeEx@ImGui@@YA_NPEBXHPEBDZZ 00000001800ea7a0 f   ImGuiDEBUG:imgui_widgets.obj
 0001:000e9800       ?TreeNodeExV@ImGui@@YA_NPEBDH0PEAD@Z 00000001800ea800 f   ImGuiDEBUG:imgui_widgets.obj
 0001:000e9890       ?TreeNodeExV@ImGui@@YA_NPEBXHPEBDPEAD@Z 00000001800ea890 f   ImGuiDEBUG:imgui_widgets.obj
 0001:000e9920       ?TreePush@ImGui@@YAXPEBD@Z 00000001800ea920 f   ImGuiDEBUG:imgui_widgets.obj
 0001:000e9970       ?TreePush@ImGui@@YAXPEBX@Z 00000001800ea970 f   ImGuiDEBUG:imgui_widgets.obj
 0001:000e99c0       ?TreePop@ImGui@@YAXXZ      00000001800ea9c0 f   ImGuiDEBUG:imgui_widgets.obj
 0001:000e9b60       ?GetTreeNodeToLabelSpacing@ImGui@@YAMXZ 00000001800eab60 f   ImGuiDEBUG:imgui_widgets.obj
 0001:000e9bb0       ?CollapsingHeader@ImGui@@YA_NPEBDH@Z 00000001800eabb0 f   ImGuiDEBUG:imgui_widgets.obj
 0001:000e9c20       ?CollapsingHeader@ImGui@@YA_NPEBDPEA_NH@Z 00000001800eac20 f   ImGuiDEBUG:imgui_widgets.obj
 0001:000e9e00       ?SetNextItemOpen@ImGui@@YAX_NH@Z 00000001800eae00 f   ImGuiDEBUG:imgui_widgets.obj
 0001:000e9e90       ?SetNextItemStorageID@ImGui@@YAXI@Z 00000001800eae90 f   ImGuiDEBUG:imgui_widgets.obj
 0001:000e9ef0       ?Selectable@ImGui@@YA_NPEBD_NHAEBUImVec2@@@Z 00000001800eaef0 f   ImGuiDEBUG:imgui_widgets.obj
 0001:000eaa60       ?Selectable@ImGui@@YA_NPEBDPEA_NHAEBUImVec2@@@Z 00000001800eba60 f   ImGuiDEBUG:imgui_widgets.obj
 0001:000eaae0       ?BeginMultiSelect@ImGui@@YAPEAUImGuiMultiSelectIO@@HHH@Z 00000001800ebae0 f   ImGuiDEBUG:imgui_widgets.obj
 0001:000eb150       ?EndMultiSelect@ImGui@@YAPEAUImGuiMultiSelectIO@@XZ 00000001800ec150 f   ImGuiDEBUG:imgui_widgets.obj
 0001:000eb6c0       ?SetNextItemSelectionUserData@ImGui@@YAX_J@Z 00000001800ec6c0 f   ImGuiDEBUG:imgui_widgets.obj
 0001:000eb770       ?BeginListBox@ImGui@@YA_NPEBDAEBUImVec2@@@Z 00000001800ec770 f   ImGuiDEBUG:imgui_widgets.obj
 0001:000ebaa0       ?EndListBox@ImGui@@YAXXZ   00000001800ecaa0 f   ImGuiDEBUG:imgui_widgets.obj
 0001:000ebb10       ?ListBox@ImGui@@YA_NPEBDPEAHQEBQEBDHH@Z 00000001800ecb10 f   ImGuiDEBUG:imgui_widgets.obj
 0001:000ebb70       ?ListBox@ImGui@@YA_NPEBDPEAHP6APEBDPEAXH@Z2HH@Z 00000001800ecb70 f   ImGuiDEBUG:imgui_widgets.obj
 0001:000ebda0       ?PlotLines@ImGui@@YAXPEBDPEBMHH0MMUImVec2@@H@Z 00000001800ecda0 f   ImGuiDEBUG:imgui_widgets.obj
 0001:000ebe50       ?PlotLines@ImGui@@YAXPEBDP6AMPEAXH@Z1HH0MMUImVec2@@@Z 00000001800ece50 f   ImGuiDEBUG:imgui_widgets.obj
 0001:000ebee0       ?PlotHistogram@ImGui@@YAXPEBDPEBMHH0MMUImVec2@@H@Z 00000001800ecee0 f   ImGuiDEBUG:imgui_widgets.obj
 0001:000ebf90       ?PlotHistogram@ImGui@@YAXPEBDP6AMPEAXH@Z1HH0MMUImVec2@@@Z 00000001800ecf90 f   ImGuiDEBUG:imgui_widgets.obj
 0001:000ec020       ?Value@ImGui@@YAXPEBD_N@Z  00000001800ed020 f   ImGuiDEBUG:imgui_widgets.obj
 0001:000ec080       ?Value@ImGui@@YAXPEBDH@Z   00000001800ed080 f   ImGuiDEBUG:imgui_widgets.obj
 0001:000ec0b0       ?Value@ImGui@@YAXPEBDI@Z   00000001800ed0b0 f   ImGuiDEBUG:imgui_widgets.obj
 0001:000ec0e0       ?Value@ImGui@@YAXPEBDM0@Z  00000001800ed0e0 f   ImGuiDEBUG:imgui_widgets.obj
 0001:000ec190       ?BeginMenuBar@ImGui@@YA_NXZ 00000001800ed190 f   ImGuiDEBUG:imgui_widgets.obj
 0001:000ec3b0       ?EndMenuBar@ImGui@@YAXXZ   00000001800ed3b0 f   ImGuiDEBUG:imgui_widgets.obj
 0001:000ec6e0       ?BeginMainMenuBar@ImGui@@YA_NXZ 00000001800ed6e0 f   ImGuiDEBUG:imgui_widgets.obj
 0001:000ec7e0       ?EndMainMenuBar@ImGui@@YAXXZ 00000001800ed7e0 f   ImGuiDEBUG:imgui_widgets.obj
 0001:000ec860       ?BeginMenu@ImGui@@YA_NPEBD_N@Z 00000001800ed860 f   ImGuiDEBUG:imgui_widgets.obj
 0001:000ec890       ?EndMenu@ImGui@@YAXXZ      00000001800ed890 f   ImGuiDEBUG:imgui_widgets.obj
 0001:000ec990       ?MenuItem@ImGui@@YA_NPEBD0_N1@Z 00000001800ed990 f   ImGuiDEBUG:imgui_widgets.obj
 0001:000ec9e0       ?MenuItem@ImGui@@YA_NPEBD0PEA_N_N@Z 00000001800ed9e0 f   ImGuiDEBUG:imgui_widgets.obj
 0001:000eca80       ?BeginTabBar@ImGui@@YA_NPEBDH@Z 00000001800eda80 f   ImGuiDEBUG:imgui_widgets.obj
 0001:000ecc10       ?EndTabBar@ImGui@@YAXXZ    00000001800edc10 f   ImGuiDEBUG:imgui_widgets.obj
 0001:000ece30       ?BeginTabItem@ImGui@@YA_NPEBDPEA_NH@Z 00000001800ede30 f   ImGuiDEBUG:imgui_widgets.obj
 0001:000ecf70       ?EndTabItem@ImGui@@YAXXZ   00000001800edf70 f   ImGuiDEBUG:imgui_widgets.obj
 0001:000ed060       ?TabItemButton@ImGui@@YA_NPEBDH@Z 00000001800ee060 f   ImGuiDEBUG:imgui_widgets.obj
 0001:000ed120       ?SetTabItemClosed@ImGui@@YAXPEBD@Z 00000001800ee120 f   ImGuiDEBUG:imgui_widgets.obj
 0001:000ed270       ??0ImGuiInputTextCallbackData@@QEAA@XZ 00000001800ee270 f   ImGuiDEBUG:imgui_widgets.obj
 0001:000ed2a0       ?DeleteChars@ImGuiInputTextCallbackData@@QEAAXHH@Z 00000001800ee2a0 f   ImGuiDEBUG:imgui_widgets.obj
 0001:000ed3f0       ?InsertChars@ImGuiInputTextCallbackData@@QEAAXHPEBD0@Z 00000001800ee3f0 f   ImGuiDEBUG:imgui_widgets.obj
 0001:000ed8f0       ??0ImGuiSelectionBasicStorage@@QEAA@XZ 00000001800ee8f0 f   ImGuiDEBUG:imgui_widgets.obj
 0001:000ed970       ?ApplyRequests@ImGuiSelectionBasicStorage@@QEAAXPEAUImGuiMultiSelectIO@@@Z 00000001800ee970 f   ImGuiDEBUG:imgui_widgets.obj
 0001:000edce0       ?Contains@ImGuiSelectionBasicStorage@@QEBA_NI@Z 00000001800eece0 f   ImGuiDEBUG:imgui_widgets.obj
 0001:000edd30       ?Clear@ImGuiSelectionBasicStorage@@QEAAXXZ 00000001800eed30 f   ImGuiDEBUG:imgui_widgets.obj
 0001:000edd70       ?Swap@ImGuiSelectionBasicStorage@@QEAAXAEAU1@@Z 00000001800eed70 f   ImGuiDEBUG:imgui_widgets.obj
 0001:000eddd0       ?SetItemSelected@ImGuiSelectionBasicStorage@@QEAAXI_N@Z 00000001800eedd0 f   ImGuiDEBUG:imgui_widgets.obj
 0001:000ede80       ?GetNextSelectedItem@ImGuiSelectionBasicStorage@@QEAA_NPEAPEAXPEAI@Z 00000001800eee80 f   ImGuiDEBUG:imgui_widgets.obj
 0001:000ee040       ??0ImGuiSelectionExternalStorage@@QEAA@XZ 00000001800ef040 f   ImGuiDEBUG:imgui_widgets.obj
 0001:000ee070       ?ApplyRequests@ImGuiSelectionExternalStorage@@QEAAXPEAUImGuiMultiSelectIO@@@Z 00000001800ef070 f   ImGuiDEBUG:imgui_widgets.obj
 0001:000ee1a0       ?Combo@ImGui@@YA_NPEBDPEAHP6A_NPEAXHPEAPEBD@Z2HH@Z 00000001800ef1a0 f   ImGuiDEBUG:imgui_widgets.obj
 0001:000ee210       ?ListBox@ImGui@@YA_NPEBDPEAHP6A_NPEAXHPEAPEBD@Z2HH@Z 00000001800ef210 f   ImGuiDEBUG:imgui_widgets.obj
 0001:000ee3e0       ?ImParseFormatFindStart@@YAPEBDPEBD@Z 00000001800ef3e0 f   ImGuiDEBUG:imgui_widgets.obj
 0001:000ee470       ?ImParseFormatFindEnd@@YAPEBDPEBD@Z 00000001800ef470 f   ImGuiDEBUG:imgui_widgets.obj
 0001:000ee570       ?ImParseFormatTrimDecorations@@YAPEBDPEBDPEAD_K@Z 00000001800ef570 f   ImGuiDEBUG:imgui_widgets.obj
 0001:000ee620       ?ImParseFormatSanitizeForPrinting@@YAXPEBDPEAD_K@Z 00000001800ef620 f   ImGuiDEBUG:imgui_widgets.obj
 0001:000ee6f0       ?ImParseFormatSanitizeForScanning@@YAPEBDPEBDPEAD_K@Z 00000001800ef6f0 f   ImGuiDEBUG:imgui_widgets.obj
 0001:000ee860       ?ImParseFormatPrecision@@YAHPEBDH@Z 00000001800ef860 f   ImGuiDEBUG:imgui_widgets.obj
 0001:000ef2f0       ?Update@ImGuiMenuColumns@@QEAAXM_N@Z 00000001800f02f0 f   ImGuiDEBUG:imgui_widgets.obj
 0001:000ef380       ?DeclColumns@ImGuiMenuColumns@@QEAAMMMMM@Z 00000001800f0380 f   ImGuiDEBUG:imgui_widgets.obj
 0001:000ef4a0       ?CalcNextTotalWidth@ImGuiMenuColumns@@QEAAX_N@Z 00000001800f04a0 f   ImGuiDEBUG:imgui_widgets.obj
 0001:000ef5c0       ?OnKeyPressed@ImGuiInputTextState@@QEAAXH@Z 00000001800f05c0 f   ImGuiDEBUG:imgui_widgets.obj
 0001:000ef650       ??0ImGuiTabBar@@QEAA@XZ    00000001800f0650 f   ImGuiDEBUG:imgui_widgets.obj
 0001:000ef700       ?ShrinkWidths@ImGui@@YAXPEAUImGuiShrinkWidthItem@@HM@Z 00000001800f0700 f   ImGuiDEBUG:imgui_widgets.obj
 0001:000efaa0       ?BeginViewportSideBar@ImGui@@YA_NPEBDPEAUImGuiViewport@@W4ImGuiDir@@MH@Z 00000001800f0aa0 f   ImGuiDEBUG:imgui_widgets.obj
 0001:000efd60       ?BeginMenuEx@ImGui@@YA_NPEBD0_N@Z 00000001800f0d60 f   ImGuiDEBUG:imgui_widgets.obj
 0001:000f0c00       ?MenuItemEx@ImGui@@YA_NPEBD00_N1@Z 00000001800f1c00 f   ImGuiDEBUG:imgui_widgets.obj
 0001:000f1270       ?BeginComboPopup@ImGui@@YA_NIAEBUImRect@@H@Z 00000001800f2270 f   ImGuiDEBUG:imgui_widgets.obj
 0001:000f1650       ?BeginComboPreview@ImGui@@YA_NXZ 00000001800f2650 f   ImGuiDEBUG:imgui_widgets.obj
 0001:000f1820       ?EndComboPreview@ImGui@@YAXXZ 00000001800f2820 f   ImGuiDEBUG:imgui_widgets.obj
 0001:000f19d0       ?GetTypingSelectRequest@ImGui@@YAPEAUImGuiTypingSelectRequest@@H@Z 00000001800f29d0 f   ImGuiDEBUG:imgui_widgets.obj
 0001:000f2070       ?TypingSelectFindMatch@ImGui@@YAHPEAUImGuiTypingSelectRequest@@HP6APEBDPEAXH@Z1H@Z 00000001800f3070 f   ImGuiDEBUG:imgui_widgets.obj
 0001:000f2130       ?TypingSelectFindNextSingleCharMatch@ImGui@@YAHPEAUImGuiTypingSelectRequest@@HP6APEBDPEAXH@Z1H@Z 00000001800f3130 f   ImGuiDEBUG:imgui_widgets.obj
 0001:000f2220       ?TypingSelectFindBestLeadingMatch@ImGui@@YAHPEAUImGuiTypingSelectRequest@@HP6APEBDPEAXH@Z1@Z 00000001800f3220 f   ImGuiDEBUG:imgui_widgets.obj
 0001:000f22e0       ?BeginBoxSelect@ImGui@@YA_NAEBUImRect@@PEAUImGuiWindow@@IH@Z 00000001800f32e0 f   ImGuiDEBUG:imgui_widgets.obj
 0001:000f2570       ?EndBoxSelect@ImGui@@YAXAEBUImRect@@H@Z 00000001800f3570 f   ImGuiDEBUG:imgui_widgets.obj
 0001:000f27b0       ?MultiSelectItemHeader@ImGui@@YAXIPEA_NPEAH@Z 00000001800f37b0 f   ImGuiDEBUG:imgui_widgets.obj
 0001:000f2ae0       ?MultiSelectItemFooter@ImGui@@YAXIPEA_N0@Z 00000001800f3ae0 f   ImGuiDEBUG:imgui_widgets.obj
 0001:000f3410       ?MultiSelectAddSetAll@ImGui@@YAXPEAUImGuiMultiSelectTempData@@_N@Z 00000001800f4410 f   ImGuiDEBUG:imgui_widgets.obj
 0001:000f3490       ?MultiSelectAddSetRange@ImGui@@YAXPEAUImGuiMultiSelectTempData@@_NH_J2@Z 00000001800f4490 f   ImGuiDEBUG:imgui_widgets.obj
 0001:000f35f0       ?BeginTabBarEx@ImGui@@YA_NPEAUImGuiTabBar@@AEBUImRect@@H@Z 00000001800f45f0 f   ImGuiDEBUG:imgui_widgets.obj
 0001:000f3a30       ?TabBarFindTabByID@ImGui@@YAPEAUImGuiTabItem@@PEAUImGuiTabBar@@I@Z 00000001800f4a30 f   ImGuiDEBUG:imgui_widgets.obj
 0001:000f3aa0       ?TabBarFindTabByOrder@ImGui@@YAPEAUImGuiTabItem@@PEAUImGuiTabBar@@H@Z 00000001800f4aa0 f   ImGuiDEBUG:imgui_widgets.obj
 0001:000f3af0       ?TabBarFindMostRecentlySelectedTabForActiveWindow@ImGui@@YAPEAUImGuiTabItem@@PEAUImGuiTabBar@@@Z 00000001800f4af0 f   ImGuiDEBUG:imgui_widgets.obj
 0001:000f3b90       ?TabBarGetCurrentTab@ImGui@@YAPEAUImGuiTabItem@@PEAUImGuiTabBar@@@Z 00000001800f4b90 f   ImGuiDEBUG:imgui_widgets.obj
 0001:000f3be0       ?TabBarGetTabName@ImGui@@YAPEBDPEAUImGuiTabBar@@PEAUImGuiTabItem@@@Z 00000001800f4be0 f   ImGuiDEBUG:imgui_widgets.obj
 0001:000f3c70       ?TabBarAddTab@ImGui@@YAXPEAUImGuiTabBar@@HPEAUImGuiWindow@@@Z 00000001800f4c70 f   ImGuiDEBUG:imgui_widgets.obj
 0001:000f3d90       ?TabBarRemoveTab@ImGui@@YAXPEAUImGuiTabBar@@I@Z 00000001800f4d90 f   ImGuiDEBUG:imgui_widgets.obj
 0001:000f3e30       ?TabBarCloseTab@ImGui@@YAXPEAUImGuiTabBar@@PEAUImGuiTabItem@@@Z 00000001800f4e30 f   ImGuiDEBUG:imgui_widgets.obj
 0001:000f3ed0       ?TabBarQueueFocus@ImGui@@YAXPEAUImGuiTabBar@@PEAUImGuiTabItem@@@Z 00000001800f4ed0 f   ImGuiDEBUG:imgui_widgets.obj
 0001:000f3ef0       ?TabBarQueueReorder@ImGui@@YAXPEAUImGuiTabBar@@PEAUImGuiTabItem@@H@Z 00000001800f4ef0 f   ImGuiDEBUG:imgui_widgets.obj
 0001:000f3f80       ?TabBarQueueReorderFromMousePos@ImGui@@YAXPEAUImGuiTabBar@@PEAUImGuiTabItem@@UImVec2@@@Z 00000001800f4f80 f   ImGuiDEBUG:imgui_widgets.obj
 0001:000f41d0       ?TabBarProcessReorder@ImGui@@YA_NPEAUImGuiTabBar@@@Z 00000001800f51d0 f   ImGuiDEBUG:imgui_widgets.obj
 0001:000f43d0       ?TabItemEx@ImGui@@YA_NPEAUImGuiTabBar@@PEBDPEA_NHPEAUImGuiWindow@@@Z 00000001800f53d0 f   ImGuiDEBUG:imgui_widgets.obj
 0001:000f5a20       ?TabItemCalcSize@ImGui@@YA?AUImVec2@@PEBD_N@Z 00000001800f6a20 f   ImGuiDEBUG:imgui_widgets.obj
 0001:000f5b50       ?TabItemCalcSize@ImGui@@YA?AUImVec2@@PEAUImGuiWindow@@@Z 00000001800f6b50 f   ImGuiDEBUG:imgui_widgets.obj
 0001:000f5bc0       ?TabItemBackground@ImGui@@YAXPEAUImDrawList@@AEBUImRect@@HI@Z 00000001800f6bc0 f   ImGuiDEBUG:imgui_widgets.obj
 0001:000f5f70       ?TabItemLabelAndCloseButton@ImGui@@YAXPEAUImDrawList@@AEBUImRect@@HUImVec2@@PEBDII_NPEA_N5@Z 00000001800f6f70 f   ImGuiDEBUG:imgui_widgets.obj
 0001:000f64e0       ?TextEx@ImGui@@YAXPEBD0H@Z 00000001800f74e0 f   ImGuiDEBUG:imgui_widgets.obj
 0001:000f6bd0       ?ButtonEx@ImGui@@YA_NPEBDAEBUImVec2@@H@Z 00000001800f7bd0 f   ImGuiDEBUG:imgui_widgets.obj
 0001:000f6f30       ?ArrowButtonEx@ImGui@@YA_NPEBDW4ImGuiDir@@UImVec2@@H@Z 00000001800f7f30 f   ImGuiDEBUG:imgui_widgets.obj
 0001:000f71e0       ?ImageButtonEx@ImGui@@YA_NIPEAXAEBUImVec2@@11AEBUImVec4@@2H@Z 00000001800f81e0 f   ImGuiDEBUG:imgui_widgets.obj
 0001:000f7510       ?SeparatorEx@ImGui@@YAXHM@Z 00000001800f8510 f   ImGuiDEBUG:imgui_widgets.obj
 0001:000f7950       ?SeparatorTextEx@ImGui@@YAXIPEBD0M@Z 00000001800f8950 f   ImGuiDEBUG:imgui_widgets.obj
 0001:000f7f20       ?CheckboxFlags@ImGui@@YA_NPEBDPEA_J_J@Z 00000001800f8f20 f   ImGuiDEBUG:imgui_widgets.obj
 0001:000f7f60       ?CheckboxFlags@ImGui@@YA_NPEBDPEA_K_K@Z 00000001800f8f60 f   ImGuiDEBUG:imgui_widgets.obj
 0001:000f7fa0       ?CloseButton@ImGui@@YA_NIAEBUImVec2@@@Z 00000001800f8fa0 f   ImGuiDEBUG:imgui_widgets.obj
 0001:000f83d0       ?CollapseButton@ImGui@@YA_NIAEBUImVec2@@PEAUImGuiDockNode@@@Z 00000001800f93d0 f   ImGuiDEBUG:imgui_widgets.obj
 0001:000f8660       ?Scrollbar@ImGui@@YAXW4ImGuiAxis@@@Z 00000001800f9660 f   ImGuiDEBUG:imgui_widgets.obj
 0001:000f88b0       ?ScrollbarEx@ImGui@@YA_NAEBUImRect@@IW4ImGuiAxis@@PEA_J_J3H@Z 00000001800f98b0 f   ImGuiDEBUG:imgui_widgets.obj
 0001:000f91f0       ?GetWindowScrollbarRect@ImGui@@YA?AUImRect@@PEAUImGuiWindow@@W4ImGuiAxis@@@Z 00000001800fa1f0 f   ImGuiDEBUG:imgui_widgets.obj
 0001:000f93b0       ?GetWindowScrollbarID@ImGui@@YAIPEAUImGuiWindow@@W4ImGuiAxis@@@Z 00000001800fa3b0 f   ImGuiDEBUG:imgui_widgets.obj
 0001:000f9400       ?ButtonBehavior@ImGui@@YA_NAEBUImRect@@IPEA_N1H@Z 00000001800fa400 f   ImGuiDEBUG:imgui_widgets.obj
 0001:000f9fd0       ?DragBehavior@ImGui@@YA_NIHPEAXMPEBX1PEBDH@Z 00000001800fafd0 f   ImGuiDEBUG:imgui_widgets.obj
 0001:000fa860       ?SliderBehavior@ImGui@@YA_NAEBUImRect@@IHPEAXPEBX2PEBDHPEAU2@@Z 00000001800fb860 f   ImGuiDEBUG:imgui_widgets.obj
 0001:000fafd0       ?SplitterBehavior@ImGui@@YA_NAEBUImRect@@IW4ImGuiAxis@@PEAM2MMMMI@Z 00000001800fbfd0 f   ImGuiDEBUG:imgui_widgets.obj
 0001:000fb470       ?TreeNodeBehavior@ImGui@@YA_NIHPEBD0@Z 00000001800fc470 f   ImGuiDEBUG:imgui_widgets.obj
 0001:000fc7b0       ?TreePushOverrideID@ImGui@@YAXI@Z 00000001800fd7b0 f   ImGuiDEBUG:imgui_widgets.obj
 0001:000fc810       ?TreeNodeGetOpen@ImGui@@YA_NI@Z 00000001800fd810 f   ImGuiDEBUG:imgui_widgets.obj
 0001:000fc880       ?TreeNodeSetOpen@ImGui@@YAXI_N@Z 00000001800fd880 f   ImGuiDEBUG:imgui_widgets.obj
 0001:000fc8f0       ?TreeNodeUpdateNextOpen@ImGui@@YA_NIH@Z 00000001800fd8f0 f   ImGuiDEBUG:imgui_widgets.obj
 0001:000fca90       ?DataTypeGetInfo@ImGui@@YAPEBUImGuiDataTypeInfo@@H@Z 00000001800fda90 f   ImGuiDEBUG:imgui_widgets.obj
 0001:000fcaf0       ?DataTypeFormatString@ImGui@@YAHPEADHHPEBXPEBD@Z 00000001800fdaf0 f   ImGuiDEBUG:imgui_widgets.obj
 0001:000fccb0       ?DataTypeApplyOp@ImGui@@YAXHHPEAXPEBX1@Z 00000001800fdcb0 f   ImGuiDEBUG:imgui_widgets.obj
 0001:000fd100       ?DataTypeApplyFromText@ImGui@@YA_NPEBDHPEAX01@Z 00000001800fe100 f   ImGuiDEBUG:imgui_widgets.obj
 0001:000fd3c0       ?DataTypeCompare@ImGui@@YAHHPEBX0@Z 00000001800fe3c0 f   ImGuiDEBUG:imgui_widgets.obj
 0001:000fd510       ?DataTypeClamp@ImGui@@YA_NHPEAXPEBX1@Z 00000001800fe510 f   ImGuiDEBUG:imgui_widgets.obj
 0001:000fd6a0       ?InputTextEx@ImGui@@YA_NPEBD0PEADHAEBUImVec2@@HP6AHPEAUImGuiInputTextCallbackData@@@ZPEAX@Z 00000001800fe6a0 f   ImGuiDEBUG:imgui_widgets.obj
 0001:00102340       ?InputTextDeactivateHook@ImGui@@YAXI@Z 0000000180103340 f   ImGuiDEBUG:imgui_widgets.obj
 0001:00102440       ?TempInputText@ImGui@@YA_NAEBUImRect@@IPEBDPEADHH@Z 0000000180103440 f   ImGuiDEBUG:imgui_widgets.obj
 0001:00102570       ?TempInputScalar@ImGui@@YA_NAEBUImRect@@IPEBDHPEAX1PEBX3@Z 0000000180103570 f   ImGuiDEBUG:imgui_widgets.obj
 0001:001027c0       ?SetNextItemRefVal@ImGui@@YAXHPEAX@Z 00000001801037c0 f   ImGuiDEBUG:imgui_widgets.obj
 0001:00102830       ?ColorTooltip@ImGui@@YAXPEBDPEBMH@Z 0000000180103830 f   ImGuiDEBUG:imgui_widgets.obj
 0001:00102df0       ?ColorEditOptionsPopup@ImGui@@YAXPEBMH@Z 0000000180103df0 f   ImGuiDEBUG:imgui_widgets.obj
 0001:00103440       ?ColorPickerOptionsPopup@ImGui@@YAXPEBMH@Z 0000000180104440 f   ImGuiDEBUG:imgui_widgets.obj
 0001:00103730       ?PlotEx@ImGui@@YAHW4ImGuiPlotType@@PEBDP6AMPEAXH@Z2HH1MMAEBUImVec2@@@Z 0000000180104730 f   ImGuiDEBUG:imgui_widgets.obj
 0001:00104380       ?DebugNodeInputTextState@ImGui@@YAXPEAUImGuiInputTextState@@@Z 0000000180105380 f   ImGuiDEBUG:imgui_widgets.obj
 0001:001046c0       ?DebugNodeTypingSelectState@ImGui@@YAXPEAUImGuiTypingSelectState@@@Z 00000001801056c0 f   ImGuiDEBUG:imgui_widgets.obj
 0001:00104750       ?DebugNodeMultiSelectState@ImGui@@YAXPEAUImGuiMultiSelectState@@@Z 0000000180105750 f   ImGuiDEBUG:imgui_widgets.obj
 0001:001194e0       ??$CheckboxFlagsT@H@ImGui@@YA_NPEBDPEAHH@Z 000000018011a4e0 f i ImGuiDEBUG:imgui_widgets.obj
 0001:00119640       ??$CheckboxFlagsT@I@ImGui@@YA_NPEBDPEAII@Z 000000018011a640 f i ImGuiDEBUG:imgui_widgets.obj
 0001:001197a0       ??$CheckboxFlagsT@_J@ImGui@@YA_NPEBDPEA_J_J@Z 000000018011a7a0 f i ImGuiDEBUG:imgui_widgets.obj
 0001:00119920       ??$CheckboxFlagsT@_K@ImGui@@YA_NPEBDPEA_K_K@Z 000000018011a920 f i ImGuiDEBUG:imgui_widgets.obj
 0001:00119aa0       ??$DragBehaviorT@HHM@ImGui@@YA_NHPEAHMHHPEBDH@Z 000000018011aaa0 f i ImGuiDEBUG:imgui_widgets.obj
 0001:0011a5f0       ??$DragBehaviorT@IHM@ImGui@@YA_NHPEAIMIIPEBDH@Z 000000018011b5f0 f i ImGuiDEBUG:imgui_widgets.obj
 0001:0011b150       ??$DragBehaviorT@MMM@ImGui@@YA_NHPEAMMMMPEBDH@Z 000000018011c150 f i ImGuiDEBUG:imgui_widgets.obj
 0001:0011bd10       ??$DragBehaviorT@NNN@ImGui@@YA_NHPEANMNNPEBDH@Z 000000018011cd10 f i ImGuiDEBUG:imgui_widgets.obj
 0001:0011c900       ??$DragBehaviorT@_J_JN@ImGui@@YA_NHPEA_JM_J1PEBDH@Z 000000018011d900 f i ImGuiDEBUG:imgui_widgets.obj
 0001:0011d4d0       ??$DragBehaviorT@_K_JN@ImGui@@YA_NHPEA_KM_K1PEBDH@Z 000000018011e4d0 f i ImGuiDEBUG:imgui_widgets.obj
 0001:0011e180       ??$RoundScalarWithFormatT@H@ImGui@@YAHPEBDHH@Z 000000018011f180 f i ImGuiDEBUG:imgui_widgets.obj
 0001:0011e310       ??$RoundScalarWithFormatT@I@ImGui@@YAIPEBDHI@Z 000000018011f310 f i ImGuiDEBUG:imgui_widgets.obj
 0001:0011e4a0       ??$RoundScalarWithFormatT@M@ImGui@@YAMPEBDHM@Z 000000018011f4a0 f i ImGuiDEBUG:imgui_widgets.obj
 0001:0011e640       ??$RoundScalarWithFormatT@N@ImGui@@YANPEBDHN@Z 000000018011f640 f i ImGuiDEBUG:imgui_widgets.obj
 0001:0011e7d0       ??$RoundScalarWithFormatT@_J@ImGui@@YA_JPEBDH_J@Z 000000018011f7d0 f i ImGuiDEBUG:imgui_widgets.obj
 0001:0011e960       ??$RoundScalarWithFormatT@_K@ImGui@@YA_KPEBDH_K@Z 000000018011f960 f i ImGuiDEBUG:imgui_widgets.obj
 0001:0011eb30       ??$ScaleRatioFromValueT@HHM@ImGui@@YAMHHHH_NMM@Z 000000018011fb30 f i ImGuiDEBUG:imgui_widgets.obj
 0001:0011f1d0       ??$ScaleRatioFromValueT@IHM@ImGui@@YAMHIII_NMM@Z 00000001801201d0 f i ImGuiDEBUG:imgui_widgets.obj
 0001:0011f8d0       ??$ScaleRatioFromValueT@MMM@ImGui@@YAMHMMM_NMM@Z 00000001801208d0 f i ImGuiDEBUG:imgui_widgets.obj
 0001:0011ff60       ??$ScaleRatioFromValueT@NNN@ImGui@@YAMHNNN_NMM@Z 0000000180120f60 f i ImGuiDEBUG:imgui_widgets.obj
 0001:00120670       ??$ScaleRatioFromValueT@_J_JN@ImGui@@YAMH_J00_NMM@Z 0000000180121670 f i ImGuiDEBUG:imgui_widgets.obj
 0001:00120db0       ??$ScaleRatioFromValueT@_K_JN@ImGui@@YAMH_K00_NMM@Z 0000000180121db0 f i ImGuiDEBUG:imgui_widgets.obj
 0001:00121920       ??$ScaleValueFromRatioT@HHM@ImGui@@YAHHMHH_NMM@Z 0000000180122920 f i ImGuiDEBUG:imgui_widgets.obj
 0001:00121ff0       ??$ScaleValueFromRatioT@IHM@ImGui@@YAIHMII_NMM@Z 0000000180122ff0 f i ImGuiDEBUG:imgui_widgets.obj
 0001:001226f0       ??$ScaleValueFromRatioT@MMM@ImGui@@YAMHMMM_NMM@Z 00000001801236f0 f i ImGuiDEBUG:imgui_widgets.obj
 0001:00122db0       ??$ScaleValueFromRatioT@NNN@ImGui@@YANHMNN_NMM@Z 0000000180123db0 f i ImGuiDEBUG:imgui_widgets.obj
 0001:001234e0       ??$ScaleValueFromRatioT@_J_JN@ImGui@@YA_JHM_J0_NMM@Z 00000001801244e0 f i ImGuiDEBUG:imgui_widgets.obj
 0001:00123c40       ??$ScaleValueFromRatioT@_K_JN@ImGui@@YA_KHM_K0_NMM@Z 0000000180124c40 f i ImGuiDEBUG:imgui_widgets.obj
 0001:00124700       ??$SliderBehaviorT@HHM@ImGui@@YA_NAEBUImRect@@IHPEAHHHPEBDHPEAU1@@Z 0000000180125700 f i ImGuiDEBUG:imgui_widgets.obj
 0001:00125840       ??$SliderBehaviorT@IHM@ImGui@@YA_NAEBUImRect@@IHPEAIIIPEBDHPEAU1@@Z 0000000180126840 f i ImGuiDEBUG:imgui_widgets.obj
 0001:00126980       ??$SliderBehaviorT@MMM@ImGui@@YA_NAEBUImRect@@IHPEAMMMPEBDHPEAU1@@Z 0000000180127980 f i ImGuiDEBUG:imgui_widgets.obj
 0001:00127af0       ??$SliderBehaviorT@NNN@ImGui@@YA_NAEBUImRect@@IHPEANNNPEBDHPEAU1@@Z 0000000180128af0 f i ImGuiDEBUG:imgui_widgets.obj
 0001:00128c60       ??$SliderBehaviorT@_J_JN@ImGui@@YA_NAEBUImRect@@IHPEA_J_J2PEBDHPEAU1@@Z 0000000180129c60 f i ImGuiDEBUG:imgui_widgets.obj
 0001:00129db0       ??$SliderBehaviorT@_K_JN@ImGui@@YA_NAEBUImRect@@IHPEA_K_K2PEBDHPEAU1@@Z 000000018012adb0 f i ImGuiDEBUG:imgui_widgets.obj
 0001:0012af30       ??0?$ImVector@UImGuiSelectionRequest@@@@QEAA@XZ 000000018012bf30 f i ImGuiDEBUG:imgui_widgets.obj
 0001:0012af70       ??0?$ImVector@UImGuiTabItem@@@@QEAA@XZ 000000018012bf70 f i ImGuiDEBUG:imgui_widgets.obj
 0001:0012afb0       ??0ImGuiMultiSelectIO@@QEAA@XZ 000000018012bfb0 f i ImGuiDEBUG:imgui_widgets.obj
 0001:0012afe0       ??0ImGuiMultiSelectState@@QEAA@XZ 000000018012bfe0 f i ImGuiDEBUG:imgui_widgets.obj
 0001:0012b060       ??0ImGuiMultiSelectTempData@@QEAA@XZ 000000018012c060 f i ImGuiDEBUG:imgui_widgets.obj
 0001:0012b0c0       ??0ImGuiPlotArrayGetterData@@QEAA@PEBMH@Z 000000018012c0c0 f i ImGuiDEBUG:imgui_widgets.obj
 0001:0012b100       ??0ImGuiPtrOrIndex@@QEAA@H@Z 000000018012c100 f i ImGuiDEBUG:imgui_widgets.obj
 0001:0012b130       ??0ImGuiPtrOrIndex@@QEAA@PEAX@Z 000000018012c130 f i ImGuiDEBUG:imgui_widgets.obj
 0001:0012b170       ??0ImGuiTabBarSection@@QEAA@XZ 000000018012c170 f i ImGuiDEBUG:imgui_widgets.obj
 0001:0012b1a0       ??0ImGuiTabItem@@QEAA@XZ   000000018012c1a0 f i ImGuiDEBUG:imgui_widgets.obj
 0001:0012b230       ??A?$ImVector@G@@QEBAAEBGH@Z 000000018012c230 f i ImGuiDEBUG:imgui_widgets.obj
 0001:0012b2a0       ??A?$ImVector@M@@QEBAAEBMH@Z 000000018012c2a0 f i ImGuiDEBUG:imgui_widgets.obj
 0001:0012b310       ??A?$ImVector@UImGuiMultiSelectTempData@@@@QEAAAEAUImGuiMultiSelectTempData@@H@Z 000000018012c310 f i ImGuiDEBUG:imgui_widgets.obj
 0001:0012b380       ??A?$ImVector@UImGuiShrinkWidthItem@@@@QEAAAEAUImGuiShrinkWidthItem@@H@Z 000000018012c380 f i ImGuiDEBUG:imgui_widgets.obj
 0001:0012b3f0       ?Add@?$ImPool@UImGuiMultiSelectState@@@@QEAAPEAUImGuiMultiSelectState@@XZ 000000018012c3f0 f i ImGuiDEBUG:imgui_widgets.obj
 0001:0012b500       ?Add@?$ImPool@UImGuiTabBar@@@@QEAAPEAUImGuiTabBar@@XZ 000000018012c500 f i ImGuiDEBUG:imgui_widgets.obj
 0001:0012b610       ?Clear@ImGuiMultiSelectTempData@@QEAAXXZ 000000018012c610 f i ImGuiDEBUG:imgui_widgets.obj
 0001:0012b670       ?Clear@ImGuiTypingSelectState@@QEAAXXZ 000000018012c670 f i ImGuiDEBUG:imgui_widgets.obj
 0001:0012b6a0       ?ClearFlags@ImGuiNextItemData@@QEAAXXZ 000000018012c6a0 f i ImGuiDEBUG:imgui_widgets.obj
 0001:0012b6d0       ?ClearIO@ImGuiMultiSelectTempData@@QEAAXXZ 000000018012c6d0 f i ImGuiDEBUG:imgui_widgets.obj
 0001:0012b730       ?ClearSelection@ImGuiInputTextState@@QEAAXXZ 000000018012c730 f i ImGuiDEBUG:imgui_widgets.obj
 0001:0012b760       ?Contains@?$ImPool@UImGuiTabBar@@@@QEBA_NPEBUImGuiTabBar@@@Z 000000018012c760 f i ImGuiDEBUG:imgui_widgets.obj
 0001:0012b7d0       ?CursorAnimReset@ImGuiInputTextState@@QEAAXXZ 000000018012c7d0 f i ImGuiDEBUG:imgui_widgets.obj
 0001:0012b800       ?CursorClamp@ImGuiInputTextState@@QEAAXXZ 000000018012c800 f i ImGuiDEBUG:imgui_widgets.obj
 0001:0012b880       ?GetArea@ImRect@@QEBAMXZ   000000018012c880 f i ImGuiDEBUG:imgui_widgets.obj
 0001:0012b8c0       ?GetBoxSelectState@ImGui@@YAPEAUImGuiBoxSelectState@@I@Z 000000018012c8c0 f i ImGuiDEBUG:imgui_widgets.obj
 0001:0012b940       ?GetBuildWorkRect@ImGuiViewportP@@QEBA?AUImRect@@XZ 000000018012c940 f i ImGuiDEBUG:imgui_widgets.obj
 0001:0012ba00       ?GetCharAdvance@ImFont@@QEBAMG@Z 000000018012ca00 f i ImGuiDEBUG:imgui_widgets.obj
 0001:0012ba70       ?GetIndex@?$ImPool@UImGuiTabBar@@@@QEBAHPEBUImGuiTabBar@@@Z 000000018012ca70 f i ImGuiDEBUG:imgui_widgets.obj
 0001:0012bb10       ?GetInputTextState@ImGui@@YAPEAUImGuiInputTextState@@I@Z 000000018012cb10 f i ImGuiDEBUG:imgui_widgets.obj
 0001:0012bb80       ?GetOrAddByKey@?$ImPool@UImGuiMultiSelectState@@@@QEAAPEAUImGuiMultiSelectState@@I@Z 000000018012cb80 f i ImGuiDEBUG:imgui_widgets.obj
 0001:0012bc10       ?GetOrAddByKey@?$ImPool@UImGuiTabBar@@@@QEAAPEAUImGuiTabBar@@I@Z 000000018012cc10 f i ImGuiDEBUG:imgui_widgets.obj
 0001:0012bca0       ?GetStorageIdFromIndex@ImGuiSelectionBasicStorage@@QEAAIH@Z 000000018012cca0 f i ImGuiDEBUG:imgui_widgets.obj
 0001:0012bcd0       ?GetTL@ImRect@@QEBA?AUImVec2@@XZ 000000018012ccd0 f i ImGuiDEBUG:imgui_widgets.obj
 0001:0012bd00       ?GetTR@ImRect@@QEBA?AUImVec2@@XZ 000000018012cd00 f i ImGuiDEBUG:imgui_widgets.obj
 0001:0012bd50       ?HasSelection@ImGuiInputTextState@@QEBA_NXZ 000000018012cd50 f i ImGuiDEBUG:imgui_widgets.obj
 0001:0012bda0       ?IncludeItemByIndex@ImGuiListClipper@@QEAAXH@Z 000000018012cda0 f i ImGuiDEBUG:imgui_widgets.obj
 0001:0012bde0       ?ItemSize@ImGui@@YAXAEBUImRect@@M@Z 000000018012cde0 f i ImGuiDEBUG:imgui_widgets.obj
 0001:0012be20       ?PrimVtx@ImDrawList@@QEAAXAEBUImVec2@@0I@Z 000000018012ce20 f i ImGuiDEBUG:imgui_widgets.obj
 0001:0012be80       ?PrimWriteIdx@ImDrawList@@QEAAXG@Z 000000018012ce80 f i ImGuiDEBUG:imgui_widgets.obj
 0001:0012bec0       ?PrimWriteVtx@ImDrawList@@QEAAXAEBUImVec2@@0I@Z 000000018012cec0 f i ImGuiDEBUG:imgui_widgets.obj
 0001:0012bf60       ?SelectAll@ImGuiInputTextState@@QEAAXXZ 000000018012cf60 f i ImGuiDEBUG:imgui_widgets.obj
 0001:0012bfb0       ?TempInputIsActive@ImGui@@YA_NI@Z 000000018012cfb0 f i ImGuiDEBUG:imgui_widgets.obj
 0001:0012c020       ?WindowPosAbsToRel@ImGui@@YA?AUImVec2@@PEAUImGuiWindow@@AEBU2@@Z 000000018012d020 f i ImGuiDEBUG:imgui_widgets.obj
 0001:0012c090       ?WindowPosRelToAbs@ImGui@@YA?AUImVec2@@PEAUImGuiWindow@@AEBU2@@Z 000000018012d090 f i ImGuiDEBUG:imgui_widgets.obj
 0001:0012c100       ?_grow_capacity@?$ImVector@UImGuiMultiSelectState@@@@QEBAHH@Z 000000018012d100 f i ImGuiDEBUG:imgui_widgets.obj
 0001:0012c180       ?_grow_capacity@?$ImVector@UImGuiMultiSelectTempData@@@@QEBAHH@Z 000000018012d180 f i ImGuiDEBUG:imgui_widgets.obj
 0001:0012c200       ?_grow_capacity@?$ImVector@UImGuiPtrOrIndex@@@@QEBAHH@Z 000000018012d200 f i ImGuiDEBUG:imgui_widgets.obj
 0001:0012c280       ?_grow_capacity@?$ImVector@UImGuiSelectionRequest@@@@QEBAHH@Z 000000018012d280 f i ImGuiDEBUG:imgui_widgets.obj
 0001:0012c300       ?_grow_capacity@?$ImVector@UImGuiShrinkWidthItem@@@@QEBAHH@Z 000000018012d300 f i ImGuiDEBUG:imgui_widgets.obj
 0001:0012c380       ?_grow_capacity@?$ImVector@UImGuiTabBar@@@@QEBAHH@Z 000000018012d380 f i ImGuiDEBUG:imgui_widgets.obj
 0001:0012c400       ?_grow_capacity@?$ImVector@UImGuiTabItem@@@@QEBAHH@Z 000000018012d400 f i ImGuiDEBUG:imgui_widgets.obj
 0001:0012c480       ?_grow_capacity@?$ImVector@UImGuiTreeNodeStackData@@@@QEBAHH@Z 000000018012d480 f i ImGuiDEBUG:imgui_widgets.obj
 0001:0012c500       ?back@?$ImVector@UImGuiPtrOrIndex@@@@QEAAAEAUImGuiPtrOrIndex@@XZ 000000018012d500 f i ImGuiDEBUG:imgui_widgets.obj
 0001:0012c560       ?back@?$ImVector@UImGuiTreeNodeStackData@@@@QEAAAEAUImGuiTreeNodeStackData@@XZ 000000018012d560 f i ImGuiDEBUG:imgui_widgets.obj
 0001:0012c5c0       ?begin@?$ImVector@G@@QEAAPEAGXZ 000000018012d5c0 f i ImGuiDEBUG:imgui_widgets.obj
 0001:0012c5e0       ?begin@?$ImVector@UImGuiSelectionRequest@@@@QEAAPEAUImGuiSelectionRequest@@XZ 000000018012d5e0 f i ImGuiDEBUG:imgui_widgets.obj
 0001:0012c600       ?begin@?$ImVector@UImGuiSelectionRequest@@@@QEBAPEBUImGuiSelectionRequest@@XZ 000000018012d600 f i ImGuiDEBUG:imgui_widgets.obj
 0001:0012c620       ?empty@?$ImVector@G@@QEBA_NXZ 000000018012d620 f i ImGuiDEBUG:imgui_widgets.obj
 0001:0012c660       ?empty@?$ImVector@M@@QEBA_NXZ 000000018012d660 f i ImGuiDEBUG:imgui_widgets.obj
 0001:0012c6a0       ?empty@?$ImVector@UImFontGlyph@@@@QEBA_NXZ 000000018012d6a0 f i ImGuiDEBUG:imgui_widgets.obj
 0001:0012c6e0       ?empty@?$ImVector@UImGuiPtrOrIndex@@@@QEBA_NXZ 000000018012d6e0 f i ImGuiDEBUG:imgui_widgets.obj
 0001:0012c720       ?end@?$ImVector@G@@QEAAPEAGXZ 000000018012d720 f i ImGuiDEBUG:imgui_widgets.obj
 0001:0012c750       ?end@?$ImVector@UImGuiSelectionRequest@@@@QEAAPEAUImGuiSelectionRequest@@XZ 000000018012d750 f i ImGuiDEBUG:imgui_widgets.obj
 0001:0012c780       ?end@?$ImVector@UImGuiSelectionRequest@@@@QEBAPEBUImGuiSelectionRequest@@XZ 000000018012d780 f i ImGuiDEBUG:imgui_widgets.obj
 0001:0012c7b0       ?erase@?$ImVector@UImGuiTabItem@@@@QEAAPEAUImGuiTabItem@@PEBU2@@Z 000000018012d7b0 f i ImGuiDEBUG:imgui_widgets.obj
 0001:0012c8e0       ?pop_back@?$ImVector@UImGuiPtrOrIndex@@@@QEAAXXZ 000000018012d8e0 f i ImGuiDEBUG:imgui_widgets.obj
 0001:0012c940       ?pop_back@?$ImVector@UImGuiTreeNodeStackData@@@@QEAAXXZ 000000018012d940 f i ImGuiDEBUG:imgui_widgets.obj
 0001:0012c9a0       ?push_back@?$ImVector@UImGuiPtrOrIndex@@@@QEAAXAEBUImGuiPtrOrIndex@@@Z 000000018012d9a0 f i ImGuiDEBUG:imgui_widgets.obj
 0001:0012ca40       ?push_back@?$ImVector@UImGuiSelectionRequest@@@@QEAAXAEBUImGuiSelectionRequest@@@Z 000000018012da40 f i ImGuiDEBUG:imgui_widgets.obj
 0001:0012cae0       ?push_back@?$ImVector@UImGuiStoragePair@@@@QEAAXAEBUImGuiStoragePair@@@Z 000000018012dae0 f i ImGuiDEBUG:imgui_widgets.obj
 0001:0012cb80       ?push_back@?$ImVector@UImGuiTabItem@@@@QEAAXAEBUImGuiTabItem@@@Z 000000018012db80 f i ImGuiDEBUG:imgui_widgets.obj
 0001:0012cc20       ?reserve@?$ImVector@UImGuiMultiSelectState@@@@QEAAXH@Z 000000018012dc20 f i ImGuiDEBUG:imgui_widgets.obj
 0001:0012cce0       ?reserve@?$ImVector@UImGuiMultiSelectTempData@@@@QEAAXH@Z 000000018012dce0 f i ImGuiDEBUG:imgui_widgets.obj
 0001:0012cda0       ?reserve@?$ImVector@UImGuiPtrOrIndex@@@@QEAAXH@Z 000000018012dda0 f i ImGuiDEBUG:imgui_widgets.obj
 0001:0012ce60       ?reserve@?$ImVector@UImGuiSelectionRequest@@@@QEAAXH@Z 000000018012de60 f i ImGuiDEBUG:imgui_widgets.obj
 0001:0012cf20       ?reserve@?$ImVector@UImGuiShrinkWidthItem@@@@QEAAXH@Z 000000018012df20 f i ImGuiDEBUG:imgui_widgets.obj
 0001:0012cfe0       ?reserve@?$ImVector@UImGuiTabBar@@@@QEAAXH@Z 000000018012dfe0 f i ImGuiDEBUG:imgui_widgets.obj
 0001:0012d0a0       ?reserve@?$ImVector@UImGuiTabItem@@@@QEAAXH@Z 000000018012e0a0 f i ImGuiDEBUG:imgui_widgets.obj
 0001:0012d160       ?reserve@?$ImVector@UImGuiTreeNodeStackData@@@@QEAAXH@Z 000000018012e160 f i ImGuiDEBUG:imgui_widgets.obj
 0001:0012d220       ?reserve_discard@?$ImVector@D@@QEAAXH@Z 000000018012e220 f i ImGuiDEBUG:imgui_widgets.obj
 0001:0012d2a0       ?resize@?$ImVector@UImGuiMultiSelectState@@@@QEAAXH@Z 000000018012e2a0 f i ImGuiDEBUG:imgui_widgets.obj
 0001:0012d300       ?resize@?$ImVector@UImGuiMultiSelectTempData@@@@QEAAXHAEBUImGuiMultiSelectTempData@@@Z 000000018012e300 f i ImGuiDEBUG:imgui_widgets.obj
 0001:0012d3d0       ?resize@?$ImVector@UImGuiSelectionRequest@@@@QEAAXH@Z 000000018012e3d0 f i ImGuiDEBUG:imgui_widgets.obj
 0001:0012d430       ?resize@?$ImVector@UImGuiShrinkWidthItem@@@@QEAAXH@Z 000000018012e430 f i ImGuiDEBUG:imgui_widgets.obj
 0001:0012d490       ?resize@?$ImVector@UImGuiStoragePair@@@@QEAAXH@Z 000000018012e490 f i ImGuiDEBUG:imgui_widgets.obj
 0001:0012d4f0       ?resize@?$ImVector@UImGuiTabBar@@@@QEAAXH@Z 000000018012e4f0 f i ImGuiDEBUG:imgui_widgets.obj
 0001:0012d550       ?resize@?$ImVector@UImGuiTabItem@@@@QEAAXH@Z 000000018012e550 f i ImGuiDEBUG:imgui_widgets.obj
 0001:0012d5b0       ?resize@?$ImVector@UImGuiTreeNodeStackData@@@@QEAAXH@Z 000000018012e5b0 f i ImGuiDEBUG:imgui_widgets.obj
 0001:0012d610       ?swap@?$ImVector@UImGuiStoragePair@@@@QEAAXAEAU1@@Z 000000018012e610 f i ImGuiDEBUG:imgui_widgets.obj
 0001:0012d6c0       ?StyleColorsDark@ImGui@@YAXPEAUImGuiStyle@@@Z 000000018012e6c0 f   ImGuiDEBUG:imgui_draw.obj
 0001:0012e8b0       ?StyleColorsLight@ImGui@@YAXPEAUImGuiStyle@@@Z 000000018012f8b0 f   ImGuiDEBUG:imgui_draw.obj
 0001:0012fa90       ?StyleColorsClassic@ImGui@@YAXPEAUImGuiStyle@@@Z 0000000180130a90 f   ImGuiDEBUG:imgui_draw.obj
 0001:00130eb0       ?ClearFreeMemory@ImDrawListSplitter@@QEAAXXZ 0000000180131eb0 f   ImGuiDEBUG:imgui_draw.obj
 0001:00130f90       ?Split@ImDrawListSplitter@@QEAAXPEAUImDrawList@@H@Z 0000000180131f90 f   ImGuiDEBUG:imgui_draw.obj
 0001:00131130       ?Merge@ImDrawListSplitter@@QEAAXPEAUImDrawList@@@Z 0000000180132130 f   ImGuiDEBUG:imgui_draw.obj
 0001:00131620       ?SetCurrentChannel@ImDrawListSplitter@@QEAAXPEAUImDrawList@@H@Z 0000000180132620 f   ImGuiDEBUG:imgui_draw.obj
 0001:001317f0       ?PushClipRect@ImDrawList@@QEAAXAEBUImVec2@@0_N@Z 00000001801327f0 f   ImGuiDEBUG:imgui_draw.obj
 0001:00131950       ?PushClipRectFullScreen@ImDrawList@@QEAAXXZ 0000000180132950 f   ImGuiDEBUG:imgui_draw.obj
 0001:001319d0       ?PopClipRect@ImDrawList@@QEAAXXZ 00000001801329d0 f   ImGuiDEBUG:imgui_draw.obj
 0001:00131a70       ?PushTextureID@ImDrawList@@QEAAXPEAX@Z 0000000180132a70 f   ImGuiDEBUG:imgui_draw.obj
 0001:00131ac0       ?PopTextureID@ImDrawList@@QEAAXXZ 0000000180132ac0 f   ImGuiDEBUG:imgui_draw.obj
 0001:00131b40       ?AddLine@ImDrawList@@QEAAXAEBUImVec2@@0IM@Z 0000000180132b40 f   ImGuiDEBUG:imgui_draw.obj
 0001:00131c10       ?AddRect@ImDrawList@@QEAAXAEBUImVec2@@0IMHM@Z 0000000180132c10 f   ImGuiDEBUG:imgui_draw.obj
 0001:00131db0       ?AddRectFilled@ImDrawList@@QEAAXAEBUImVec2@@0IMH@Z 0000000180132db0 f   ImGuiDEBUG:imgui_draw.obj
 0001:00131e70       ?AddRectFilledMultiColor@ImDrawList@@QEAAXAEBUImVec2@@0IIII@Z 0000000180132e70 f   ImGuiDEBUG:imgui_draw.obj
 0001:00132010       ?AddQuad@ImDrawList@@QEAAXAEBUImVec2@@000IM@Z 0000000180133010 f   ImGuiDEBUG:imgui_draw.obj
 0001:001320a0       ?AddQuadFilled@ImDrawList@@QEAAXAEBUImVec2@@000I@Z 00000001801330a0 f   ImGuiDEBUG:imgui_draw.obj
 0001:00132120       ?AddTriangle@ImDrawList@@QEAAXAEBUImVec2@@00IM@Z 0000000180133120 f   ImGuiDEBUG:imgui_draw.obj
 0001:001321a0       ?AddTriangleFilled@ImDrawList@@QEAAXAEBUImVec2@@00I@Z 00000001801331a0 f   ImGuiDEBUG:imgui_draw.obj
 0001:00132210       ?AddCircle@ImDrawList@@QEAAXAEBUImVec2@@MIHM@Z 0000000180133210 f   ImGuiDEBUG:imgui_draw.obj
 0001:00132340       ?AddCircleFilled@ImDrawList@@QEAAXAEBUImVec2@@MIH@Z 0000000180133340 f   ImGuiDEBUG:imgui_draw.obj
 0001:00132450       ?AddNgon@ImDrawList@@QEAAXAEBUImVec2@@MIHM@Z 0000000180133450 f   ImGuiDEBUG:imgui_draw.obj
 0001:00132510       ?AddNgonFilled@ImDrawList@@QEAAXAEBUImVec2@@MIH@Z 0000000180133510 f   ImGuiDEBUG:imgui_draw.obj
 0001:001325c0       ?AddEllipse@ImDrawList@@QEAAXAEBUImVec2@@0IMHM@Z 00000001801335c0 f   ImGuiDEBUG:imgui_draw.obj
 0001:001326c0       ?AddEllipseFilled@ImDrawList@@QEAAXAEBUImVec2@@0IMH@Z 00000001801336c0 f   ImGuiDEBUG:imgui_draw.obj
 0001:001327b0       ?AddText@ImDrawList@@QEAAXAEBUImVec2@@IPEBD1@Z 00000001801337b0 f   ImGuiDEBUG:imgui_draw.obj
 0001:00132820       ?AddText@ImDrawList@@QEAAXPEBUImFont@@MAEBUImVec2@@IPEBD2MPEBUImVec4@@@Z 0000000180133820 f   ImGuiDEBUG:imgui_draw.obj
 0001:00132a90       ?AddBezierCubic@ImDrawList@@QEAAXAEBUImVec2@@000IMH@Z 0000000180133a90 f   ImGuiDEBUG:imgui_draw.obj
 0001:00132b10       ?AddBezierQuadratic@ImDrawList@@QEAAXAEBUImVec2@@00IMH@Z 0000000180133b10 f   ImGuiDEBUG:imgui_draw.obj
 0001:00132b90       ?AddPolyline@ImDrawList@@QEAAXPEBUImVec2@@HIHM@Z 0000000180133b90 f   ImGuiDEBUG:imgui_draw.obj
 0001:00134cc0       ?AddConvexPolyFilled@ImDrawList@@QEAAXPEBUImVec2@@HI@Z 0000000180135cc0 f   ImGuiDEBUG:imgui_draw.obj
 0001:001355b0       ?AddConcavePolyFilled@ImDrawList@@QEAAXPEBUImVec2@@HI@Z 00000001801365b0 f   ImGuiDEBUG:imgui_draw.obj
 0001:00135fd0       ?AddImage@ImDrawList@@QEAAXPEAXAEBUImVec2@@111I@Z 0000000180136fd0 f   ImGuiDEBUG:imgui_draw.obj
 0001:001360a0       ?AddImageQuad@ImDrawList@@QEAAXPEAXAEBUImVec2@@1111111I@Z 00000001801370a0 f   ImGuiDEBUG:imgui_draw.obj
 0001:001361b0       ?AddImageRounded@ImDrawList@@QEAAXPEAXAEBUImVec2@@111IMH@Z 00000001801371b0 f   ImGuiDEBUG:imgui_draw.obj
 0001:00136350       ?PathArcTo@ImDrawList@@QEAAXAEBUImVec2@@MMMH@Z 0000000180137350 f   ImGuiDEBUG:imgui_draw.obj
 0001:00136880       ?PathArcToFast@ImDrawList@@QEAAXAEBUImVec2@@MHH@Z 0000000180137880 f   ImGuiDEBUG:imgui_draw.obj
 0001:00136920       ?PathEllipticalArcTo@ImDrawList@@QEAAXAEBUImVec2@@0MMMH@Z 0000000180137920 f   ImGuiDEBUG:imgui_draw.obj
 0001:00136b00       ?PathBezierCubicCurveTo@ImDrawList@@QEAAXAEBUImVec2@@00H@Z 0000000180137b00 f   ImGuiDEBUG:imgui_draw.obj
 0001:00136cd0       ?PathBezierQuadraticCurveTo@ImDrawList@@QEAAXAEBUImVec2@@0H@Z 0000000180137cd0 f   ImGuiDEBUG:imgui_draw.obj
 0001:00136e70       ?PathRect@ImDrawList@@QEAAXAEBUImVec2@@0MH@Z 0000000180137e70 f   ImGuiDEBUG:imgui_draw.obj
 0001:001372c0       ?AddCallback@ImDrawList@@QEAAXP6AXPEBU1@PEBUImDrawCmd@@@ZPEAX@Z 00000001801382c0 f   ImGuiDEBUG:imgui_draw.obj
 0001:00137380       ?AddDrawCmd@ImDrawList@@QEAAXXZ 0000000180138380 f   ImGuiDEBUG:imgui_draw.obj
 0001:00137440       ?CloneOutput@ImDrawList@@QEBAPEAU1@XZ 0000000180138440 f   ImGuiDEBUG:imgui_draw.obj
 0001:00137510       ?PrimReserve@ImDrawList@@QEAAXHH@Z 0000000180138510 f   ImGuiDEBUG:imgui_draw.obj
 0001:00137630       ?PrimUnreserve@ImDrawList@@QEAAXHH@Z 0000000180138630 f   ImGuiDEBUG:imgui_draw.obj
 0001:001376c0       ?PrimRect@ImDrawList@@QEAAXAEBUImVec2@@0I@Z 00000001801386c0 f   ImGuiDEBUG:imgui_draw.obj
 0001:00137980       ?PrimRectUV@ImDrawList@@QEAAXAEBUImVec2@@000I@Z 0000000180138980 f   ImGuiDEBUG:imgui_draw.obj
 0001:00137c80       ?PrimQuadUV@ImDrawList@@QEAAXAEBUImVec2@@0000000I@Z 0000000180138c80 f   ImGuiDEBUG:imgui_draw.obj
 0001:00137f00       ?_ResetForNewFrame@ImDrawList@@QEAAXXZ 0000000180138f00 f   ImGuiDEBUG:imgui_draw.obj
 0001:00138040       ?_ClearFreeMemory@ImDrawList@@QEAAXXZ 0000000180139040 f   ImGuiDEBUG:imgui_draw.obj
 0001:00138100       ?_PopUnusedDrawCmd@ImDrawList@@QEAAXXZ 0000000180139100 f   ImGuiDEBUG:imgui_draw.obj
 0001:00138170       ?_TryMergeDrawCmds@ImDrawList@@QEAAXXZ 0000000180139170 f   ImGuiDEBUG:imgui_draw.obj
 0001:00138220       ?_OnChangedClipRect@ImDrawList@@QEAAXXZ 0000000180139220 f   ImGuiDEBUG:imgui_draw.obj
 0001:00138350       ?_OnChangedTextureID@ImDrawList@@QEAAXXZ 0000000180139350 f   ImGuiDEBUG:imgui_draw.obj
 0001:00138470       ?_OnChangedVtxOffset@ImDrawList@@QEAAXXZ 0000000180139470 f   ImGuiDEBUG:imgui_draw.obj
 0001:00138500       ?_SetTextureID@ImDrawList@@QEAAXPEAX@Z 0000000180139500 f   ImGuiDEBUG:imgui_draw.obj
 0001:00138550       ?_CalcCircleAutoSegmentCount@ImDrawList@@QEBAHM@Z 0000000180139550 f   ImGuiDEBUG:imgui_draw.obj
 0001:00138610       ?_PathArcToFastEx@ImDrawList@@QEAAXAEBUImVec2@@MHHH@Z 0000000180139610 f   ImGuiDEBUG:imgui_draw.obj
 0001:00138a90       ?_PathArcToN@ImDrawList@@QEAAXAEBUImVec2@@MMMH@Z 0000000180139a90 f   ImGuiDEBUG:imgui_draw.obj
 0001:00138bd0       ?Clear@ImDrawData@@QEAAXXZ 0000000180139bd0 f   ImGuiDEBUG:imgui_draw.obj
 0001:00138c80       ?AddDrawList@ImDrawData@@QEAAXPEAUImDrawList@@@Z 0000000180139c80 f   ImGuiDEBUG:imgui_draw.obj
 0001:00138cf0       ?DeIndexAllBuffers@ImDrawData@@QEAAXXZ 0000000180139cf0 f   ImGuiDEBUG:imgui_draw.obj
 0001:00138e60       ?ScaleClipRects@ImDrawData@@QEAAXAEBUImVec2@@@Z 0000000180139e60 f   ImGuiDEBUG:imgui_draw.obj
 0001:00138fd0       ??0ImFontConfig@@QEAA@XZ   0000000180139fd0 f   ImGuiDEBUG:imgui_draw.obj
 0001:00139080       ?AddText@ImFontGlyphRangesBuilder@@QEAAXPEBD0@Z 000000018013a080 f   ImGuiDEBUG:imgui_draw.obj
 0001:00139140       ?AddRanges@ImFontGlyphRangesBuilder@@QEAAXPEBG@Z 000000018013a140 f   ImGuiDEBUG:imgui_draw.obj
 0001:001391e0       ?BuildRanges@ImFontGlyphRangesBuilder@@QEAAXPEAU?$ImVector@G@@@Z 000000018013a1e0 f   ImGuiDEBUG:imgui_draw.obj
 0001:001392c0       ??0ImFontAtlas@@QEAA@XZ    000000018013a2c0 f   ImGuiDEBUG:imgui_draw.obj
 0001:00139390       ??1ImFontAtlas@@QEAA@XZ    000000018013a390 f   ImGuiDEBUG:imgui_draw.obj
 0001:00139420       ?AddFont@ImFontAtlas@@QEAAPEAUImFont@@PEBUImFontConfig@@@Z 000000018013a420 f   ImGuiDEBUG:imgui_draw.obj
 0001:00139690       ?AddFontDefault@ImFontAtlas@@QEAAPEAUImFont@@PEBUImFontConfig@@@Z 000000018013a690 f   ImGuiDEBUG:imgui_draw.obj
 0001:00139860       ?AddFontFromFileTTF@ImFontAtlas@@QEAAPEAUImFont@@PEBDMPEBUImFontConfig@@PEBG@Z 000000018013a860 f   ImGuiDEBUG:imgui_draw.obj
 0001:00139ac0       ?AddFontFromMemoryTTF@ImFontAtlas@@QEAAPEAUImFont@@PEAXHMPEBUImFontConfig@@PEBG@Z 000000018013aac0 f   ImGuiDEBUG:imgui_draw.obj
 0001:00139c80       ?AddFontFromMemoryCompressedTTF@ImFontAtlas@@QEAAPEAUImFont@@PEBXHMPEBUImFontConfig@@PEBG@Z 000000018013ac80 f   ImGuiDEBUG:imgui_draw.obj
 0001:00139dd0       ?AddFontFromMemoryCompressedBase85TTF@ImFontAtlas@@QEAAPEAUImFont@@PEBDMPEBUImFontConfig@@PEBG@Z 000000018013add0 f   ImGuiDEBUG:imgui_draw.obj
 0001:00139ea0       ?ClearInputData@ImFontAtlas@@QEAAXXZ 000000018013aea0 f   ImGuiDEBUG:imgui_draw.obj
 0001:0013a060       ?ClearTexData@ImFontAtlas@@QEAAXXZ 000000018013b060 f   ImGuiDEBUG:imgui_draw.obj
 0001:0013a110       ?ClearFonts@ImFontAtlas@@QEAAXXZ 000000018013b110 f   ImGuiDEBUG:imgui_draw.obj
 0001:0013a180       ?Clear@ImFontAtlas@@QEAAXXZ 000000018013b180 f   ImGuiDEBUG:imgui_draw.obj
 0001:0013a1c0       ?Build@ImFontAtlas@@QEAA_NXZ 000000018013b1c0 f   ImGuiDEBUG:imgui_draw.obj
 0001:0013a250       ?GetTexDataAsAlpha8@ImFontAtlas@@QEAAXPEAPEAEPEAH11@Z 000000018013b250 f   ImGuiDEBUG:imgui_draw.obj
 0001:0013a2e0       ?GetTexDataAsRGBA32@ImFontAtlas@@QEAAXPEAPEAEPEAH11@Z 000000018013b2e0 f   ImGuiDEBUG:imgui_draw.obj
 0001:0013a450       ?GetGlyphRangesDefault@ImFontAtlas@@QEAAPEBGXZ 000000018013b450 f   ImGuiDEBUG:imgui_draw.obj
 0001:0013a480       ?GetGlyphRangesGreek@ImFontAtlas@@QEAAPEBGXZ 000000018013b480 f   ImGuiDEBUG:imgui_draw.obj
 0001:0013a4b0       ?GetGlyphRangesKorean@ImFontAtlas@@QEAAPEBGXZ 000000018013b4b0 f   ImGuiDEBUG:imgui_draw.obj
 0001:0013a4e0       ?GetGlyphRangesJapanese@ImFontAtlas@@QEAAPEBGXZ 000000018013b4e0 f   ImGuiDEBUG:imgui_draw.obj
 0001:0013a570       ?GetGlyphRangesChineseFull@ImFontAtlas@@QEAAPEBGXZ 000000018013b570 f   ImGuiDEBUG:imgui_draw.obj
 0001:0013a5a0       ?GetGlyphRangesChineseSimplifiedCommon@ImFontAtlas@@QEAAPEBGXZ 000000018013b5a0 f   ImGuiDEBUG:imgui_draw.obj
 0001:0013a630       ?GetGlyphRangesCyrillic@ImFontAtlas@@QEAAPEBGXZ 000000018013b630 f   ImGuiDEBUG:imgui_draw.obj
 0001:0013a660       ?GetGlyphRangesThai@ImFontAtlas@@QEAAPEBGXZ 000000018013b660 f   ImGuiDEBUG:imgui_draw.obj
 0001:0013a690       ?GetGlyphRangesVietnamese@ImFontAtlas@@QEAAPEBGXZ 000000018013b690 f   ImGuiDEBUG:imgui_draw.obj
 0001:0013a6c0       ?AddCustomRectRegular@ImFontAtlas@@QEAAHHH@Z 000000018013b6c0 f   ImGuiDEBUG:imgui_draw.obj
 0001:0013a780       ?AddCustomRectFontGlyph@ImFontAtlas@@QEAAHPEAUImFont@@GHHMAEBUImVec2@@@Z 000000018013b780 f   ImGuiDEBUG:imgui_draw.obj
 0001:0013a890       ?CalcCustomRectUV@ImFontAtlas@@QEBAXPEBUImFontAtlasCustomRect@@PEAUImVec2@@1@Z 000000018013b890 f   ImGuiDEBUG:imgui_draw.obj
 0001:0013a9c0       ?GetMouseCursorTexData@ImFontAtlas@@QEAA_NHPEAUImVec2@@0QEAU2@1@Z 000000018013b9c0 f   ImGuiDEBUG:imgui_draw.obj
 0001:0013ac60       ??0ImFont@@QEAA@XZ         000000018013bc60 f   ImGuiDEBUG:imgui_draw.obj
 0001:0013ad90       ??1ImFont@@QEAA@XZ         000000018013bd90 f   ImGuiDEBUG:imgui_draw.obj
 0001:0013ade0       ?FindGlyph@ImFont@@QEBAPEBUImFontGlyph@@G@Z 000000018013bde0 f   ImGuiDEBUG:imgui_draw.obj
 0001:0013ae60       ?FindGlyphNoFallback@ImFont@@QEBAPEBUImFontGlyph@@G@Z 000000018013be60 f   ImGuiDEBUG:imgui_draw.obj
 0001:0013aed0       ?CalcTextSizeA@ImFont@@QEBA?AUImVec2@@MMMPEBD0PEAPEBD@Z 000000018013bed0 f   ImGuiDEBUG:imgui_draw.obj
 0001:0013b250       ?CalcWordWrapPositionA@ImFont@@QEBAPEBDMPEBD0M@Z 000000018013c250 f   ImGuiDEBUG:imgui_draw.obj
 0001:0013b5a0       ?RenderChar@ImFont@@QEBAXPEAUImDrawList@@MAEBUImVec2@@IG@Z 000000018013c5a0 f   ImGuiDEBUG:imgui_draw.obj
 0001:0013b7d0       ?RenderText@ImFont@@QEBAXPEAUImDrawList@@MAEBUImVec2@@IAEBUImVec4@@PEBD3M_N@Z 000000018013c7d0 f   ImGuiDEBUG:imgui_draw.obj
 0001:0013c570       ?BuildLookupTable@ImFont@@QEAAXXZ 000000018013d570 f   ImGuiDEBUG:imgui_draw.obj
 0001:0013cc30       ?ClearOutputData@ImFont@@QEAAXXZ 000000018013dc30 f   ImGuiDEBUG:imgui_draw.obj
 0001:0013cce0       ?GrowIndex@ImFont@@QEAAXH@Z 000000018013dce0 f   ImGuiDEBUG:imgui_draw.obj
 0001:0013cd80       ?AddGlyph@ImFont@@QEAAXPEBUImFontConfig@@GMMMMMMMMM@Z 000000018013dd80 f   ImGuiDEBUG:imgui_draw.obj
 0001:0013d0c0       ?AddRemapChar@ImFont@@QEAAXGG_N@Z 000000018013e0c0 f   ImGuiDEBUG:imgui_draw.obj
 0001:0013d210       ?SetGlyphVisible@ImFont@@QEAAXG_N@Z 000000018013e210 f   ImGuiDEBUG:imgui_draw.obj
 0001:0013d290       ?IsGlyphRangeUnused@ImFont@@QEAA_NII@Z 000000018013e290 f   ImGuiDEBUG:imgui_draw.obj
 0001:0013db20       ?ImBezierCubicCalc@@YA?AUImVec2@@AEBU1@000M@Z 000000018013eb20 f   ImGuiDEBUG:imgui_draw.obj
 0001:0013dc70       ?ImBezierQuadraticCalc@@YA?AUImVec2@@AEBU1@00M@Z 000000018013ec70 f   ImGuiDEBUG:imgui_draw.obj
 0001:0013dd70       ??0ImDrawListSharedData@@QEAA@XZ 000000018013ed70 f   ImGuiDEBUG:imgui_draw.obj
 0001:0013ded0       ?SetCircleTessellationMaxError@ImDrawListSharedData@@QEAAXM@Z 000000018013eed0 f   ImGuiDEBUG:imgui_draw.obj
 0001:0013e050       ?AddDrawListToDrawDataEx@ImGui@@YAXPEAUImDrawData@@PEAU?$ImVector@PEAUImDrawList@@@@PEAUImDrawList@@@Z 000000018013f050 f   ImGuiDEBUG:imgui_draw.obj
 0001:0013e210       ?RenderColorRectWithAlphaCheckerboard@ImGui@@YAXPEAUImDrawList@@UImVec2@@1IM1MH@Z 000000018013f210 f   ImGuiDEBUG:imgui_draw.obj
 0001:0013e5f0       ?RenderArrow@ImGui@@YAXPEAUImDrawList@@UImVec2@@IW4ImGuiDir@@M@Z 000000018013f5f0 f   ImGuiDEBUG:imgui_draw.obj
 0001:0013e940       ?RenderBullet@ImGui@@YAXPEAUImDrawList@@UImVec2@@I@Z 000000018013f940 f   ImGuiDEBUG:imgui_draw.obj
 0001:0013e9a0       ?RenderCheckMark@ImGui@@YAXPEAUImDrawList@@UImVec2@@IM@Z 000000018013f9a0 f   ImGuiDEBUG:imgui_draw.obj
 0001:0013eb50       ?RenderArrowPointingAt@ImGui@@YAXPEAUImDrawList@@UImVec2@@1W4ImGuiDir@@I@Z 000000018013fb50 f   ImGuiDEBUG:imgui_draw.obj
 0001:0013ee20       ?RenderArrowDockMenu@ImGui@@YAXPEAUImDrawList@@UImVec2@@MI@Z 000000018013fe20 f   ImGuiDEBUG:imgui_draw.obj
 0001:0013efb0       ?RenderRectFilledRangeH@ImGui@@YAXPEAUImDrawList@@AEBUImRect@@IMMM@Z 000000018013ffb0 f   ImGuiDEBUG:imgui_draw.obj
 0001:0013f730       ?RenderRectFilledWithHole@ImGui@@YAXPEAUImDrawList@@AEBUImRect@@1IM@Z 0000000180140730 f   ImGuiDEBUG:imgui_draw.obj
 0001:0013fe40       ?CalcRoundingFlagsForRectInRect@ImGui@@YAHAEBUImRect@@0M@Z 0000000180140e40 f   ImGuiDEBUG:imgui_draw.obj
 0001:0013ffe0       ?ShadeVertsLinearColorGradientKeepAlpha@ImGui@@YAXPEAUImDrawList@@HHUImVec2@@1II@Z 0000000180140fe0 f   ImGuiDEBUG:imgui_draw.obj
 0001:00140200       ?ShadeVertsLinearUV@ImGui@@YAXPEAUImDrawList@@HHAEBUImVec2@@111_N@Z 0000000180141200 f   ImGuiDEBUG:imgui_draw.obj
 0001:001404b0       ?ShadeVertsTransformPos@ImGui@@YAXPEAUImDrawList@@HHAEBUImVec2@@MM1@Z 00000001801414b0 f   ImGuiDEBUG:imgui_draw.obj
 0001:00140580       ?ImFontAtlasGetBuilderForStbTruetype@@YAPEBUImFontBuilderIO@@XZ 0000000180141580 f   ImGuiDEBUG:imgui_draw.obj
 0001:001405a0       ?ImFontAtlasUpdateConfigDataPointers@@YAXPEAUImFontAtlas@@@Z 00000001801415a0 f   ImGuiDEBUG:imgui_draw.obj
 0001:00140660       ?ImFontAtlasBuildInit@@YAXPEAUImFontAtlas@@@Z 0000000180141660 f   ImGuiDEBUG:imgui_draw.obj
 0001:00140780       ?ImFontAtlasBuildSetupFont@@YAXPEAUImFontAtlas@@PEAUImFont@@PEAUImFontConfig@@MM@Z 0000000180141780 f   ImGuiDEBUG:imgui_draw.obj
 0001:00140830       ?ImFontAtlasBuildPackCustomRects@@YAXPEAUImFontAtlas@@PEAX@Z 0000000180141830 f   ImGuiDEBUG:imgui_draw.obj
 0001:00140b00       ?ImFontAtlasBuildFinish@@YAXPEAUImFontAtlas@@@Z 0000000180141b00 f   ImGuiDEBUG:imgui_draw.obj
 0001:00140da0       ?ImFontAtlasBuildRender8bppRectFromString@@YAXPEAUImFontAtlas@@HHHHPEBDDE@Z 0000000180141da0 f   ImGuiDEBUG:imgui_draw.obj
 0001:00140f20       ?ImFontAtlasBuildRender32bppRectFromString@@YAXPEAUImFontAtlas@@HHHHPEBDDI@Z 0000000180141f20 f   ImGuiDEBUG:imgui_draw.obj
 0001:00141090       ?ImFontAtlasBuildMultiplyCalcLookupTable@@YAXQEAEM@Z 0000000180142090 f   ImGuiDEBUG:imgui_draw.obj
 0001:00141110       ?ImFontAtlasBuildMultiplyRectAlpha8@@YAXQEBEPEAEHHHHH@Z 0000000180142110 f   ImGuiDEBUG:imgui_draw.obj
 0001:0014d8d0       ?Init@ImTriangulator@@QEAAXPEBUImVec2@@HPEAX@Z 000000018014e8d0 f   ImGuiDEBUG:imgui_draw.obj
 0001:0014d9b0       ?GetNextTriangle@ImTriangulator@@QEAAXQEAI@Z 000000018014e9b0 f   ImGuiDEBUG:imgui_draw.obj
 0001:0014db90       ?BuildNodes@ImTriangulator@@QEAAXPEBUImVec2@@H@Z 000000018014eb90 f   ImGuiDEBUG:imgui_draw.obj
 0001:0014dcd0       ?BuildReflexes@ImTriangulator@@QEAAXXZ 000000018014ecd0 f   ImGuiDEBUG:imgui_draw.obj
 0001:0014dd90       ?BuildEars@ImTriangulator@@QEAAXXZ 000000018014ed90 f   ImGuiDEBUG:imgui_draw.obj
 0001:0014de90       ?FlipNodeList@ImTriangulator@@QEAAXXZ 000000018014ee90 f   ImGuiDEBUG:imgui_draw.obj
 0001:0014df70       ?IsEar@ImTriangulator@@QEBA_NHHHAEBUImVec2@@00@Z 000000018014ef70 f   ImGuiDEBUG:imgui_draw.obj
 0001:0014e050       ?ReclassifyNode@ImTriangulator@@QEAAXPEAUImTriangulatorNode@@@Z 000000018014f050 f   ImGuiDEBUG:imgui_draw.obj
 0001:0015a3f0       ??$IM_DELETE@UImFont@@@@YAXPEAUImFont@@@Z 000000018015b3f0 f i ImGuiDEBUG:imgui_draw.obj
 0001:0015a430       ??0?$ImVector@UImFontAtlasCustomRect@@@@QEAA@XZ 000000018015b430 f i ImGuiDEBUG:imgui_draw.obj
 0001:0015a470       ??0?$ImVector@UImFontBuildDstData@@@@QEAA@XZ 000000018015b470 f i ImGuiDEBUG:imgui_draw.obj
 0001:0015a4b0       ??0?$ImVector@UImFontBuildSrcData@@@@QEAA@XZ 000000018015b4b0 f i ImGuiDEBUG:imgui_draw.obj
 0001:0015a4f0       ??0?$ImVector@UImFontConfig@@@@QEAA@XZ 000000018015b4f0 f i ImGuiDEBUG:imgui_draw.obj
 0001:0015a530       ??0?$ImVector@UImFontGlyph@@@@QEAA@XZ 000000018015b530 f i ImGuiDEBUG:imgui_draw.obj
 0001:0015a570       ??0?$ImVector@Ustbrp_rect@@@@QEAA@XZ 000000018015b570 f i ImGuiDEBUG:imgui_draw.obj
 0001:0015a5b0       ??0?$ImVector@Ustbtt_packedchar@@@@QEAA@XZ 000000018015b5b0 f i ImGuiDEBUG:imgui_draw.obj
 0001:0015a5f0       ??0ImDrawChannel@@QEAA@XZ  000000018015b5f0 f i ImGuiDEBUG:imgui_draw.obj
 0001:0015a630       ??0ImDrawCmd@@QEAA@XZ      000000018015b630 f i ImGuiDEBUG:imgui_draw.obj
 0001:0015a670       ??0ImFontAtlasCustomRect@@QEAA@XZ 000000018015b670 f i ImGuiDEBUG:imgui_draw.obj
 0001:0015a730       ??0ImTriangulator@@QEAA@XZ 000000018015b730 f i ImGuiDEBUG:imgui_draw.obj
 0001:0015a7a0       ??0ImTriangulatorNodeSpan@@QEAA@XZ 000000018015b7a0 f i ImGuiDEBUG:imgui_draw.obj
 0001:0015a7d0       ??1?$ImVector@UImFontAtlasCustomRect@@@@QEAA@XZ 000000018015b7d0 f i ImGuiDEBUG:imgui_draw.obj
 0001:0015a810       ??1?$ImVector@UImFontBuildDstData@@@@QEAA@XZ 000000018015b810 f i ImGuiDEBUG:imgui_draw.obj
 0001:0015a850       ??1?$ImVector@UImFontBuildSrcData@@@@QEAA@XZ 000000018015b850 f i ImGuiDEBUG:imgui_draw.obj
 0001:0015a890       ??1?$ImVector@UImFontConfig@@@@QEAA@XZ 000000018015b890 f i ImGuiDEBUG:imgui_draw.obj
 0001:0015a8d0       ??1?$ImVector@UImFontGlyph@@@@QEAA@XZ 000000018015b8d0 f i ImGuiDEBUG:imgui_draw.obj
 0001:0015a910       ??1?$ImVector@Ustbrp_rect@@@@QEAA@XZ 000000018015b910 f i ImGuiDEBUG:imgui_draw.obj
 0001:0015a950       ??1?$ImVector@Ustbtt_packedchar@@@@QEAA@XZ 000000018015b950 f i ImGuiDEBUG:imgui_draw.obj
 0001:0015a990       ??1ImBitVector@@QEAA@XZ    000000018015b990 f i ImGuiDEBUG:imgui_draw.obj
 0001:0015a9c0       ??1ImFontBuildSrcData@@QEAA@XZ 000000018015b9c0 f i ImGuiDEBUG:imgui_draw.obj
 0001:0015aa10       ??4?$ImVector@G@@QEAAAEAU0@AEBU0@@Z 000000018015ba10 f i ImGuiDEBUG:imgui_draw.obj
 0001:0015aa90       ??4?$ImVector@UImDrawCmd@@@@QEAAAEAU0@AEBU0@@Z 000000018015ba90 f i ImGuiDEBUG:imgui_draw.obj
 0001:0015ab10       ??4?$ImVector@UImDrawVert@@@@QEAAAEAU0@AEBU0@@Z 000000018015bb10 f i ImGuiDEBUG:imgui_draw.obj
 0001:0015ab90       ??A?$ImVector@I@@QEBAAEBIH@Z 000000018015bb90 f i ImGuiDEBUG:imgui_draw.obj
 0001:0015ac00       ??A?$ImVector@PEAUImDrawList@@@@QEAAAEAPEAUImDrawList@@H@Z 000000018015bc00 f i ImGuiDEBUG:imgui_draw.obj
 0001:0015ac70       ??A?$ImVector@UImDrawChannel@@@@QEAAAEAUImDrawChannel@@H@Z 000000018015bc70 f i ImGuiDEBUG:imgui_draw.obj
 0001:0015ace0       ??A?$ImVector@UImDrawVert@@@@QEAAAEAUImDrawVert@@H@Z 000000018015bce0 f i ImGuiDEBUG:imgui_draw.obj
 0001:0015ad50       ??A?$ImVector@UImFontAtlasCustomRect@@@@QEAAAEAUImFontAtlasCustomRect@@H@Z 000000018015bd50 f i ImGuiDEBUG:imgui_draw.obj
 0001:0015adc0       ??A?$ImVector@UImFontBuildDstData@@@@QEAAAEAUImFontBuildDstData@@H@Z 000000018015bdc0 f i ImGuiDEBUG:imgui_draw.obj
 0001:0015ae30       ??A?$ImVector@UImFontBuildSrcData@@@@QEAAAEAUImFontBuildSrcData@@H@Z 000000018015be30 f i ImGuiDEBUG:imgui_draw.obj
 0001:0015aea0       ??A?$ImVector@UImFontConfig@@@@QEAAAEAUImFontConfig@@H@Z 000000018015bea0 f i ImGuiDEBUG:imgui_draw.obj
 0001:0015af10       ??A?$ImVector@UImFontGlyph@@@@QEAAAEAUImFontGlyph@@H@Z 000000018015bf10 f i ImGuiDEBUG:imgui_draw.obj
 0001:0015af80       ??A?$ImVector@Ustbrp_rect@@@@QEAAAEAUstbrp_rect@@H@Z 000000018015bf80 f i ImGuiDEBUG:imgui_draw.obj
 0001:0015aff0       ??A?$ImVector@Ustbtt_packedchar@@@@QEAAAEAUstbtt_packedchar@@H@Z 000000018015bff0 f i ImGuiDEBUG:imgui_draw.obj
 0001:0015b060       ??_GImFont@@QEAAPEAXI@Z    000000018015c060 f i ImGuiDEBUG:imgui_draw.obj
 0001:0015b0b0       ??_GImFontBuildSrcData@@QEAAPEAXI@Z 000000018015c0b0 f i ImGuiDEBUG:imgui_draw.obj
 0001:0015b100       ?AddChar@ImFontGlyphRangesBuilder@@QEAAXG@Z 000000018015c100 f i ImGuiDEBUG:imgui_draw.obj
 0001:0015b130       ?Clear@ImBitVector@@QEAAXXZ 000000018015c130 f i ImGuiDEBUG:imgui_draw.obj
 0001:0015b160       ?Clear@ImDrawListSplitter@@QEAAXXZ 000000018015c160 f i ImGuiDEBUG:imgui_draw.obj
 0001:0015b190       ?Create@ImBitVector@@QEAAXH@Z 000000018015c190 f i ImGuiDEBUG:imgui_draw.obj
 0001:0015b1f0       ?EstimateScratchBufferSize@ImTriangulator@@SAHH@Z 000000018015c1f0 f i ImGuiDEBUG:imgui_draw.obj
 0001:0015b220       ?EstimateTriangleCount@ImTriangulator@@SAHH@Z 000000018015c220 f i ImGuiDEBUG:imgui_draw.obj
 0001:0015b260       ?GetBit@ImFontGlyphRangesBuilder@@QEBA_N_K@Z 000000018015c260 f i ImGuiDEBUG:imgui_draw.obj
 0001:0015b2f0       ?GetCustomRectByIndex@ImFontAtlas@@QEAAPEAUImFontAtlasCustomRect@@H@Z 000000018015c2f0 f i ImGuiDEBUG:imgui_draw.obj
 0001:0015b350       ?ImTriangleIsClockwise@@YA_NAEBUImVec2@@00@Z 000000018015c350 f i ImGuiDEBUG:imgui_draw.obj
 0001:0015b400       ?IsPacked@ImFontAtlasCustomRect@@QEBA_NXZ 000000018015c400 f i ImGuiDEBUG:imgui_draw.obj
 0001:0015b440       ?SetBit@ImBitVector@@QEAAXH@Z 000000018015c440 f i ImGuiDEBUG:imgui_draw.obj
 0001:0015b4b0       ?SetBit@ImFontGlyphRangesBuilder@@QEAAX_K@Z 000000018015c4b0 f i ImGuiDEBUG:imgui_draw.obj
 0001:0015b540       ?TestBit@ImBitVector@@QEBA_NH@Z 000000018015c540 f i ImGuiDEBUG:imgui_draw.obj
 0001:0015b600       ?Unlink@ImTriangulatorNode@@QEAAXXZ 000000018015c600 f i ImGuiDEBUG:imgui_draw.obj
 0001:0015b640       ?_grow_capacity@?$ImVector@PEAX@@QEBAHH@Z 000000018015c640 f i ImGuiDEBUG:imgui_draw.obj
 0001:0015b6c0       ?_grow_capacity@?$ImVector@UImDrawChannel@@@@QEBAHH@Z 000000018015c6c0 f i ImGuiDEBUG:imgui_draw.obj
 0001:0015b740       ?_grow_capacity@?$ImVector@UImDrawVert@@@@QEBAHH@Z 000000018015c740 f i ImGuiDEBUG:imgui_draw.obj
 0001:0015b7c0       ?_grow_capacity@?$ImVector@UImFontAtlasCustomRect@@@@QEBAHH@Z 000000018015c7c0 f i ImGuiDEBUG:imgui_draw.obj
 0001:0015b840       ?_grow_capacity@?$ImVector@UImFontBuildDstData@@@@QEBAHH@Z 000000018015c840 f i ImGuiDEBUG:imgui_draw.obj
 0001:0015b8c0       ?_grow_capacity@?$ImVector@UImFontBuildSrcData@@@@QEBAHH@Z 000000018015c8c0 f i ImGuiDEBUG:imgui_draw.obj
 0001:0015b940       ?_grow_capacity@?$ImVector@UImFontConfig@@@@QEBAHH@Z 000000018015c940 f i ImGuiDEBUG:imgui_draw.obj
 0001:0015b9c0       ?_grow_capacity@?$ImVector@UImFontGlyph@@@@QEBAHH@Z 000000018015c9c0 f i ImGuiDEBUG:imgui_draw.obj
 0001:0015ba40       ?_grow_capacity@?$ImVector@UImVec4@@@@QEBAHH@Z 000000018015ca40 f i ImGuiDEBUG:imgui_draw.obj
 0001:0015bac0       ?_grow_capacity@?$ImVector@Ustbrp_rect@@@@QEBAHH@Z 000000018015cac0 f i ImGuiDEBUG:imgui_draw.obj
 0001:0015bb40       ?_grow_capacity@?$ImVector@Ustbtt_packedchar@@@@QEBAHH@Z 000000018015cb40 f i ImGuiDEBUG:imgui_draw.obj
 0001:0015bbc0       ?back@?$ImVector@UImFontConfig@@@@QEAAAEAUImFontConfig@@XZ 000000018015cbc0 f i ImGuiDEBUG:imgui_draw.obj
 0001:0015bc30       ?back@?$ImVector@UImFontGlyph@@@@QEAAAEAUImFontGlyph@@XZ 000000018015cc30 f i ImGuiDEBUG:imgui_draw.obj
 0001:0015bc90       ?back@?$ImVector@UImVec2@@@@QEAAAEAUImVec2@@XZ 000000018015cc90 f i ImGuiDEBUG:imgui_draw.obj
 0001:0015bcf0       ?begin@?$ImVector@I@@QEBAPEBIXZ 000000018015ccf0 f i ImGuiDEBUG:imgui_draw.obj
 0001:0015bd10       ?begin@?$ImVector@UImDrawCmd@@@@QEAAPEAUImDrawCmd@@XZ 000000018015cd10 f i ImGuiDEBUG:imgui_draw.obj
 0001:0015bd30       ?begin@?$ImVector@UImFontConfig@@@@QEAAPEAUImFontConfig@@XZ 000000018015cd30 f i ImGuiDEBUG:imgui_draw.obj
 0001:0015bd50       ?clear@?$ImVector@PEAX@@QEAAXXZ 000000018015cd50 f i ImGuiDEBUG:imgui_draw.obj
 0001:0015bdb0       ?clear@?$ImVector@UImDrawCmd@@@@QEAAXXZ 000000018015cdb0 f i ImGuiDEBUG:imgui_draw.obj
 0001:0015be10       ?clear@?$ImVector@UImDrawVert@@@@QEAAXXZ 000000018015ce10 f i ImGuiDEBUG:imgui_draw.obj
 0001:0015be70       ?clear@?$ImVector@UImFontAtlasCustomRect@@@@QEAAXXZ 000000018015ce70 f i ImGuiDEBUG:imgui_draw.obj
 0001:0015bed0       ?clear@?$ImVector@UImFontBuildDstData@@@@QEAAXXZ 000000018015ced0 f i ImGuiDEBUG:imgui_draw.obj
 0001:0015bf30       ?clear@?$ImVector@UImFontBuildSrcData@@@@QEAAXXZ 000000018015cf30 f i ImGuiDEBUG:imgui_draw.obj
 0001:0015bf90       ?clear@?$ImVector@UImFontConfig@@@@QEAAXXZ 000000018015cf90 f i ImGuiDEBUG:imgui_draw.obj
 0001:0015bff0       ?clear@?$ImVector@UImFontGlyph@@@@QEAAXXZ 000000018015cff0 f i ImGuiDEBUG:imgui_draw.obj
 0001:0015c050       ?clear@?$ImVector@UImVec4@@@@QEAAXXZ 000000018015d050 f i ImGuiDEBUG:imgui_draw.obj
 0001:0015c0b0       ?clear@?$ImVector@Ustbrp_rect@@@@QEAAXXZ 000000018015d0b0 f i ImGuiDEBUG:imgui_draw.obj
 0001:0015c110       ?clear_delete@?$ImVector@PEAUImFont@@@@QEAAXXZ 000000018015d110 f i ImGuiDEBUG:imgui_draw.obj
 0001:0015c180       ?clear_destruct@?$ImVector@UImFontBuildSrcData@@@@QEAAXXZ 000000018015d180 f i ImGuiDEBUG:imgui_draw.obj
 0001:0015c200       ?empty@?$ImVector@I@@QEBA_NXZ 000000018015d200 f i ImGuiDEBUG:imgui_draw.obj
 0001:0015c240       ?empty@?$ImVector@PEAUImFont@@@@QEBA_NXZ 000000018015d240 f i ImGuiDEBUG:imgui_draw.obj
 0001:0015c280       ?end@?$ImVector@I@@QEBAPEBIXZ 000000018015d280 f i ImGuiDEBUG:imgui_draw.obj
 0001:0015c2b0       ?end@?$ImVector@UImDrawCmd@@@@QEAAPEAUImDrawCmd@@XZ 000000018015d2b0 f i ImGuiDEBUG:imgui_draw.obj
 0001:0015c2e0       ?end@?$ImVector@UImFontConfig@@@@QEAAPEAUImFontConfig@@XZ 000000018015d2e0 f i ImGuiDEBUG:imgui_draw.obj
 0001:0015c310       ?erase@?$ImVector@UImDrawCmd@@@@QEAAPEAUImDrawCmd@@PEBU2@@Z 000000018015d310 f i ImGuiDEBUG:imgui_draw.obj
 0001:0015c440       ?find_erase_unsorted@ImTriangulatorNodeSpan@@QEAAXH@Z 000000018015d440 f i ImGuiDEBUG:imgui_draw.obj
 0001:0015c4f0       ?pop_back@?$ImVector@PEAX@@QEAAXXZ 000000018015d4f0 f i ImGuiDEBUG:imgui_draw.obj
 0001:0015c550       ?pop_back@?$ImVector@UImVec4@@@@QEAAXXZ 000000018015d550 f i ImGuiDEBUG:imgui_draw.obj
 0001:0015c5b0       ?push_back@?$ImVector@PEAUImDrawList@@@@QEAAXAEBQEAUImDrawList@@@Z 000000018015d5b0 f i ImGuiDEBUG:imgui_draw.obj
 0001:0015c640       ?push_back@?$ImVector@PEAX@@QEAAXAEBQEAX@Z 000000018015d640 f i ImGuiDEBUG:imgui_draw.obj
 0001:0015c6d0       ?push_back@?$ImVector@UImFontAtlasCustomRect@@@@QEAAXAEBUImFontAtlasCustomRect@@@Z 000000018015d6d0 f i ImGuiDEBUG:imgui_draw.obj
 0001:0015c770       ?push_back@?$ImVector@UImFontConfig@@@@QEAAXAEBUImFontConfig@@@Z 000000018015d770 f i ImGuiDEBUG:imgui_draw.obj
 0001:0015c820       ?push_back@?$ImVector@UImVec4@@@@QEAAXAEBUImVec4@@@Z 000000018015d820 f i ImGuiDEBUG:imgui_draw.obj
 0001:0015c8c0       ?push_back@ImTriangulatorNodeSpan@@QEAAXPEAUImTriangulatorNode@@@Z 000000018015d8c0 f i ImGuiDEBUG:imgui_draw.obj
 0001:0015c910       ?reserve@?$ImVector@PEAX@@QEAAXH@Z 000000018015d910 f i ImGuiDEBUG:imgui_draw.obj
 0001:0015c9d0       ?reserve@?$ImVector@UImDrawChannel@@@@QEAAXH@Z 000000018015d9d0 f i ImGuiDEBUG:imgui_draw.obj
 0001:0015ca90       ?reserve@?$ImVector@UImFontAtlasCustomRect@@@@QEAAXH@Z 000000018015da90 f i ImGuiDEBUG:imgui_draw.obj
 0001:0015cb50       ?reserve@?$ImVector@UImFontBuildDstData@@@@QEAAXH@Z 000000018015db50 f i ImGuiDEBUG:imgui_draw.obj
 0001:0015cc10       ?reserve@?$ImVector@UImFontBuildSrcData@@@@QEAAXH@Z 000000018015dc10 f i ImGuiDEBUG:imgui_draw.obj
 0001:0015ccd0       ?reserve@?$ImVector@UImFontConfig@@@@QEAAXH@Z 000000018015dcd0 f i ImGuiDEBUG:imgui_draw.obj
 0001:0015cd90       ?reserve@?$ImVector@UImFontGlyph@@@@QEAAXH@Z 000000018015dd90 f i ImGuiDEBUG:imgui_draw.obj
 0001:0015ce50       ?reserve@?$ImVector@UImVec4@@@@QEAAXH@Z 000000018015de50 f i ImGuiDEBUG:imgui_draw.obj
 0001:0015cf10       ?reserve@?$ImVector@Ustbrp_rect@@@@QEAAXH@Z 000000018015df10 f i ImGuiDEBUG:imgui_draw.obj
 0001:0015cfd0       ?reserve@?$ImVector@Ustbtt_packedchar@@@@QEAAXH@Z 000000018015dfd0 f i ImGuiDEBUG:imgui_draw.obj
 0001:0015d090       ?reserve_discard@?$ImVector@UImVec2@@@@QEAAXH@Z 000000018015e090 f i ImGuiDEBUG:imgui_draw.obj
 0001:0015d110       ?resize@?$ImVector@G@@QEAAXHAEBG@Z 000000018015e110 f i ImGuiDEBUG:imgui_draw.obj
 0001:0015d1d0       ?resize@?$ImVector@M@@QEAAXHAEBM@Z 000000018015e1d0 f i ImGuiDEBUG:imgui_draw.obj
 0001:0015d290       ?resize@?$ImVector@PEAX@@QEAAXH@Z 000000018015e290 f i ImGuiDEBUG:imgui_draw.obj
 0001:0015d2f0       ?resize@?$ImVector@UImDrawChannel@@@@QEAAXH@Z 000000018015e2f0 f i ImGuiDEBUG:imgui_draw.obj
 0001:0015d350       ?resize@?$ImVector@UImDrawCmd@@@@QEAAXH@Z 000000018015e350 f i ImGuiDEBUG:imgui_draw.obj
 0001:0015d3b0       ?resize@?$ImVector@UImDrawVert@@@@QEAAXH@Z 000000018015e3b0 f i ImGuiDEBUG:imgui_draw.obj
 0001:0015d410       ?resize@?$ImVector@UImFontBuildDstData@@@@QEAAXH@Z 000000018015e410 f i ImGuiDEBUG:imgui_draw.obj
 0001:0015d470       ?resize@?$ImVector@UImFontBuildSrcData@@@@QEAAXH@Z 000000018015e470 f i ImGuiDEBUG:imgui_draw.obj
 0001:0015d4d0       ?resize@?$ImVector@UImFontGlyph@@@@QEAAXH@Z 000000018015e4d0 f i ImGuiDEBUG:imgui_draw.obj
 0001:0015d530       ?resize@?$ImVector@UImVec2@@@@QEAAXH@Z 000000018015e530 f i ImGuiDEBUG:imgui_draw.obj
 0001:0015d590       ?resize@?$ImVector@UImVec4@@@@QEAAXH@Z 000000018015e590 f i ImGuiDEBUG:imgui_draw.obj
 0001:0015d5f0       ?resize@?$ImVector@Ustbrp_rect@@@@QEAAXH@Z 000000018015e5f0 f i ImGuiDEBUG:imgui_draw.obj
 0001:0015d650       ?resize@?$ImVector@Ustbtt_packedchar@@@@QEAAXH@Z 000000018015e650 f i ImGuiDEBUG:imgui_draw.obj
 0001:0015d6b0       ?shrink@?$ImVector@G@@QEAAXH@Z 000000018015e6b0 f i ImGuiDEBUG:imgui_draw.obj
 0001:0015d710       ?shrink@?$ImVector@UImDrawVert@@@@QEAAXH@Z 000000018015e710 f i ImGuiDEBUG:imgui_draw.obj
 0001:0015d770       ?size_in_bytes@?$ImVector@UImFontBuildDstData@@@@QEBAHXZ 000000018015e770 f i ImGuiDEBUG:imgui_draw.obj
 0001:0015d790       ?size_in_bytes@?$ImVector@UImFontBuildSrcData@@@@QEBAHXZ 000000018015e790 f i ImGuiDEBUG:imgui_draw.obj
 0001:0015d7b0       ?size_in_bytes@?$ImVector@Ustbrp_rect@@@@QEBAHXZ 000000018015e7b0 f i ImGuiDEBUG:imgui_draw.obj
 0001:0015d7d0       ?size_in_bytes@?$ImVector@Ustbtt_packedchar@@@@QEBAHXZ 000000018015e7d0 f i ImGuiDEBUG:imgui_draw.obj
 0001:0015d7f0       ?swap@?$ImVector@UImDrawVert@@@@QEAAXAEAU1@@Z 000000018015e7f0 f i ImGuiDEBUG:imgui_draw.obj
 0001:0015d8a0       ?BeginTable@ImGui@@YA_NPEBDHHAEBUImVec2@@M@Z 000000018015e8a0 f   ImGuiDEBUG:imgui_tables.obj
 0001:0015d900       ?EndTable@ImGui@@YAXXZ     000000018015e900 f   ImGuiDEBUG:imgui_tables.obj
 0001:0015e9b0       ?TableNextRow@ImGui@@YAXHM@Z 000000018015f9b0 f   ImGuiDEBUG:imgui_tables.obj
 0001:0015eb30       ?TableNextColumn@ImGui@@YA_NXZ 000000018015fb30 f   ImGuiDEBUG:imgui_tables.obj
 0001:0015ec00       ?TableSetColumnIndex@ImGui@@YA_NH@Z 000000018015fc00 f   ImGuiDEBUG:imgui_tables.obj
 0001:0015ecc0       ?TableSetupColumn@ImGui@@YAXPEBDHMI@Z 000000018015fcc0 f   ImGuiDEBUG:imgui_tables.obj
 0001:0015f140       ?TableSetupScrollFreeze@ImGui@@YAXHH@Z 0000000180160140 f   ImGuiDEBUG:imgui_tables.obj
 0001:0015f490       ?TableHeader@ImGui@@YAXPEBD@Z 0000000180160490 f   ImGuiDEBUG:imgui_tables.obj
 0001:001600a0       ?TableHeadersRow@ImGui@@YAXXZ 00000001801610a0 f   ImGuiDEBUG:imgui_tables.obj
 0001:00160240       ?TableAngledHeadersRow@ImGui@@YAXXZ 0000000180161240 f   ImGuiDEBUG:imgui_tables.obj
 0001:00160510       ?TableGetSortSpecs@ImGui@@YAPEAUImGuiTableSortSpecs@@XZ 0000000180161510 f   ImGuiDEBUG:imgui_tables.obj
 0001:001605b0       ?TableGetColumnCount@ImGui@@YAHXZ 00000001801615b0 f   ImGuiDEBUG:imgui_tables.obj
 0001:00160600       ?TableGetColumnIndex@ImGui@@YAHXZ 0000000180161600 f   ImGuiDEBUG:imgui_tables.obj
 0001:00160640       ?TableGetRowIndex@ImGui@@YAHXZ 0000000180161640 f   ImGuiDEBUG:imgui_tables.obj
 0001:00160680       ?TableGetColumnName@ImGui@@YAPEBDH@Z 0000000180161680 f   ImGuiDEBUG:imgui_tables.obj
 0001:001606e0       ?TableGetColumnFlags@ImGui@@YAHH@Z 00000001801616e0 f   ImGuiDEBUG:imgui_tables.obj
 0001:00160780       ?TableSetColumnEnabled@ImGui@@YAXH_N@Z 0000000180161780 f   ImGuiDEBUG:imgui_tables.obj
 0001:00160880       ?TableGetHoveredColumn@ImGui@@YAHXZ 0000000180161880 f   ImGuiDEBUG:imgui_tables.obj
 0001:001608d0       ?TableSetBgColor@ImGui@@YAXHIH@Z 00000001801618d0 f   ImGuiDEBUG:imgui_tables.obj
 0001:00160b00       ?Columns@ImGui@@YAXHPEBD_N@Z 0000000180161b00 f   ImGuiDEBUG:imgui_tables.obj
 0001:00160bd0       ?NextColumn@ImGui@@YAXXZ   0000000180161bd0 f   ImGuiDEBUG:imgui_tables.obj
 0001:00160ee0       ?GetColumnIndex@ImGui@@YAHXZ 0000000180161ee0 f   ImGuiDEBUG:imgui_tables.obj
 0001:00160f30       ?GetColumnWidth@ImGui@@YAMH@Z 0000000180161f30 f   ImGuiDEBUG:imgui_tables.obj
 0001:00160ff0       ?SetColumnWidth@ImGui@@YAXHM@Z 0000000180161ff0 f   ImGuiDEBUG:imgui_tables.obj
 0001:00161080       ?GetColumnOffset@ImGui@@YAMH@Z 0000000180162080 f   ImGuiDEBUG:imgui_tables.obj
 0001:00161150       ?SetColumnOffset@ImGui@@YAXHM@Z 0000000180162150 f   ImGuiDEBUG:imgui_tables.obj
 0001:00161350       ?GetColumnsCount@ImGui@@YAHXZ 0000000180162350 f   ImGuiDEBUG:imgui_tables.obj
 0001:001618f0       ?SetWindowClipRectBeforeSetChannel@ImGui@@YAXPEAUImGuiWindow@@AEBUImRect@@@Z 00000001801628f0 f   ImGuiDEBUG:imgui_tables.obj
 0001:001619a0       ?BeginColumns@ImGui@@YAXPEBDHH@Z 00000001801629a0 f   ImGuiDEBUG:imgui_tables.obj
 0001:00162030       ?EndColumns@ImGui@@YAXXZ   0000000180163030 f   ImGuiDEBUG:imgui_tables.obj
 0001:00162590       ?PushColumnClipRect@ImGui@@YAXH@Z 0000000180163590 f   ImGuiDEBUG:imgui_tables.obj
 0001:00162610       ?PushColumnsBackground@ImGui@@YAXXZ 0000000180163610 f   ImGuiDEBUG:imgui_tables.obj
 0001:001626a0       ?PopColumnsBackground@ImGui@@YAXXZ 00000001801636a0 f   ImGuiDEBUG:imgui_tables.obj
 0001:00162720       ?GetColumnsID@ImGui@@YAIPEBDH@Z 0000000180163720 f   ImGuiDEBUG:imgui_tables.obj
 0001:001627b0       ?FindOrCreateColumns@ImGui@@YAPEAUImGuiOldColumns@@PEAUImGuiWindow@@I@Z 00000001801637b0 f   ImGuiDEBUG:imgui_tables.obj
 0001:001628a0       ?GetColumnOffsetFromNorm@ImGui@@YAMPEBUImGuiOldColumns@@M@Z 00000001801638a0 f   ImGuiDEBUG:imgui_tables.obj
 0001:001628e0       ?GetColumnNormFromOffset@ImGui@@YAMPEBUImGuiOldColumns@@M@Z 00000001801638e0 f   ImGuiDEBUG:imgui_tables.obj
 0001:00162920       ?TableOpenContextMenu@ImGui@@YAXH@Z 0000000180163920 f   ImGuiDEBUG:imgui_tables.obj
 0001:00162a20       ?TableSetColumnWidth@ImGui@@YAXHM@Z 0000000180163a20 f   ImGuiDEBUG:imgui_tables.obj
 0001:00162d90       ?TableSetColumnSortDirection@ImGui@@YAXHW4ImGuiSortDirection@@_N@Z 0000000180163d90 f   ImGuiDEBUG:imgui_tables.obj
 0001:00162fa0       ?TableGetHoveredRow@ImGui@@YAHXZ 0000000180163fa0 f   ImGuiDEBUG:imgui_tables.obj
 0001:00163000       ?TableGetHeaderRowHeight@ImGui@@YAMXZ 0000000180164000 f   ImGuiDEBUG:imgui_tables.obj
 0001:00163130       ?TableGetHeaderAngledMaxLabelWidth@ImGui@@YAMXZ 0000000180164130 f   ImGuiDEBUG:imgui_tables.obj
 0001:00163260       ?TablePushBackgroundChannel@ImGui@@YAXXZ 0000000180164260 f   ImGuiDEBUG:imgui_tables.obj
 0001:00163310       ?TablePopBackgroundChannel@ImGui@@YAXXZ 0000000180164310 f   ImGuiDEBUG:imgui_tables.obj
 0001:001633b0       ?TableAngledHeadersRowEx@ImGui@@YAXIMMPEBUImGuiTableHeaderData@@H@Z 00000001801643b0 f   ImGuiDEBUG:imgui_tables.obj
 0001:001643d0       ?TableFindByID@ImGui@@YAPEAUImGuiTable@@I@Z 00000001801653d0 f   ImGuiDEBUG:imgui_tables.obj
 0001:00164410       ?BeginTableEx@ImGui@@YA_NPEBDIHHAEBUImVec2@@M@Z 0000000180165410 f   ImGuiDEBUG:imgui_tables.obj
 0001:00165a90       ?TableBeginInitMemory@ImGui@@YAXPEAUImGuiTable@@H@Z 0000000180166a90 f   ImGuiDEBUG:imgui_tables.obj
 0001:00165c90       ?TableBeginApplyRequests@ImGui@@YAXPEAUImGuiTable@@@Z 0000000180166c90 f   ImGuiDEBUG:imgui_tables.obj
 0001:001660b0       ?TableSetupDrawChannels@ImGui@@YAXPEAUImGuiTable@@@Z 00000001801670b0 f   ImGuiDEBUG:imgui_tables.obj
 0001:00166430       ?TableUpdateLayout@ImGui@@YAXPEAUImGuiTable@@@Z 0000000180167430 f   ImGuiDEBUG:imgui_tables.obj
 0001:00168620       ?TableUpdateBorders@ImGui@@YAXPEAUImGuiTable@@@Z 0000000180169620 f   ImGuiDEBUG:imgui_tables.obj
 0001:00168aa0       ?TableUpdateColumnsWeightFromWidth@ImGui@@YAXPEAUImGuiTable@@@Z 0000000180169aa0 f   ImGuiDEBUG:imgui_tables.obj
 0001:00168cb0       ?TableDrawBorders@ImGui@@YAXPEAUImGuiTable@@@Z 0000000180169cb0 f   ImGuiDEBUG:imgui_tables.obj
 0001:00169560       ?TableDrawDefaultContextMenu@ImGui@@YAXPEAUImGuiTable@@H@Z 000000018016a560 f   ImGuiDEBUG:imgui_tables.obj
 0001:00169920       ?TableBeginContextMenuPopup@ImGui@@YA_NPEAUImGuiTable@@@Z 000000018016a920 f   ImGuiDEBUG:imgui_tables.obj
 0001:001699a0       ?TableMergeDrawChannels@ImGui@@YAXPEAUImGuiTable@@@Z 000000018016a9a0 f   ImGuiDEBUG:imgui_tables.obj
 0001:0016a5c0       ?TableSortSpecsSanitize@ImGui@@YAXPEAUImGuiTable@@@Z 000000018016b5c0 f   ImGuiDEBUG:imgui_tables.obj
 0001:0016aa40       ?TableSortSpecsBuild@ImGui@@YAXPEAUImGuiTable@@@Z 000000018016ba40 f   ImGuiDEBUG:imgui_tables.obj
 0001:0016ac60       ?TableGetColumnNextSortDirection@ImGui@@YA?AW4ImGuiSortDirection@@PEAUImGuiTableColumn@@@Z 000000018016bc60 f   ImGuiDEBUG:imgui_tables.obj
 0001:0016ad60       ?TableFixColumnSortDirection@ImGui@@YAXPEAUImGuiTable@@PEAUImGuiTableColumn@@@Z 000000018016bd60 f   ImGuiDEBUG:imgui_tables.obj
 0001:0016ae00       ?TableGetColumnWidthAuto@ImGui@@YAMPEAUImGuiTable@@PEAUImGuiTableColumn@@@Z 000000018016be00 f   ImGuiDEBUG:imgui_tables.obj
 0001:0016af00       ?TableBeginRow@ImGui@@YAXPEAUImGuiTable@@@Z 000000018016bf00 f   ImGuiDEBUG:imgui_tables.obj
 0001:0016b180       ?TableEndRow@ImGui@@YAXPEAUImGuiTable@@@Z 000000018016c180 f   ImGuiDEBUG:imgui_tables.obj
 0001:0016be40       ?TableBeginCell@ImGui@@YAXPEAUImGuiTable@@H@Z 000000018016ce40 f   ImGuiDEBUG:imgui_tables.obj
 0001:0016c100       ?TableEndCell@ImGui@@YAXPEAUImGuiTable@@@Z 000000018016d100 f   ImGuiDEBUG:imgui_tables.obj
 0001:0016c270       ?TableGetCellBgRect@ImGui@@YA?AUImRect@@PEBUImGuiTable@@H@Z 000000018016d270 f   ImGuiDEBUG:imgui_tables.obj
 0001:0016c340       ?TableGetColumnName@ImGui@@YAPEBDPEBUImGuiTable@@H@Z 000000018016d340 f   ImGuiDEBUG:imgui_tables.obj
 0001:0016c3d0       ?TableGetColumnResizeID@ImGui@@YAIPEAUImGuiTable@@HH@Z 000000018016d3d0 f   ImGuiDEBUG:imgui_tables.obj
 0001:0016c440       ?TableGetMaxColumnWidth@ImGui@@YAMPEBUImGuiTable@@H@Z 000000018016d440 f   ImGuiDEBUG:imgui_tables.obj
 0001:0016c630       ?TableSetColumnWidthAutoSingle@ImGui@@YAXPEAUImGuiTable@@H@Z 000000018016d630 f   ImGuiDEBUG:imgui_tables.obj
 0001:0016c690       ?TableSetColumnWidthAutoAll@ImGui@@YAXPEAUImGuiTable@@@Z 000000018016d690 f   ImGuiDEBUG:imgui_tables.obj
 0001:0016c720       ?TableRemove@ImGui@@YAXPEAUImGuiTable@@@Z 000000018016d720 f   ImGuiDEBUG:imgui_tables.obj
 0001:0016c7a0       ?TableGcCompactTransientBuffers@ImGui@@YAXPEAUImGuiTable@@@Z 000000018016d7a0 f   ImGuiDEBUG:imgui_tables.obj
 0001:0016c8c0       ?TableGcCompactTransientBuffers@ImGui@@YAXPEAUImGuiTableTempData@@@Z 000000018016d8c0 f   ImGuiDEBUG:imgui_tables.obj
 0001:0016c900       ?TableGcCompactSettings@ImGui@@YAXXZ 000000018016d900 f   ImGuiDEBUG:imgui_tables.obj
 0001:0016ca70       ?TableLoadSettings@ImGui@@YAXPEAUImGuiTable@@@Z 000000018016da70 f   ImGuiDEBUG:imgui_tables.obj
 0001:0016ce20       ?TableSaveSettings@ImGui@@YAXPEAUImGuiTable@@@Z 000000018016de20 f   ImGuiDEBUG:imgui_tables.obj
 0001:0016d1d0       ?TableResetSettings@ImGui@@YAXPEAUImGuiTable@@@Z 000000018016e1d0 f   ImGuiDEBUG:imgui_tables.obj
 0001:0016d220       ?TableGetBoundSettings@ImGui@@YAPEAUImGuiTableSettings@@PEAUImGuiTable@@@Z 000000018016e220 f   ImGuiDEBUG:imgui_tables.obj
 0001:0016d2c0       ?TableSettingsAddSettingsHandler@ImGui@@YAXXZ 000000018016e2c0 f   ImGuiDEBUG:imgui_tables.obj
 0001:0016d350       ?TableSettingsCreate@ImGui@@YAPEAUImGuiTableSettings@@IH@Z 000000018016e350 f   ImGuiDEBUG:imgui_tables.obj
 0001:0016d3c0       ?TableSettingsFindByID@ImGui@@YAPEAUImGuiTableSettings@@I@Z 000000018016e3c0 f   ImGuiDEBUG:imgui_tables.obj
 0001:0016d440       ?DebugNodeTable@ImGui@@YAXPEAUImGuiTable@@@Z 000000018016e440 f   ImGuiDEBUG:imgui_tables.obj
 0001:0016e200       ?DebugNodeTableSettings@ImGui@@YAXPEAUImGuiTableSettings@@@Z 000000018016f200 f   ImGuiDEBUG:imgui_tables.obj
 0001:00174060       ??$GetSpan@F@?$ImSpanAllocator@$05@@QEAAXHPEAU?$ImSpan@F@@@Z 0000000180175060 f i ImGuiDEBUG:imgui_tables.obj
 0001:001740d0       ??$GetSpan@UImGuiTableCellData@@@?$ImSpanAllocator@$05@@QEAAXHPEAU?$ImSpan@UImGuiTableCellData@@@@@Z 00000001801750d0 f i ImGuiDEBUG:imgui_tables.obj
 0001:00174140       ??$GetSpan@UImGuiTableColumn@@@?$ImSpanAllocator@$05@@QEAAXHPEAU?$ImSpan@UImGuiTableColumn@@@@@Z 0000000180175140 f i ImGuiDEBUG:imgui_tables.obj
 0001:001741b0       ??0?$ImSpan@F@@QEAA@XZ     00000001801751b0 f i ImGuiDEBUG:imgui_tables.obj
 0001:001741e0       ??0?$ImSpan@UImGuiTableCellData@@@@QEAA@XZ 00000001801751e0 f i ImGuiDEBUG:imgui_tables.obj
 0001:00174210       ??0?$ImSpan@UImGuiTableColumn@@@@QEAA@XZ 0000000180175210 f i ImGuiDEBUG:imgui_tables.obj
 0001:00174240       ??0?$ImSpanAllocator@$05@@QEAA@XZ 0000000180175240 f i ImGuiDEBUG:imgui_tables.obj
 0001:00174270       ??0?$ImVector@UImGuiOldColumnData@@@@QEAA@XZ 0000000180175270 f i ImGuiDEBUG:imgui_tables.obj
 0001:001742b0       ??0?$ImVector@UImGuiTableColumnSortSpecs@@@@QEAA@XZ 00000001801752b0 f i ImGuiDEBUG:imgui_tables.obj
 0001:001742f0       ??0?$ImVector@UImGuiTableHeaderData@@@@QEAA@XZ 00000001801752f0 f i ImGuiDEBUG:imgui_tables.obj
 0001:00174330       ??0?$ImVector@UImGuiTableInstanceData@@@@QEAA@XZ 0000000180175330 f i ImGuiDEBUG:imgui_tables.obj
 0001:00174370       ??0ImGuiOldColumnData@@QEAA@XZ 0000000180175370 f i ImGuiDEBUG:imgui_tables.obj
 0001:001743c0       ??0ImGuiOldColumns@@QEAA@XZ 00000001801753c0 f i ImGuiDEBUG:imgui_tables.obj
 0001:00174460       ??0ImGuiTable@@QEAA@XZ     0000000180175460 f i ImGuiDEBUG:imgui_tables.obj
 0001:00174640       ??0ImGuiTableColumn@@QEAA@XZ 0000000180175640 f i ImGuiDEBUG:imgui_tables.obj
 0001:00174770       ??0ImGuiTableColumnSettings@@QEAA@XZ 0000000180175770 f i ImGuiDEBUG:imgui_tables.obj
 0001:00174820       ??0ImGuiTableColumnSortSpecs@@QEAA@XZ 0000000180175820 f i ImGuiDEBUG:imgui_tables.obj
 0001:00174850       ??0ImGuiTableInstanceData@@QEAA@XZ 0000000180175850 f i ImGuiDEBUG:imgui_tables.obj
 0001:001748c0       ??0ImGuiTableSettings@@QEAA@XZ 00000001801758c0 f i ImGuiDEBUG:imgui_tables.obj
 0001:001748f0       ??0ImGuiTableSortSpecs@@QEAA@XZ 00000001801758f0 f i ImGuiDEBUG:imgui_tables.obj
 0001:00174920       ??0ImGuiTableTempData@@QEAA@XZ 0000000180175920 f i ImGuiDEBUG:imgui_tables.obj
 0001:00174a30       ??A?$ImSpan@F@@QEAAAEAFH@Z 0000000180175a30 f i ImGuiDEBUG:imgui_tables.obj
 0001:00174ab0       ??A?$ImSpan@UImGuiTableCellData@@@@QEAAAEAUImGuiTableCellData@@H@Z 0000000180175ab0 f i ImGuiDEBUG:imgui_tables.obj
 0001:00174b30       ??A?$ImSpan@UImGuiTableColumn@@@@QEBAAEBUImGuiTableColumn@@H@Z 0000000180175b30 f i ImGuiDEBUG:imgui_tables.obj
 0001:00174bb0       ??A?$ImVector@D@@QEBAAEBDH@Z 0000000180175bb0 f i ImGuiDEBUG:imgui_tables.obj
 0001:00174c20       ??A?$ImVector@UImGuiOldColumnData@@@@QEAAAEAUImGuiOldColumnData@@H@Z 0000000180175c20 f i ImGuiDEBUG:imgui_tables.obj
 0001:00174c90       ??A?$ImVector@UImGuiOldColumns@@@@QEAAAEAUImGuiOldColumns@@H@Z 0000000180175c90 f i ImGuiDEBUG:imgui_tables.obj
 0001:00174d00       ??A?$ImVector@UImGuiTableTempData@@@@QEAAAEAUImGuiTableTempData@@H@Z 0000000180175d00 f i ImGuiDEBUG:imgui_tables.obj
 0001:00174d70       ?Add@?$ImPool@UImGuiTable@@@@QEAAPEAUImGuiTable@@XZ 0000000180175d70 f i ImGuiDEBUG:imgui_tables.obj
 0001:00174e80       ?GetArenaSizeInBytes@?$ImSpanAllocator@$05@@QEAAHXZ 0000000180175e80 f i ImGuiDEBUG:imgui_tables.obj
 0001:00174ea0       ?GetByKey@?$ImPool@UImGuiTable@@@@QEAAPEAUImGuiTable@@I@Z 0000000180175ea0 f i ImGuiDEBUG:imgui_tables.obj
 0001:00174f20       ?GetColumnSettings@ImGuiTableSettings@@QEAAPEAUImGuiTableColumnSettings@@XZ 0000000180175f20 f i ImGuiDEBUG:imgui_tables.obj
 0001:00174f40       ?GetIndex@?$ImPool@UImGuiTable@@@@QEBAHPEBUImGuiTable@@@Z 0000000180175f40 f i ImGuiDEBUG:imgui_tables.obj
 0001:00174fe0       ?GetOrAddByKey@?$ImPool@UImGuiTable@@@@QEAAPEAUImGuiTable@@I@Z 0000000180175fe0 f i ImGuiDEBUG:imgui_tables.obj
 0001:00175070       ?GetSpanPtrBegin@?$ImSpanAllocator@$05@@QEAAPEAXH@Z 0000000180176070 f i ImGuiDEBUG:imgui_tables.obj
 0001:001750f0       ?GetSpanPtrEnd@?$ImSpanAllocator@$05@@QEAAPEAXH@Z 00000001801760f0 f i ImGuiDEBUG:imgui_tables.obj
 0001:00175190       ?ImBitArrayClearAllBits@@YAXPEAIH@Z 0000000180176190 f i ImGuiDEBUG:imgui_tables.obj
 0001:001751d0       ?ImBitArrayClearBit@@YAXPEAIH@Z 00000001801761d0 f i ImGuiDEBUG:imgui_tables.obj
 0001:00175240       ?ImBitArrayGetStorageSizeInBytes@@YA_KH@Z 0000000180176240 f i ImGuiDEBUG:imgui_tables.obj
 0001:00175260       ?ImBitArraySetBitRange@@YAXPEAIHH@Z 0000000180176260 f i ImGuiDEBUG:imgui_tables.obj
 0001:00175370       ?Remove@?$ImPool@UImGuiTable@@@@QEAAXIH@Z 0000000180176370 f i ImGuiDEBUG:imgui_tables.obj
 0001:00175420       ?Remove@?$ImPool@UImGuiTable@@@@QEAAXIPEBUImGuiTable@@@Z 0000000180176420 f i ImGuiDEBUG:imgui_tables.obj
 0001:00175470       ?Reserve@?$ImSpanAllocator@$05@@QEAAXH_KH@Z 0000000180176470 f i ImGuiDEBUG:imgui_tables.obj
 0001:00175560       ?SetArenaBasePtr@?$ImSpanAllocator@$05@@QEAAXPEAX@Z 0000000180176560 f i ImGuiDEBUG:imgui_tables.obj
 0001:00175580       ?TableFixFlags@@YAHHPEAUImGuiWindow@@@Z 0000000180176580 f i ImGuiDEBUG:imgui_tables.obj
 0001:001756c0       ?TableGetInstanceID@ImGui@@YAIPEAUImGuiTable@@H@Z 00000001801766c0 f i ImGuiDEBUG:imgui_tables.obj
 0001:001756f0       ?_grow_capacity@?$ImVector@UImGuiOldColumnData@@@@QEBAHH@Z 00000001801766f0 f i ImGuiDEBUG:imgui_tables.obj
 0001:00175770       ?_grow_capacity@?$ImVector@UImGuiOldColumns@@@@QEBAHH@Z 0000000180176770 f i ImGuiDEBUG:imgui_tables.obj
 0001:001757f0       ?_grow_capacity@?$ImVector@UImGuiTable@@@@QEBAHH@Z 00000001801767f0 f i ImGuiDEBUG:imgui_tables.obj
 0001:00175870       ?_grow_capacity@?$ImVector@UImGuiTableColumnSortSpecs@@@@QEBAHH@Z 0000000180176870 f i ImGuiDEBUG:imgui_tables.obj
 0001:001758f0       ?_grow_capacity@?$ImVector@UImGuiTableHeaderData@@@@QEBAHH@Z 00000001801768f0 f i ImGuiDEBUG:imgui_tables.obj
 0001:00175970       ?_grow_capacity@?$ImVector@UImGuiTableInstanceData@@@@QEBAHH@Z 0000000180176970 f i ImGuiDEBUG:imgui_tables.obj
 0001:001759f0       ?_grow_capacity@?$ImVector@UImGuiTableTempData@@@@QEBAHH@Z 00000001801769f0 f i ImGuiDEBUG:imgui_tables.obj
 0001:00175a70       ?alloc_chunk@?$ImChunkStream@UImGuiTableSettings@@@@QEAAPEAUImGuiTableSettings@@_K@Z 0000000180176a70 f i ImGuiDEBUG:imgui_tables.obj
 0001:00175b30       ?back@?$ImVector@UImGuiOldColumns@@@@QEAAAEAUImGuiOldColumns@@XZ 0000000180176b30 f i ImGuiDEBUG:imgui_tables.obj
 0001:00175ba0       ?clear@?$ImChunkStream@UImGuiTableSettings@@@@QEAAXXZ 0000000180176ba0 f i ImGuiDEBUG:imgui_tables.obj
 0001:00175bd0       ?clear@?$ImVector@UImGuiTableColumnSortSpecs@@@@QEAAXXZ 0000000180176bd0 f i ImGuiDEBUG:imgui_tables.obj
 0001:00175c30       ?index_from_ptr@?$ImSpan@UImGuiTableColumn@@@@QEBAHPEBUImGuiTableColumn@@@Z 0000000180176c30 f i ImGuiDEBUG:imgui_tables.obj
 0001:00175cc0       ?offset_from_ptr@?$ImChunkStream@UImGuiTableSettings@@@@QEAAHPEBUImGuiTableSettings@@@Z 0000000180176cc0 f i ImGuiDEBUG:imgui_tables.obj
 0001:00175d50       ?ptr_from_offset@?$ImChunkStream@UImGuiTableSettings@@@@QEAAPEAUImGuiTableSettings@@H@Z 0000000180176d50 f i ImGuiDEBUG:imgui_tables.obj
 0001:00175dc0       ?push_back@?$ImVector@UImGuiOldColumnData@@@@QEAAXAEBUImGuiOldColumnData@@@Z 0000000180176dc0 f i ImGuiDEBUG:imgui_tables.obj
 0001:00175e60       ?push_back@?$ImVector@UImGuiOldColumns@@@@QEAAXAEBUImGuiOldColumns@@@Z 0000000180176e60 f i ImGuiDEBUG:imgui_tables.obj
 0001:00175f10       ?push_back@?$ImVector@UImGuiTableHeaderData@@@@QEAAXAEBUImGuiTableHeaderData@@@Z 0000000180176f10 f i ImGuiDEBUG:imgui_tables.obj
 0001:00175fb0       ?push_back@?$ImVector@UImGuiTableInstanceData@@@@QEAAXAEBUImGuiTableInstanceData@@@Z 0000000180176fb0 f i ImGuiDEBUG:imgui_tables.obj
 0001:00176050       ?reserve@?$ImVector@UImGuiOldColumnData@@@@QEAAXH@Z 0000000180177050 f i ImGuiDEBUG:imgui_tables.obj
 0001:00176110       ?reserve@?$ImVector@UImGuiOldColumns@@@@QEAAXH@Z 0000000180177110 f i ImGuiDEBUG:imgui_tables.obj
 0001:001761d0       ?reserve@?$ImVector@UImGuiTable@@@@QEAAXH@Z 00000001801771d0 f i ImGuiDEBUG:imgui_tables.obj
 0001:00176290       ?reserve@?$ImVector@UImGuiTableColumnSortSpecs@@@@QEAAXH@Z 0000000180177290 f i ImGuiDEBUG:imgui_tables.obj
 0001:00176350       ?reserve@?$ImVector@UImGuiTableHeaderData@@@@QEAAXH@Z 0000000180177350 f i ImGuiDEBUG:imgui_tables.obj
 0001:00176410       ?reserve@?$ImVector@UImGuiTableInstanceData@@@@QEAAXH@Z 0000000180177410 f i ImGuiDEBUG:imgui_tables.obj
 0001:001764d0       ?reserve@?$ImVector@UImGuiTableTempData@@@@QEAAXH@Z 00000001801774d0 f i ImGuiDEBUG:imgui_tables.obj
 0001:00176590       ?resize@?$ImVector@UImGuiOldColumnData@@@@QEAAXH@Z 0000000180177590 f i ImGuiDEBUG:imgui_tables.obj
 0001:001765f0       ?resize@?$ImVector@UImGuiTable@@@@QEAAXH@Z 00000001801775f0 f i ImGuiDEBUG:imgui_tables.obj
 0001:00176650       ?resize@?$ImVector@UImGuiTableColumnSortSpecs@@@@QEAAXH@Z 0000000180177650 f i ImGuiDEBUG:imgui_tables.obj
 0001:001766b0       ?resize@?$ImVector@UImGuiTableHeaderData@@@@QEAAXH@Z 00000001801776b0 f i ImGuiDEBUG:imgui_tables.obj
 0001:00176710       ?resize@?$ImVector@UImGuiTableTempData@@@@QEAAXHAEBUImGuiTableTempData@@@Z 0000000180177710 f i ImGuiDEBUG:imgui_tables.obj
 0001:001767e0       ?set@?$ImSpan@F@@QEAAXPEAF0@Z 00000001801777e0 f i ImGuiDEBUG:imgui_tables.obj
 0001:00176820       ?set@?$ImSpan@UImGuiTableCellData@@@@QEAAXPEAUImGuiTableCellData@@0@Z 0000000180177820 f i ImGuiDEBUG:imgui_tables.obj
 0001:00176860       ?set@?$ImSpan@UImGuiTableColumn@@@@QEAAXPEAUImGuiTableColumn@@0@Z 0000000180177860 f i ImGuiDEBUG:imgui_tables.obj
 0001:001768a0       ?size@?$ImSpan@UImGuiTableColumn@@@@QEBAHXZ 00000001801778a0 f i ImGuiDEBUG:imgui_tables.obj
 0001:001768d0       ?swap@?$ImChunkStream@UImGuiTableSettings@@@@QEAAXAEAU1@@Z 00000001801778d0 f i ImGuiDEBUG:imgui_tables.obj
 0001:00176900       ?swap@?$ImVector@D@@QEAAXAEAU1@@Z 0000000180177900 f i ImGuiDEBUG:imgui_tables.obj
 0001:0017db40       ma_aligned_free            000000018017eb40 f   miniaudio:miniaudio.obj
 0001:0017db70       ma_aligned_malloc          000000018017eb70 f   miniaudio:miniaudio.obj
 0001:0017dcc0       ma_apply_volume_factor_f32 000000018017ecc0 f   miniaudio:miniaudio.obj
 0001:0017dce0       ma_apply_volume_factor_pcm_frames 000000018017ece0 f   miniaudio:miniaudio.obj
 0001:0017dd20       ma_apply_volume_factor_pcm_frames_f32 000000018017ed20 f   miniaudio:miniaudio.obj
 0001:0017dd40       ma_apply_volume_factor_pcm_frames_s16 000000018017ed40 f   miniaudio:miniaudio.obj
 0001:0017dd60       ma_apply_volume_factor_pcm_frames_s24 000000018017ed60 f   miniaudio:miniaudio.obj
 0001:0017dd80       ma_apply_volume_factor_pcm_frames_s32 000000018017ed80 f   miniaudio:miniaudio.obj
 0001:0017dda0       ma_apply_volume_factor_pcm_frames_u8 000000018017eda0 f   miniaudio:miniaudio.obj
 0001:0017ddc0       ma_apply_volume_factor_s16 000000018017edc0 f   miniaudio:miniaudio.obj
 0001:0017dde0       ma_apply_volume_factor_s24 000000018017ede0 f   miniaudio:miniaudio.obj
 0001:0017de00       ma_apply_volume_factor_s32 000000018017ee00 f   miniaudio:miniaudio.obj
 0001:0017de20       ma_apply_volume_factor_u8  000000018017ee20 f   miniaudio:miniaudio.obj
 0001:0017def0       ma_async_notification_event_init 000000018017eef0 f   miniaudio:miniaudio.obj
 0001:0017dfa0       ma_async_notification_event_signal 000000018017efa0 f   miniaudio:miniaudio.obj
 0001:0017e010       ma_async_notification_event_uninit 000000018017f010 f   miniaudio:miniaudio.obj
 0001:0017e050       ma_async_notification_event_wait 000000018017f050 f   miniaudio:miniaudio.obj
 0001:0017e0f0       ma_async_notification_poll_init 000000018017f0f0 f   miniaudio:miniaudio.obj
 0001:0017e120       ma_async_notification_poll_is_signalled 000000018017f120 f   miniaudio:miniaudio.obj
 0001:0017e130       ma_async_notification_signal 000000018017f130 f   miniaudio:miniaudio.obj
 0001:0017e3a0       ma_atomic_vec3f_get        000000018017f3a0 f   miniaudio:miniaudio.obj
 0001:0017e420       ma_atomic_vec3f_init       000000018017f420 f   miniaudio:miniaudio.obj
 0001:0017e440       ma_atomic_vec3f_set        000000018017f440 f   miniaudio:miniaudio.obj
 0001:0017e5b0       ma_audio_buffer_alloc_and_init 000000018017f5b0 f   miniaudio:miniaudio.obj
 0001:0017e810       ma_audio_buffer_at_end     000000018017f810 f   miniaudio:miniaudio.obj
 0001:0017e830       ma_audio_buffer_config_init 000000018017f830 f   miniaudio:miniaudio.obj
 0001:0017e970       ma_audio_buffer_get_available_frames 000000018017f970 f   miniaudio:miniaudio.obj
 0001:0017e9b0       ma_audio_buffer_get_cursor_in_pcm_frames 000000018017f9b0 f   miniaudio:miniaudio.obj
 0001:0017e9e0       ma_audio_buffer_get_length_in_pcm_frames 000000018017f9e0 f   miniaudio:miniaudio.obj
 0001:0017ea10       ma_audio_buffer_init       000000018017fa10 f   miniaudio:miniaudio.obj
 0001:0017ea20       ma_audio_buffer_init_copy  000000018017fa20 f   miniaudio:miniaudio.obj
 0001:0017ecd0       ma_audio_buffer_map        000000018017fcd0 f   miniaudio:miniaudio.obj
 0001:0017edd0       ma_audio_buffer_read_pcm_frames 000000018017fdd0 f   miniaudio:miniaudio.obj
 0001:0017ede0       ma_audio_buffer_ref_at_end 000000018017fde0 f   miniaudio:miniaudio.obj
 0001:0017ee00       ma_audio_buffer_ref_get_available_frames 000000018017fe00 f   miniaudio:miniaudio.obj
 0001:0017ee40       ma_audio_buffer_ref_get_cursor_in_pcm_frames 000000018017fe40 f   miniaudio:miniaudio.obj
 0001:0017ee70       ma_audio_buffer_ref_get_length_in_pcm_frames 000000018017fe70 f   miniaudio:miniaudio.obj
 0001:0017eea0       ma_audio_buffer_ref_init   000000018017fea0 f   miniaudio:miniaudio.obj
 0001:0017ef20       ma_audio_buffer_ref_map    000000018017ff20 f   miniaudio:miniaudio.obj
 0001:0017efe0       ma_audio_buffer_ref_read_pcm_frames 000000018017ffe0 f   miniaudio:miniaudio.obj
 0001:0017f280       ma_audio_buffer_ref_seek_to_pcm_frame 0000000180180280 f   miniaudio:miniaudio.obj
 0001:0017f2a0       ma_audio_buffer_ref_set_data 00000001801802a0 f   miniaudio:miniaudio.obj
 0001:0017f2d0       ma_audio_buffer_ref_uninit 00000001801802d0 f   miniaudio:miniaudio.obj
 0001:0017f2e0       ma_audio_buffer_ref_unmap  00000001801802e0 f   miniaudio:miniaudio.obj
 0001:0017f330       ma_audio_buffer_seek_to_pcm_frame 0000000180180330 f   miniaudio:miniaudio.obj
 0001:0017f350       ma_audio_buffer_uninit     0000000180180350 f   miniaudio:miniaudio.obj
 0001:0017f3b0       ma_audio_buffer_uninit_and_free 00000001801803b0 f   miniaudio:miniaudio.obj
 0001:0017f510       ma_audio_buffer_unmap      0000000180180510 f   miniaudio:miniaudio.obj
 0001:0017f560       ma_biquad_clear_cache      0000000180180560 f   miniaudio:miniaudio.obj
 0001:0017f590       ma_biquad_config_init      0000000180180590 f   miniaudio:miniaudio.obj
 0001:0017f730       ma_biquad_get_heap_size    0000000180180730 f   miniaudio:miniaudio.obj
 0001:0017f770       ma_biquad_get_latency      0000000180180770 f   miniaudio:miniaudio.obj
 0001:0017f780       ma_biquad_init             0000000180180780 f   miniaudio:miniaudio.obj
 0001:0017f940       ma_biquad_init_preallocated 0000000180180940 f   miniaudio:miniaudio.obj
 0001:0017fa50       ma_biquad_node_config_init 0000000180180a50 f   miniaudio:miniaudio.obj
 0001:0017fb30       ma_biquad_node_init        0000000180180b30 f   miniaudio:miniaudio.obj
 0001:0017fd20       ma_biquad_node_reinit      0000000180180d20 f   miniaudio:miniaudio.obj
 0001:0017fd80       ma_biquad_node_uninit      0000000180180d80 f   miniaudio:miniaudio.obj
 0001:001807a0       ma_biquad_process_pcm_frames 00000001801817a0 f   miniaudio:miniaudio.obj
 0001:00180db0       ma_biquad_reinit           0000000180181db0 f   miniaudio:miniaudio.obj
 0001:00180f40       ma_biquad_uninit           0000000180181f40 f   miniaudio:miniaudio.obj
 0001:00180f80       ma_blend_f32               0000000180181f80 f   miniaudio:miniaudio.obj
 0001:00181350       ma_bpf2_config_init        0000000180182350 f   miniaudio:miniaudio.obj
 0001:00181410       ma_bpf2_get_heap_size      0000000180182410 f   miniaudio:miniaudio.obj
 0001:001814a0       ma_bpf2_get_latency        00000001801824a0 f   miniaudio:miniaudio.obj
 0001:001814b0       ma_bpf2_init               00000001801824b0 f   miniaudio:miniaudio.obj
 0001:001815e0       ma_bpf2_init_preallocated  00000001801825e0 f   miniaudio:miniaudio.obj
 0001:00181cd0       ma_bpf2_process_pcm_frames 0000000180182cd0 f   miniaudio:miniaudio.obj
 0001:00181cf0       ma_bpf2_reinit             0000000180182cf0 f   miniaudio:miniaudio.obj
 0001:00181e70       ma_bpf2_uninit             0000000180182e70 f   miniaudio:miniaudio.obj
 0001:00181eb0       ma_bpf_config_init         0000000180182eb0 f   miniaudio:miniaudio.obj
 0001:00182050       ma_bpf_get_heap_size       0000000180183050 f   miniaudio:miniaudio.obj
 0001:001820e0       ma_bpf_get_latency         00000001801830e0 f   miniaudio:miniaudio.obj
 0001:00182100       ma_bpf_init                0000000180183100 f   miniaudio:miniaudio.obj
 0001:00182290       ma_bpf_init_preallocated   0000000180183290 f   miniaudio:miniaudio.obj
 0001:001822d0       ma_bpf_node_config_init    00000001801832d0 f   miniaudio:miniaudio.obj
 0001:00182390       ma_bpf_node_init           0000000180183390 f   miniaudio:miniaudio.obj
 0001:00182580       ma_bpf_node_reinit         0000000180183580 f   miniaudio:miniaudio.obj
 0001:001825b0       ma_bpf_node_uninit         00000001801835b0 f   miniaudio:miniaudio.obj
 0001:001826e0       ma_bpf_process_pcm_frames  00000001801836e0 f   miniaudio:miniaudio.obj
 0001:00182e30       ma_bpf_reinit              0000000180183e30 f   miniaudio:miniaudio.obj
 0001:00183330       ma_bpf_uninit              0000000180184330 f   miniaudio:miniaudio.obj
 0001:001835d0       ma_calculate_buffer_size_in_frames_from_descriptor 00000001801845d0 f   miniaudio:miniaudio.obj
 0001:00183670       ma_calculate_buffer_size_in_frames_from_milliseconds 0000000180184670 f   miniaudio:miniaudio.obj
 0001:00183690       ma_calculate_buffer_size_in_milliseconds_from_frames 0000000180184690 f   miniaudio:miniaudio.obj
 0001:00183750       ma_calculate_frame_count_after_resampling 0000000180184750 f   miniaudio:miniaudio.obj
 0001:00183a40       ma_calloc                  0000000180184a40 f   miniaudio:miniaudio.obj
 0001:00183ce0       ma_channel_converter_config_init 0000000180184ce0 f   miniaudio:miniaudio.obj
 0001:00184100       ma_channel_converter_get_heap_size 0000000180185100 f   miniaudio:miniaudio.obj
 0001:00184150       ma_channel_converter_get_input_channel_map 0000000180185150 f   miniaudio:miniaudio.obj
 0001:001841f0       ma_channel_converter_get_output_channel_map 00000001801851f0 f   miniaudio:miniaudio.obj
 0001:00184290       ma_channel_converter_init  0000000180185290 f   miniaudio:miniaudio.obj
 0001:00184390       ma_channel_converter_init_preallocated 0000000180185390 f   miniaudio:miniaudio.obj
 0001:00185200       ma_channel_converter_process_pcm_frames 0000000180186200 f   miniaudio:miniaudio.obj
 0001:00186720       ma_channel_converter_uninit 0000000180187720 f   miniaudio:miniaudio.obj
 0001:00188e00       ma_channel_map_contains_channel_position 0000000180189e00 f   miniaudio:miniaudio.obj
 0001:00188e90       ma_channel_map_copy        0000000180189e90 f   miniaudio:miniaudio.obj
 0001:00188eb0       ma_channel_map_copy_or_default 0000000180189eb0 f   miniaudio:miniaudio.obj
 0001:00188f40       ma_channel_map_find_channel_position 0000000180189f40 f   miniaudio:miniaudio.obj
 0001:00189000       ma_channel_map_get_channel 000000018018a000 f   miniaudio:miniaudio.obj
 0001:00189370       ma_channel_map_init_blank  000000018018a370 f   miniaudio:miniaudio.obj
 0001:00189390       ma_channel_map_init_standard 000000018018a390 f   miniaudio:miniaudio.obj
 0001:0018a730       ma_channel_map_is_blank    000000018018b730 f   miniaudio:miniaudio.obj
 0001:0018a760       ma_channel_map_is_equal    000000018018b760 f   miniaudio:miniaudio.obj
 0001:0018a970       ma_channel_map_is_valid    000000018018b970 f   miniaudio:miniaudio.obj
 0001:0018ab50       ma_channel_map_to_string   000000018018bb50 f   miniaudio:miniaudio.obj
 0001:0018ae80       ma_channel_position_to_string 000000018018be80 f   miniaudio:miniaudio.obj
 0001:0018b1f0       ma_clip_pcm_frames         000000018018c1f0 f   miniaudio:miniaudio.obj
 0001:0018b580       ma_clip_samples_f32        000000018018c580 f   miniaudio:miniaudio.obj
 0001:0018b810       ma_clip_samples_s16        000000018018c810 f   miniaudio:miniaudio.obj
 0001:0018b8f0       ma_clip_samples_s24        000000018018c8f0 f   miniaudio:miniaudio.obj
 0001:0018b9e0       ma_clip_samples_s32        000000018018c9e0 f   miniaudio:miniaudio.obj
 0001:0018bac0       ma_clip_samples_u8         000000018018cac0 f   miniaudio:miniaudio.obj
 0001:0018c240       ma_context_config_init     000000018018d240 f   miniaudio:miniaudio.obj
 0001:0018c5f0       ma_context_enumerate_devices 000000018018d5f0 f   miniaudio:miniaudio.obj
 0001:0018dee0       ma_context_get_device_info 000000018018eee0 f   miniaudio:miniaudio.obj
 0001:001905f0       ma_context_get_devices     00000001801915f0 f   miniaudio:miniaudio.obj
 0001:00190c60       ma_context_get_log         0000000180191c60 f   miniaudio:miniaudio.obj
 0001:00190c70       ma_context_init            0000000180191c70 f   miniaudio:miniaudio.obj
 0001:001939c0       ma_context_is_loopback_supported 00000001801949c0 f   miniaudio:miniaudio.obj
 0001:00193fe0       ma_context_sizeof          0000000180194fe0 f   miniaudio:miniaudio.obj
 0001:00193ff0       ma_context_uninit          0000000180194ff0 f   miniaudio:miniaudio.obj
 0001:00194540       ma_convert_frames          0000000180195540 f   miniaudio:miniaudio.obj
 0001:00194610       ma_convert_frames_ex       0000000180195610 f   miniaudio:miniaudio.obj
 0001:00194de0       ma_convert_pcm_frames_format 0000000180195de0 f   miniaudio:miniaudio.obj
 0001:00194e10       ma_copy_and_apply_volume_and_clip_pcm_frames 0000000180195e10 f   miniaudio:miniaudio.obj
 0001:001954a0       ma_copy_and_apply_volume_and_clip_samples_f32 00000001801964a0 f   miniaudio:miniaudio.obj
 0001:00195780       ma_copy_and_apply_volume_and_clip_samples_s16 0000000180196780 f   miniaudio:miniaudio.obj
 0001:00195880       ma_copy_and_apply_volume_and_clip_samples_s24 0000000180196880 f   miniaudio:miniaudio.obj
 0001:00195990       ma_copy_and_apply_volume_and_clip_samples_s32 0000000180196990 f   miniaudio:miniaudio.obj
 0001:00195a90       ma_copy_and_apply_volume_and_clip_samples_u8 0000000180196a90 f   miniaudio:miniaudio.obj
 0001:00195d20       ma_copy_and_apply_volume_factor_f32 0000000180196d20 f   miniaudio:miniaudio.obj
 0001:00195f80       ma_copy_and_apply_volume_factor_pcm_frames 0000000180196f80 f   miniaudio:miniaudio.obj
 0001:00196030       ma_copy_and_apply_volume_factor_pcm_frames_f32 0000000180197030 f   miniaudio:miniaudio.obj
 0001:00196050       ma_copy_and_apply_volume_factor_pcm_frames_s16 0000000180197050 f   miniaudio:miniaudio.obj
 0001:00196070       ma_copy_and_apply_volume_factor_pcm_frames_s24 0000000180197070 f   miniaudio:miniaudio.obj
 0001:00196090       ma_copy_and_apply_volume_factor_pcm_frames_s32 0000000180197090 f   miniaudio:miniaudio.obj
 0001:001960b0       ma_copy_and_apply_volume_factor_pcm_frames_u8 00000001801970b0 f   miniaudio:miniaudio.obj
 0001:001960d0       ma_copy_and_apply_volume_factor_per_channel_f32 00000001801970d0 f   miniaudio:miniaudio.obj
 0001:001962a0       ma_copy_and_apply_volume_factor_s16 00000001801972a0 f   miniaudio:miniaudio.obj
 0001:001963b0       ma_copy_and_apply_volume_factor_s24 00000001801973b0 f   miniaudio:miniaudio.obj
 0001:00196600       ma_copy_and_apply_volume_factor_s32 0000000180197600 f   miniaudio:miniaudio.obj
 0001:00196800       ma_copy_and_apply_volume_factor_u8 0000000180197800 f   miniaudio:miniaudio.obj
 0001:001969a0       ma_copy_pcm_frames         00000001801979a0 f   miniaudio:miniaudio.obj
 0001:00196a80       ma_copy_string             0000000180197a80 f   miniaudio:miniaudio.obj
 0001:00196b30       ma_copy_string_w           0000000180197b30 f   miniaudio:miniaudio.obj
 0001:00196cd0       ma_data_converter_config_init 0000000180197cd0 f   miniaudio:miniaudio.obj
 0001:00196d60       ma_data_converter_config_init_default 0000000180197d60 f   miniaudio:miniaudio.obj
 0001:00196e50       ma_data_converter_get_expected_output_frame_count 0000000180197e50 f   miniaudio:miniaudio.obj
 0001:001970e0       ma_data_converter_get_heap_size 00000001801980e0 f   miniaudio:miniaudio.obj
 0001:00197130       ma_data_converter_get_input_channel_map 0000000180198130 f   miniaudio:miniaudio.obj
 0001:00197240       ma_data_converter_get_input_latency 0000000180198240 f   miniaudio:miniaudio.obj
 0001:00197280       ma_data_converter_get_output_channel_map 0000000180198280 f   miniaudio:miniaudio.obj
 0001:00197390       ma_data_converter_get_output_latency 0000000180198390 f   miniaudio:miniaudio.obj
 0001:001973d0       ma_data_converter_get_required_input_frame_count 00000001801983d0 f   miniaudio:miniaudio.obj
 0001:00197440       ma_data_converter_init     0000000180198440 f   miniaudio:miniaudio.obj
 0001:00197540       ma_data_converter_init_preallocated 0000000180198540 f   miniaudio:miniaudio.obj
 0001:001978d0       ma_data_converter_process_pcm_frames 00000001801988d0 f   miniaudio:miniaudio.obj
 0001:0019a330       ma_data_converter_reset    000000018019b330 f   miniaudio:miniaudio.obj
 0001:0019a380       ma_data_converter_set_rate 000000018019b380 f   miniaudio:miniaudio.obj
 0001:0019a3b0       ma_data_converter_set_rate_ratio 000000018019b3b0 f   miniaudio:miniaudio.obj
 0001:0019a4b0       ma_data_converter_uninit   000000018019b4b0 f   miniaudio:miniaudio.obj
 0001:0019a5f0       ma_data_source_config_init 000000018019b5f0 f   miniaudio:miniaudio.obj
 0001:0019a600       ma_data_source_get_current 000000018019b600 f   miniaudio:miniaudio.obj
 0001:0019a610       ma_data_source_get_cursor_in_pcm_frames 000000018019b610 f   miniaudio:miniaudio.obj
 0001:0019a6c0       ma_data_source_get_cursor_in_seconds 000000018019b6c0 f   miniaudio:miniaudio.obj
 0001:0019a7e0       ma_data_source_get_data_format 000000018019b7e0 f   miniaudio:miniaudio.obj
 0001:0019a920       ma_data_source_get_length_in_pcm_frames 000000018019b920 f   miniaudio:miniaudio.obj
 0001:0019a970       ma_data_source_get_length_in_seconds 000000018019b970 f   miniaudio:miniaudio.obj
 0001:0019aa90       ma_data_source_get_loop_point_in_pcm_frames 000000018019ba90 f   miniaudio:miniaudio.obj
 0001:0019aac0       ma_data_source_get_next    000000018019bac0 f   miniaudio:miniaudio.obj
 0001:0019aad0       ma_data_source_get_next_callback 000000018019bad0 f   miniaudio:miniaudio.obj
 0001:0019aae0       ma_data_source_get_range_in_pcm_frames 000000018019bae0 f   miniaudio:miniaudio.obj
 0001:0019ab10       ma_data_source_init        000000018019bb10 f   miniaudio:miniaudio.obj
 0001:0019ab70       ma_data_source_is_looping  000000018019bb70 f   miniaudio:miniaudio.obj
 0001:0019ab90       ma_data_source_node_config_init 000000018019bb90 f   miniaudio:miniaudio.obj
 0001:0019ac40       ma_data_source_node_init   000000018019bc40 f   miniaudio:miniaudio.obj
 0001:0019ae80       ma_data_source_node_is_looping 000000018019be80 f   miniaudio:miniaudio.obj
 0001:0019aeb0       ma_data_source_node_set_looping 000000018019beb0 f   miniaudio:miniaudio.obj
 0001:0019aef0       ma_data_source_node_uninit 000000018019bef0 f   miniaudio:miniaudio.obj
 0001:0019af70       ma_data_source_read_pcm_frames 000000018019bf70 f   miniaudio:miniaudio.obj
 0001:0019b550       ma_data_source_seek_pcm_frames 000000018019c550 f   miniaudio:miniaudio.obj
 0001:0019b560       ma_data_source_seek_to_pcm_frame 000000018019c560 f   miniaudio:miniaudio.obj
 0001:0019b5a0       ma_data_source_set_current 000000018019c5a0 f   miniaudio:miniaudio.obj
 0001:0019b5c0       ma_data_source_set_loop_point_in_pcm_frames 000000018019c5c0 f   miniaudio:miniaudio.obj
 0001:0019b610       ma_data_source_set_looping 000000018019c610 f   miniaudio:miniaudio.obj
 0001:0019b640       ma_data_source_set_next    000000018019c640 f   miniaudio:miniaudio.obj
 0001:0019b660       ma_data_source_set_next_callback 000000018019c660 f   miniaudio:miniaudio.obj
 0001:0019b680       ma_data_source_set_range_in_pcm_frames 000000018019c680 f   miniaudio:miniaudio.obj
 0001:0019b7e0       ma_data_source_uninit      000000018019c7e0 f   miniaudio:miniaudio.obj
 0001:0019b7f0       ma_debug_fill_pcm_frames_with_sine_wave 000000018019c7f0 f   miniaudio:miniaudio.obj
 0001:0019b920       ma_decode_file             000000018019c920 f   miniaudio:miniaudio.obj
 0001:0019ba90       ma_decode_from_vfs         000000018019ca90 f   miniaudio:miniaudio.obj
 0001:0019bc10       ma_decode_memory           000000018019cc10 f   miniaudio:miniaudio.obj
 0001:0019da20       ma_decoder_config_init     000000018019ea20 f   miniaudio:miniaudio.obj
 0001:0019db20       ma_decoder_config_init_copy 000000018019eb20 f   miniaudio:miniaudio.obj
 0001:0019dc10       ma_decoder_config_init_default 000000018019ec10 f   miniaudio:miniaudio.obj
 0001:0019dcb0       ma_decoder_get_available_frames 000000018019ecb0 f   miniaudio:miniaudio.obj
 0001:0019dd40       ma_decoder_get_cursor_in_pcm_frames 000000018019ed40 f   miniaudio:miniaudio.obj
 0001:0019dd70       ma_decoder_get_data_format 000000018019ed70 f   miniaudio:miniaudio.obj
 0001:0019dee0       ma_decoder_get_length_in_pcm_frames 000000018019eee0 f   miniaudio:miniaudio.obj
 0001:0019e080       ma_decoder_init            000000018019f080 f   miniaudio:miniaudio.obj
 0001:0019ece0       ma_decoder_init_file       000000018019fce0 f   miniaudio:miniaudio.obj
 0001:0019f660       ma_decoder_init_file_w     00000001801a0660 f   miniaudio:miniaudio.obj
 0001:001a0bc0       ma_decoder_init_memory     00000001801a1bc0 f   miniaudio:miniaudio.obj
 0001:001a19a0       ma_decoder_init_vfs        00000001801a29a0 f   miniaudio:miniaudio.obj
 0001:001a2470       ma_decoder_init_vfs_w      00000001801a3470 f   miniaudio:miniaudio.obj
 0001:001a3870       ma_decoder_read_pcm_frames 00000001801a4870 f   miniaudio:miniaudio.obj
 0001:001a45e0       ma_decoder_seek_to_pcm_frame 00000001801a55e0 f   miniaudio:miniaudio.obj
 0001:001a4880       ma_decoder_uninit          00000001801a5880 f   miniaudio:miniaudio.obj
 0001:001a4ac0       ma_decoding_backend_config_init 00000001801a5ac0 f   miniaudio:miniaudio.obj
 0001:001a4d10       ma_default_vfs_init        00000001801a5d10 f   miniaudio:miniaudio.obj
 0001:001a58d0       ma_deinterleave_pcm_frames 00000001801a68d0 f   miniaudio:miniaudio.obj
 0001:001a5bd0       ma_delay_config_init       00000001801a6bd0 f   miniaudio:miniaudio.obj
 0001:001a5c80       ma_delay_get_decay         00000001801a6c80 f   miniaudio:miniaudio.obj
 0001:001a5ca0       ma_delay_get_dry           00000001801a6ca0 f   miniaudio:miniaudio.obj
 0001:001a5cc0       ma_delay_get_wet           00000001801a6cc0 f   miniaudio:miniaudio.obj
 0001:001a5ce0       ma_delay_init              00000001801a6ce0 f   miniaudio:miniaudio.obj
 0001:001a5df0       ma_delay_node_config_init  00000001801a6df0 f   miniaudio:miniaudio.obj
 0001:001a5ea0       ma_delay_node_get_decay    00000001801a6ea0 f   miniaudio:miniaudio.obj
 0001:001a5ec0       ma_delay_node_get_dry      00000001801a6ec0 f   miniaudio:miniaudio.obj
 0001:001a5ee0       ma_delay_node_get_wet      00000001801a6ee0 f   miniaudio:miniaudio.obj
 0001:001a5f00       ma_delay_node_init         00000001801a6f00 f   miniaudio:miniaudio.obj
 0001:001a61a0       ma_delay_node_set_decay    00000001801a71a0 f   miniaudio:miniaudio.obj
 0001:001a61c0       ma_delay_node_set_dry      00000001801a71c0 f   miniaudio:miniaudio.obj
 0001:001a61e0       ma_delay_node_set_wet      00000001801a71e0 f   miniaudio:miniaudio.obj
 0001:001a6200       ma_delay_node_uninit       00000001801a7200 f   miniaudio:miniaudio.obj
 0001:001a62c0       ma_delay_process_pcm_frames 00000001801a72c0 f   miniaudio:miniaudio.obj
 0001:001a6420       ma_delay_set_decay         00000001801a7420 f   miniaudio:miniaudio.obj
 0001:001a6430       ma_delay_set_dry           00000001801a7430 f   miniaudio:miniaudio.obj
 0001:001a6440       ma_delay_set_wet           00000001801a7440 f   miniaudio:miniaudio.obj
 0001:001a6450       ma_delay_uninit            00000001801a7450 f   miniaudio:miniaudio.obj
 0001:001aba90       ma_device_config_init      00000001801aca90 f   miniaudio:miniaudio.obj
 0001:001ad8a0       ma_device_get_context      00000001801ae8a0 f   miniaudio:miniaudio.obj
 0001:001ad8b0       ma_device_get_info         00000001801ae8b0 f   miniaudio:miniaudio.obj
 0001:001ad990       ma_device_get_log          00000001801ae990 f   miniaudio:miniaudio.obj
 0001:001ad9b0       ma_device_get_master_volume 00000001801ae9b0 f   miniaudio:miniaudio.obj
 0001:001ad9e0       ma_device_get_master_volume_db 00000001801ae9e0 f   miniaudio:miniaudio.obj
 0001:001ada50       ma_device_get_name         00000001801aea50 f   miniaudio:miniaudio.obj
 0001:001adbc0       ma_device_get_state        00000001801aebc0 f   miniaudio:miniaudio.obj
 0001:001adcc0       ma_device_handle_backend_data_callback 00000001801aecc0 f   miniaudio:miniaudio.obj
 0001:001adda0       ma_device_info_add_native_data_format 00000001801aeda0 f   miniaudio:miniaudio.obj
 0001:001ade20       ma_device_init             00000001801aee20 f   miniaudio:miniaudio.obj
 0001:001b2f70       ma_device_init_ex          00000001801b3f70 f   miniaudio:miniaudio.obj
 0001:001b4010       ma_device_is_started       00000001801b5010 f   miniaudio:miniaudio.obj
 0001:001b4090       ma_device_job_thread_config_init 00000001801b5090 f   miniaudio:miniaudio.obj
 0001:001b41c0       ma_device_job_thread_init  00000001801b51c0 f   miniaudio:miniaudio.obj
 0001:001b45e0       ma_device_job_thread_next  00000001801b55e0 f   miniaudio:miniaudio.obj
 0001:001b4630       ma_device_job_thread_post  00000001801b5630 f   miniaudio:miniaudio.obj
 0001:001b4650       ma_device_job_thread_uninit 00000001801b5650 f   miniaudio:miniaudio.obj
 0001:001b4870       ma_device_post_init        00000001801b5870 f   miniaudio:miniaudio.obj
 0001:001b6360       ma_device_set_master_volume 00000001801b7360 f   miniaudio:miniaudio.obj
 0001:001b6390       ma_device_set_master_volume_db 00000001801b7390 f   miniaudio:miniaudio.obj
 0001:001b6420       ma_device_start            00000001801b7420 f   miniaudio:miniaudio.obj
 0001:001b6f80       ma_device_stop             00000001801b7f80 f   miniaudio:miniaudio.obj
 0001:001b7cc0       ma_device_uninit           00000001801b8cc0 f   miniaudio:miniaudio.obj
 0001:001b95f0       ma_dlclose                 00000001801ba5f0 f   miniaudio:miniaudio.obj
 0001:001b9600       ma_dlopen                  00000001801ba600 f   miniaudio:miniaudio.obj
 0001:001b9680       ma_dlsym                   00000001801ba680 f   miniaudio:miniaudio.obj
 0001:001d7610       ma_dr_flac_close           00000001801d8610 f   miniaudio:miniaudio.obj
 0001:001d7c30       ma_dr_flac_free            00000001801d8c30 f   miniaudio:miniaudio.obj
 0001:001d7cc0       ma_dr_flac_init_cuesheet_track_iterator 00000001801d8cc0 f   miniaudio:miniaudio.obj
 0001:001d7cd0       ma_dr_flac_init_vorbis_comment_iterator 00000001801d8cd0 f   miniaudio:miniaudio.obj
 0001:001d7ce0       ma_dr_flac_next_cuesheet_track 00000001801d8ce0 f   miniaudio:miniaudio.obj
 0001:001d7de0       ma_dr_flac_next_vorbis_comment 00000001801d8de0 f   miniaudio:miniaudio.obj
 0001:001d8b50       ma_dr_flac_open            00000001801d9b50 f   miniaudio:miniaudio.obj
 0001:001d8b80       ma_dr_flac_open_and_read_pcm_frames_f32 00000001801d9b80 f   miniaudio:miniaudio.obj
 0001:001d8c40       ma_dr_flac_open_and_read_pcm_frames_s16 00000001801d9c40 f   miniaudio:miniaudio.obj
 0001:001d8d00       ma_dr_flac_open_and_read_pcm_frames_s32 00000001801d9d00 f   miniaudio:miniaudio.obj
 0001:001d8dc0       ma_dr_flac_open_file       00000001801d9dc0 f   miniaudio:miniaudio.obj
 0001:001d8e70       ma_dr_flac_open_file_and_read_pcm_frames_f32 00000001801d9e70 f   miniaudio:miniaudio.obj
 0001:001d8f80       ma_dr_flac_open_file_and_read_pcm_frames_s16 00000001801d9f80 f   miniaudio:miniaudio.obj
 0001:001d9090       ma_dr_flac_open_file_and_read_pcm_frames_s32 00000001801da090 f   miniaudio:miniaudio.obj
 0001:001d91a0       ma_dr_flac_open_file_w     00000001801da1a0 f   miniaudio:miniaudio.obj
 0001:001d9250       ma_dr_flac_open_file_with_metadata 00000001801da250 f   miniaudio:miniaudio.obj
 0001:001d9310       ma_dr_flac_open_file_with_metadata_w 00000001801da310 f   miniaudio:miniaudio.obj
 0001:001d93d0       ma_dr_flac_open_memory     00000001801da3d0 f   miniaudio:miniaudio.obj
 0001:001d9490       ma_dr_flac_open_memory_and_read_pcm_frames_f32 00000001801da490 f   miniaudio:miniaudio.obj
 0001:001d9520       ma_dr_flac_open_memory_and_read_pcm_frames_s16 00000001801da520 f   miniaudio:miniaudio.obj
 0001:001d95b0       ma_dr_flac_open_memory_and_read_pcm_frames_s32 00000001801da5b0 f   miniaudio:miniaudio.obj
 0001:001d9640       ma_dr_flac_open_memory_with_metadata 00000001801da640 f   miniaudio:miniaudio.obj
 0001:001d9700       ma_dr_flac_open_relaxed    00000001801da700 f   miniaudio:miniaudio.obj
 0001:001d9740       ma_dr_flac_open_with_metadata 00000001801da740 f   miniaudio:miniaudio.obj
 0001:001da0a0       ma_dr_flac_open_with_metadata_relaxed 00000001801db0a0 f   miniaudio:miniaudio.obj
 0001:001da0d0       ma_dr_flac_read_pcm_frames_f32 00000001801db0d0 f   miniaudio:miniaudio.obj
 0001:001e39b0       ma_dr_flac_read_pcm_frames_s16 00000001801e49b0 f   miniaudio:miniaudio.obj
 0001:001e7010       ma_dr_flac_read_pcm_frames_s32 00000001801e8010 f   miniaudio:miniaudio.obj
 0001:001ea030       ma_dr_flac_seek_to_pcm_frame 00000001801eb030 f   miniaudio:miniaudio.obj
 0001:001ea340       ma_dr_flac_version         00000001801eb340 f   miniaudio:miniaudio.obj
 0001:001ea370       ma_dr_flac_version_string  00000001801eb370 f   miniaudio:miniaudio.obj
 0001:001efea0       ma_dr_mp3_bind_seek_table  00000001801f0ea0 f   miniaudio:miniaudio.obj
 0001:001eff80       ma_dr_mp3_calculate_seek_points 00000001801f0f80 f   miniaudio:miniaudio.obj
 0001:001f0e60       ma_dr_mp3_free             00000001801f1e60 f   miniaudio:miniaudio.obj
 0001:001f0e90       ma_dr_mp3_get_mp3_and_pcm_frame_count 00000001801f1e90 f   miniaudio:miniaudio.obj
 0001:001f1010       ma_dr_mp3_get_mp3_frame_count 00000001801f2010 f   miniaudio:miniaudio.obj
 0001:001f1150       ma_dr_mp3_get_pcm_frame_count 00000001801f2150 f   miniaudio:miniaudio.obj
 0001:001f15a0       ma_dr_mp3_init             00000001801f25a0 f   miniaudio:miniaudio.obj
 0001:001f1630       ma_dr_mp3_init_file        00000001801f2630 f   miniaudio:miniaudio.obj
 0001:001f1860       ma_dr_mp3_init_file_w      00000001801f2860 f   miniaudio:miniaudio.obj
 0001:001f1c40       ma_dr_mp3_init_memory      00000001801f2c40 f   miniaudio:miniaudio.obj
 0001:001f1df0       ma_dr_mp3_malloc           00000001801f2df0 f   miniaudio:miniaudio.obj
 0001:001f1e30       ma_dr_mp3_open_and_read_pcm_frames_f32 00000001801f2e30 f   miniaudio:miniaudio.obj
 0001:001f1f20       ma_dr_mp3_open_and_read_pcm_frames_s16 00000001801f2f20 f   miniaudio:miniaudio.obj
 0001:001f2010       ma_dr_mp3_open_file_and_read_pcm_frames_f32 00000001801f3010 f   miniaudio:miniaudio.obj
 0001:001f20b0       ma_dr_mp3_open_file_and_read_pcm_frames_s16 00000001801f30b0 f   miniaudio:miniaudio.obj
 0001:001f2150       ma_dr_mp3_open_memory_and_read_pcm_frames_f32 00000001801f3150 f   miniaudio:miniaudio.obj
 0001:001f23b0       ma_dr_mp3_open_memory_and_read_pcm_frames_s16 00000001801f33b0 f   miniaudio:miniaudio.obj
 0001:001f2610       ma_dr_mp3_read_pcm_frames_f32 00000001801f3610 f   miniaudio:miniaudio.obj
 0001:001f2a10       ma_dr_mp3_read_pcm_frames_s16 00000001801f3a10 f   miniaudio:miniaudio.obj
 0001:001f2dd0       ma_dr_mp3_seek_to_pcm_frame 00000001801f3dd0 f   miniaudio:miniaudio.obj
 0001:001f33d0       ma_dr_mp3_uninit           00000001801f43d0 f   miniaudio:miniaudio.obj
 0001:001f3450       ma_dr_mp3_version          00000001801f4450 f   miniaudio:miniaudio.obj
 0001:001f3480       ma_dr_mp3_version_string   00000001801f4480 f   miniaudio:miniaudio.obj
 0001:001f4eb0       ma_dr_mp3dec_decode_frame  00000001801f5eb0 f   miniaudio:miniaudio.obj
 0001:001f5580       ma_dr_mp3dec_f32_to_s16    00000001801f6580 f   miniaudio:miniaudio.obj
 0001:001f56f0       ma_dr_mp3dec_init          00000001801f66f0 f   miniaudio:miniaudio.obj
 0001:001fdec0       ma_dr_wav_alaw_to_f32      00000001801feec0 f   miniaudio:miniaudio.obj
 0001:001fe000       ma_dr_wav_alaw_to_s16      00000001801ff000 f   miniaudio:miniaudio.obj
 0001:001fe040       ma_dr_wav_alaw_to_s32      00000001801ff040 f   miniaudio:miniaudio.obj
 0001:001fe5c0       ma_dr_wav_bytes_to_f32     00000001801ff5c0 f   miniaudio:miniaudio.obj
 0001:001fe660       ma_dr_wav_bytes_to_s16     00000001801ff660 f   miniaudio:miniaudio.obj
 0001:001fe680       ma_dr_wav_bytes_to_s32     00000001801ff680 f   miniaudio:miniaudio.obj
 0001:001fe6b0       ma_dr_wav_bytes_to_s64     00000001801ff6b0 f   miniaudio:miniaudio.obj
 0001:001fe720       ma_dr_wav_bytes_to_u16     00000001801ff720 f   miniaudio:miniaudio.obj
 0001:001fe7c0       ma_dr_wav_bytes_to_u32     00000001801ff7c0 f   miniaudio:miniaudio.obj
 0001:001fe8c0       ma_dr_wav_bytes_to_u64     00000001801ff8c0 f   miniaudio:miniaudio.obj
 0001:001fe990       ma_dr_wav_f32_to_s16       00000001801ff990 f   miniaudio:miniaudio.obj
 0001:001fecd0       ma_dr_wav_f32_to_s32       00000001801ffcd0 f   miniaudio:miniaudio.obj
 0001:001feea0       ma_dr_wav_f64_to_f32       00000001801ffea0 f   miniaudio:miniaudio.obj
 0001:001ff030       ma_dr_wav_f64_to_s16       0000000180200030 f   miniaudio:miniaudio.obj
 0001:001ff390       ma_dr_wav_f64_to_s32       0000000180200390 f   miniaudio:miniaudio.obj
 0001:001ff550       ma_dr_wav_fmt_get_format   0000000180200550 f   miniaudio:miniaudio.obj
 0001:001ff580       ma_dr_wav_fourcc_equal     0000000180200580 f   miniaudio:miniaudio.obj
 0001:001ff5d0       ma_dr_wav_free             00000001802005d0 f   miniaudio:miniaudio.obj
 0001:001ff650       ma_dr_wav_get_cursor_in_pcm_frames 0000000180200650 f   miniaudio:miniaudio.obj
 0001:001ff680       ma_dr_wav_get_length_in_pcm_frames 0000000180200680 f   miniaudio:miniaudio.obj
 0001:001ff6b0       ma_dr_wav_guid_equal       00000001802006b0 f   miniaudio:miniaudio.obj
 0001:001ff6f0       ma_dr_wav_init             00000001802006f0 f   miniaudio:miniaudio.obj
 0001:00201960       ma_dr_wav_init_ex          0000000180202960 f   miniaudio:miniaudio.obj
 0001:00201aa0       ma_dr_wav_init_file        0000000180202aa0 f   miniaudio:miniaudio.obj
 0001:00201ca0       ma_dr_wav_init_file_ex     0000000180202ca0 f   miniaudio:miniaudio.obj
 0001:00201d50       ma_dr_wav_init_file_ex_w   0000000180202d50 f   miniaudio:miniaudio.obj
 0001:00201e00       ma_dr_wav_init_file_w      0000000180202e00 f   miniaudio:miniaudio.obj
 0001:00201ea0       ma_dr_wav_init_file_with_metadata 0000000180202ea0 f   miniaudio:miniaudio.obj
 0001:00201f50       ma_dr_wav_init_file_with_metadata_w 0000000180202f50 f   miniaudio:miniaudio.obj
 0001:00202000       ma_dr_wav_init_file_write  0000000180203000 f   miniaudio:miniaudio.obj
 0001:00202330       ma_dr_wav_init_file_write_sequential 0000000180203330 f   miniaudio:miniaudio.obj
 0001:002023e0       ma_dr_wav_init_file_write_sequential_pcm_frames 00000001802033e0 f   miniaudio:miniaudio.obj
 0001:002024b0       ma_dr_wav_init_file_write_sequential_pcm_frames_w 00000001802034b0 f   miniaudio:miniaudio.obj
 0001:00202580       ma_dr_wav_init_file_write_sequential_w 0000000180203580 f   miniaudio:miniaudio.obj
 0001:00202630       ma_dr_wav_init_file_write_w 0000000180203630 f   miniaudio:miniaudio.obj
 0001:00202790       ma_dr_wav_init_memory      0000000180203790 f   miniaudio:miniaudio.obj
 0001:002028f0       ma_dr_wav_init_memory_ex   00000001802038f0 f   miniaudio:miniaudio.obj
 0001:00202a50       ma_dr_wav_init_memory_with_metadata 0000000180203a50 f   miniaudio:miniaudio.obj
 0001:00202bb0       ma_dr_wav_init_memory_write 0000000180203bb0 f   miniaudio:miniaudio.obj
 0001:00202df0       ma_dr_wav_init_memory_write_sequential 0000000180203df0 f   miniaudio:miniaudio.obj
 0001:00202e30       ma_dr_wav_init_memory_write_sequential_pcm_frames 0000000180203e30 f   miniaudio:miniaudio.obj
 0001:00202e90       ma_dr_wav_init_with_metadata 0000000180203e90 f   miniaudio:miniaudio.obj
 0001:00202fc0       ma_dr_wav_init_write       0000000180203fc0 f   miniaudio:miniaudio.obj
 0001:00203d20       ma_dr_wav_init_write_sequential 0000000180204d20 f   miniaudio:miniaudio.obj
 0001:00203ec0       ma_dr_wav_init_write_sequential_pcm_frames 0000000180204ec0 f   miniaudio:miniaudio.obj
 0001:00204090       ma_dr_wav_init_write_with_metadata 0000000180205090 f   miniaudio:miniaudio.obj
 0001:00204280       ma_dr_wav_mulaw_to_f32     0000000180205280 f   miniaudio:miniaudio.obj
 0001:002043c0       ma_dr_wav_mulaw_to_s16     00000001802053c0 f   miniaudio:miniaudio.obj
 0001:00204400       ma_dr_wav_mulaw_to_s32     0000000180205400 f   miniaudio:miniaudio.obj
 0001:00204450       ma_dr_wav_open_and_read_pcm_frames_f32 0000000180205450 f   miniaudio:miniaudio.obj
 0001:00204710       ma_dr_wav_open_and_read_pcm_frames_s16 0000000180205710 f   miniaudio:miniaudio.obj
 0001:002048e0       ma_dr_wav_open_and_read_pcm_frames_s32 00000001802058e0 f   miniaudio:miniaudio.obj
 0001:00204ab0       ma_dr_wav_open_file_and_read_pcm_frames_f32 0000000180205ab0 f   miniaudio:miniaudio.obj
 0001:00204db0       ma_dr_wav_open_file_and_read_pcm_frames_f32_w 0000000180205db0 f   miniaudio:miniaudio.obj
 0001:002050b0       ma_dr_wav_open_file_and_read_pcm_frames_s16 00000001802060b0 f   miniaudio:miniaudio.obj
 0001:002052c0       ma_dr_wav_open_file_and_read_pcm_frames_s16_w 00000001802062c0 f   miniaudio:miniaudio.obj
 0001:002054d0       ma_dr_wav_open_file_and_read_pcm_frames_s32 00000001802064d0 f   miniaudio:miniaudio.obj
 0001:002056e0       ma_dr_wav_open_file_and_read_pcm_frames_s32_w 00000001802066e0 f   miniaudio:miniaudio.obj
 0001:002058f0       ma_dr_wav_open_memory_and_read_pcm_frames_f32 00000001802068f0 f   miniaudio:miniaudio.obj
 0001:00205bf0       ma_dr_wav_open_memory_and_read_pcm_frames_s16 0000000180206bf0 f   miniaudio:miniaudio.obj
 0001:00205e10       ma_dr_wav_open_memory_and_read_pcm_frames_s32 0000000180206e10 f   miniaudio:miniaudio.obj
 0001:00206310       ma_dr_wav_read_pcm_frames  0000000180207310 f   miniaudio:miniaudio.obj
 0001:002063c0       ma_dr_wav_read_pcm_frames_be 00000001802073c0 f   miniaudio:miniaudio.obj
 0001:00206750       ma_dr_wav_read_pcm_frames_f32 0000000180207750 f   miniaudio:miniaudio.obj
 0001:00207e50       ma_dr_wav_read_pcm_frames_f32be 0000000180208e50 f   miniaudio:miniaudio.obj
 0001:00207f60       ma_dr_wav_read_pcm_frames_f32le 0000000180208f60 f   miniaudio:miniaudio.obj
 0001:00207f70       ma_dr_wav_read_pcm_frames_le 0000000180208f70 f   miniaudio:miniaudio.obj
 0001:00208050       ma_dr_wav_read_pcm_frames_s16 0000000180209050 f   miniaudio:miniaudio.obj
 0001:00209e40       ma_dr_wav_read_pcm_frames_s16be 000000018020ae40 f   miniaudio:miniaudio.obj
 0001:00209fe0       ma_dr_wav_read_pcm_frames_s16le 000000018020afe0 f   miniaudio:miniaudio.obj
 0001:0020a0b0       ma_dr_wav_read_pcm_frames_s32 000000018020b0b0 f   miniaudio:miniaudio.obj
 0001:0020b2d0       ma_dr_wav_read_pcm_frames_s32be 000000018020c2d0 f   miniaudio:miniaudio.obj
 0001:0020b550       ma_dr_wav_read_pcm_frames_s32le 000000018020c550 f   miniaudio:miniaudio.obj
 0001:0020b610       ma_dr_wav_read_raw         000000018020c610 f   miniaudio:miniaudio.obj
 0001:0020b820       ma_dr_wav_s16_to_f32       000000018020c820 f   miniaudio:miniaudio.obj
 0001:0020ba20       ma_dr_wav_s16_to_s32       000000018020ca20 f   miniaudio:miniaudio.obj
 0001:0020bb50       ma_dr_wav_s24_to_f32       000000018020cb50 f   miniaudio:miniaudio.obj
 0001:0020bd40       ma_dr_wav_s24_to_s16       000000018020cd40 f   miniaudio:miniaudio.obj
 0001:0020bd80       ma_dr_wav_s24_to_s32       000000018020cd80 f   miniaudio:miniaudio.obj
 0001:0020bde0       ma_dr_wav_s32_to_f32       000000018020cde0 f   miniaudio:miniaudio.obj
 0001:0020bfd0       ma_dr_wav_s32_to_s16       000000018020cfd0 f   miniaudio:miniaudio.obj
 0001:0020c270       ma_dr_wav_seek_to_pcm_frame 000000018020d270 f   miniaudio:miniaudio.obj
 0001:0020c4f0       ma_dr_wav_take_ownership_of_metadata 000000018020d4f0 f   miniaudio:miniaudio.obj
 0001:0020c510       ma_dr_wav_target_write_size_bytes 000000018020d510 f   miniaudio:miniaudio.obj
 0001:0020c640       ma_dr_wav_u8_to_f32        000000018020d640 f   miniaudio:miniaudio.obj
 0001:0020c890       ma_dr_wav_u8_to_s16        000000018020d890 f   miniaudio:miniaudio.obj
 0001:0020c9f0       ma_dr_wav_u8_to_s32        000000018020d9f0 f   miniaudio:miniaudio.obj
 0001:0020cb40       ma_dr_wav_uninit           000000018020db40 f   miniaudio:miniaudio.obj
 0001:0020ce90       ma_dr_wav_version          000000018020de90 f   miniaudio:miniaudio.obj
 0001:0020cec0       ma_dr_wav_version_string   000000018020dec0 f   miniaudio:miniaudio.obj
 0001:0020ced0       ma_dr_wav_write_pcm_frames 000000018020ded0 f   miniaudio:miniaudio.obj
 0001:0020d010       ma_dr_wav_write_pcm_frames_be 000000018020e010 f   miniaudio:miniaudio.obj
 0001:0020d4d0       ma_dr_wav_write_pcm_frames_le 000000018020e4d0 f   miniaudio:miniaudio.obj
 0001:0020d5f0       ma_dr_wav_write_raw        000000018020e5f0 f   miniaudio:miniaudio.obj
 0001:0020d640       ma_duplex_rb_init          000000018020e640 f   miniaudio:miniaudio.obj
 0001:0020d810       ma_duplex_rb_uninit        000000018020e810 f   miniaudio:miniaudio.obj
 0001:0020e0e0       ma_encoder_config_init     000000018020f0e0 f   miniaudio:miniaudio.obj
 0001:0020e180       ma_encoder_init            000000018020f180 f   miniaudio:miniaudio.obj
 0001:0020e260       ma_encoder_init__internal  000000018020f260 f   miniaudio:miniaudio.obj
 0001:0020e330       ma_encoder_init_file       000000018020f330 f   miniaudio:miniaudio.obj
 0001:0020e4c0       ma_encoder_init_file_w     000000018020f4c0 f   miniaudio:miniaudio.obj
 0001:0020e650       ma_encoder_init_vfs        000000018020f650 f   miniaudio:miniaudio.obj
 0001:0020e840       ma_encoder_init_vfs_w      000000018020f840 f   miniaudio:miniaudio.obj
 0001:0020ea30       ma_encoder_preinit         000000018020fa30 f   miniaudio:miniaudio.obj
 0001:0020eb60       ma_encoder_uninit          000000018020fb60 f   miniaudio:miniaudio.obj
 0001:0020ec00       ma_encoder_write_pcm_frames 000000018020fc00 f   miniaudio:miniaudio.obj
 0001:0020ec30       ma_engine_config_init      000000018020fc30 f   miniaudio:miniaudio.obj
 0001:0020ed10       ma_engine_find_closest_listener 000000018020fd10 f   miniaudio:miniaudio.obj
 0001:0020eef0       ma_engine_get_channels     000000018020fef0 f   miniaudio:miniaudio.obj
 0001:0020ef20       ma_engine_get_device       000000018020ff20 f   miniaudio:miniaudio.obj
 0001:0020ef40       ma_engine_get_endpoint     000000018020ff40 f   miniaudio:miniaudio.obj
 0001:0020ef60       ma_engine_get_gain_db      000000018020ff60 f   miniaudio:miniaudio.obj
 0001:0020efd0       ma_engine_get_listener_count 000000018020ffd0 f   miniaudio:miniaudio.obj
 0001:0020eff0       ma_engine_get_log          000000018020fff0 f   miniaudio:miniaudio.obj
 0001:0020f030       ma_engine_get_node_graph   0000000180210030 f   miniaudio:miniaudio.obj
 0001:0020f040       ma_engine_get_resource_manager 0000000180210040 f   miniaudio:miniaudio.obj
 0001:0020f060       ma_engine_get_sample_rate  0000000180210060 f   miniaudio:miniaudio.obj
 0001:0020f080       ma_engine_get_time         0000000180210080 f   miniaudio:miniaudio.obj
 0001:0020f0b0       ma_engine_get_time_in_milliseconds 00000001802100b0 f   miniaudio:miniaudio.obj
 0001:0020f110       ma_engine_get_time_in_pcm_frames 0000000180210110 f   miniaudio:miniaudio.obj
 0001:0020f140       ma_engine_get_volume       0000000180210140 f   miniaudio:miniaudio.obj
 0001:0020f180       ma_engine_init             0000000180210180 f   miniaudio:miniaudio.obj
 0001:002106d0       ma_engine_listener_get_cone 00000001802116d0 f   miniaudio:miniaudio.obj
 0001:00210760       ma_engine_listener_get_direction 0000000180211760 f   miniaudio:miniaudio.obj
 0001:00210870       ma_engine_listener_get_position 0000000180211870 f   miniaudio:miniaudio.obj
 0001:00210970       ma_engine_listener_get_velocity 0000000180211970 f   miniaudio:miniaudio.obj
 0001:00210a70       ma_engine_listener_get_world_up 0000000180211a70 f   miniaudio:miniaudio.obj
 0001:00210b00       ma_engine_listener_is_enabled 0000000180211b00 f   miniaudio:miniaudio.obj
 0001:00210b30       ma_engine_listener_set_cone 0000000180211b30 f   miniaudio:miniaudio.obj
 0001:00210b80       ma_engine_listener_set_direction 0000000180211b80 f   miniaudio:miniaudio.obj
 0001:00210c40       ma_engine_listener_set_enabled 0000000180211c40 f   miniaudio:miniaudio.obj
 0001:00210c70       ma_engine_listener_set_position 0000000180211c70 f   miniaudio:miniaudio.obj
 0001:00210d30       ma_engine_listener_set_velocity 0000000180211d30 f   miniaudio:miniaudio.obj
 0001:00210df0       ma_engine_listener_set_world_up 0000000180211df0 f   miniaudio:miniaudio.obj
 0001:00210ee0       ma_engine_node_config_init 0000000180211ee0 f   miniaudio:miniaudio.obj
 0001:002113c0       ma_engine_node_get_heap_size 00000001802123c0 f   miniaudio:miniaudio.obj
 0001:00211500       ma_engine_node_init        0000000180212500 f   miniaudio:miniaudio.obj
 0001:00211600       ma_engine_node_init_preallocated 0000000180212600 f   miniaudio:miniaudio.obj
 0001:002129a0       ma_engine_node_uninit      00000001802139a0 f   miniaudio:miniaudio.obj
 0001:00212e00       ma_engine_play_sound       0000000180213e00 f   miniaudio:miniaudio.obj
 0001:00212e10       ma_engine_play_sound_ex    0000000180213e10 f   miniaudio:miniaudio.obj
 0001:00213310       ma_engine_read_pcm_frames  0000000180214310 f   miniaudio:miniaudio.obj
 0001:002133a0       ma_engine_set_gain_db      00000001802143a0 f   miniaudio:miniaudio.obj
 0001:00213460       ma_engine_set_time         0000000180214460 f   miniaudio:miniaudio.obj
 0001:00213490       ma_engine_set_time_in_milliseconds 0000000180214490 f   miniaudio:miniaudio.obj
 0001:002134f0       ma_engine_set_time_in_pcm_frames 00000001802144f0 f   miniaudio:miniaudio.obj
 0001:00213520       ma_engine_set_volume       0000000180214520 f   miniaudio:miniaudio.obj
 0001:002135c0       ma_engine_start            00000001802145c0 f   miniaudio:miniaudio.obj
 0001:00213610       ma_engine_stop             0000000180214610 f   miniaudio:miniaudio.obj
 0001:00213660       ma_engine_uninit           0000000180214660 f   miniaudio:miniaudio.obj
 0001:00213900       ma_event_init              0000000180214900 f   miniaudio:miniaudio.obj
 0001:002139d0       ma_event_signal            00000001802149d0 f   miniaudio:miniaudio.obj
 0001:00213a80       ma_event_uninit            0000000180214a80 f   miniaudio:miniaudio.obj
 0001:00213ab0       ma_event_wait              0000000180214ab0 f   miniaudio:miniaudio.obj
 0001:00213b90       ma_fader_config_init       0000000180214b90 f   miniaudio:miniaudio.obj
 0001:00213c10       ma_fader_get_current_volume 0000000180214c10 f   miniaudio:miniaudio.obj
 0001:00213c90       ma_fader_get_data_format   0000000180214c90 f   miniaudio:miniaudio.obj
 0001:00213cc0       ma_fader_init              0000000180214cc0 f   miniaudio:miniaudio.obj
 0001:00213d20       ma_fader_process_pcm_frames 0000000180214d20 f   miniaudio:miniaudio.obj
 0001:00214040       ma_fader_set_fade          0000000180215040 f   miniaudio:miniaudio.obj
 0001:00214100       ma_fader_set_fade_ex       0000000180215100 f   miniaudio:miniaudio.obj
 0001:002141d0       ma_fence_acquire           00000001802151d0 f   miniaudio:miniaudio.obj
 0001:00214290       ma_fence_init              0000000180215290 f   miniaudio:miniaudio.obj
 0001:00214300       ma_fence_release           0000000180215300 f   miniaudio:miniaudio.obj
 0001:002143c0       ma_fence_uninit            00000001802153c0 f   miniaudio:miniaudio.obj
 0001:002143f0       ma_fence_wait              00000001802153f0 f   miniaudio:miniaudio.obj
 0001:00214610       ma_flac_get_cursor_in_pcm_frames 0000000180215610 f   miniaudio:miniaudio.obj
 0001:00214650       ma_flac_get_data_format    0000000180215650 f   miniaudio:miniaudio.obj
 0001:00214780       ma_flac_get_length_in_pcm_frames 0000000180215780 f   miniaudio:miniaudio.obj
 0001:002147b0       ma_flac_init               00000001802157b0 f   miniaudio:miniaudio.obj
 0001:00214910       ma_flac_init_file          0000000180215910 f   miniaudio:miniaudio.obj
 0001:00214aa0       ma_flac_init_file_w        0000000180215aa0 f   miniaudio:miniaudio.obj
 0001:00214ce0       ma_flac_init_memory        0000000180215ce0 f   miniaudio:miniaudio.obj
 0001:00214de0       ma_flac_read_pcm_frames    0000000180215de0 f   miniaudio:miniaudio.obj
 0001:00214ef0       ma_flac_seek_to_pcm_frame  0000000180215ef0 f   miniaudio:miniaudio.obj
 0001:00214f20       ma_flac_uninit             0000000180215f20 f   miniaudio:miniaudio.obj
 0001:00214f50       ma_fopen                   0000000180215f50 f   miniaudio:miniaudio.obj
 0001:00215230       ma_free                    0000000180216230 f   miniaudio:miniaudio.obj
 0001:002152b0       ma_gainer_config_init      00000001802162b0 f   miniaudio:miniaudio.obj
 0001:00215390       ma_gainer_get_heap_size    0000000180216390 f   miniaudio:miniaudio.obj
 0001:002153c0       ma_gainer_get_master_volume 00000001802163c0 f   miniaudio:miniaudio.obj
 0001:002153e0       ma_gainer_init             00000001802163e0 f   miniaudio:miniaudio.obj
 0001:002154f0       ma_gainer_init_preallocated 00000001802164f0 f   miniaudio:miniaudio.obj
 0001:00215630       ma_gainer_process_pcm_frames 0000000180216630 f   miniaudio:miniaudio.obj
 0001:00215e90       ma_gainer_set_gain         0000000180216e90 f   miniaudio:miniaudio.obj
 0001:00215fb0       ma_gainer_set_gains        0000000180216fb0 f   miniaudio:miniaudio.obj
 0001:00216070       ma_gainer_set_master_volume 0000000180217070 f   miniaudio:miniaudio.obj
 0001:00216090       ma_gainer_uninit           0000000180217090 f   miniaudio:miniaudio.obj
 0001:00216100       ma_get_backend_from_name   0000000180217100 f   miniaudio:miniaudio.obj
 0001:002161a0       ma_get_backend_name        00000001802171a0 f   miniaudio:miniaudio.obj
 0001:00216470       ma_get_bytes_per_sample    0000000180217470 f   miniaudio:miniaudio.obj
 0001:002166b0       ma_get_enabled_backends    00000001802176b0 f   miniaudio:miniaudio.obj
 0001:002167a0       ma_get_format_name         00000001802177a0 f   miniaudio:miniaudio.obj
 0001:00216830       ma_get_format_priority_index 0000000180217830 f   miniaudio:miniaudio.obj
 0001:00216d80       ma_hishelf2_config_init    0000000180217d80 f   miniaudio:miniaudio.obj
 0001:00216e30       ma_hishelf2_get_heap_size  0000000180217e30 f   miniaudio:miniaudio.obj
 0001:00216ec0       ma_hishelf2_get_latency    0000000180217ec0 f   miniaudio:miniaudio.obj
 0001:00216ed0       ma_hishelf2_init           0000000180217ed0 f   miniaudio:miniaudio.obj
 0001:00217000       ma_hishelf2_init_preallocated 0000000180218000 f   miniaudio:miniaudio.obj
 0001:00217340       ma_hishelf2_process_pcm_frames 0000000180218340 f   miniaudio:miniaudio.obj
 0001:00217360       ma_hishelf2_reinit         0000000180218360 f   miniaudio:miniaudio.obj
 0001:00217600       ma_hishelf2_uninit         0000000180218600 f   miniaudio:miniaudio.obj
 0001:00217640       ma_hishelf_node_config_init 0000000180218640 f   miniaudio:miniaudio.obj
 0001:002176f0       ma_hishelf_node_init       00000001802186f0 f   miniaudio:miniaudio.obj
 0001:002179d0       ma_hishelf_node_reinit     00000001802189d0 f   miniaudio:miniaudio.obj
 0001:00217cb0       ma_hishelf_node_uninit     0000000180218cb0 f   miniaudio:miniaudio.obj
 0001:00217d70       ma_hpf1_config_init        0000000180218d70 f   miniaudio:miniaudio.obj
 0001:00217ec0       ma_hpf1_get_heap_size      0000000180218ec0 f   miniaudio:miniaudio.obj
 0001:00217f00       ma_hpf1_get_latency        0000000180218f00 f   miniaudio:miniaudio.obj
 0001:00217f10       ma_hpf1_init               0000000180218f10 f   miniaudio:miniaudio.obj
 0001:002180d0       ma_hpf1_init_preallocated  00000001802190d0 f   miniaudio:miniaudio.obj
 0001:00218480       ma_hpf1_process_pcm_frames 0000000180219480 f   miniaudio:miniaudio.obj
 0001:00218830       ma_hpf1_reinit             0000000180219830 f   miniaudio:miniaudio.obj
 0001:00218930       ma_hpf1_uninit             0000000180219930 f   miniaudio:miniaudio.obj
 0001:00218ac0       ma_hpf2_config_init        0000000180219ac0 f   miniaudio:miniaudio.obj
 0001:00218b80       ma_hpf2_get_heap_size      0000000180219b80 f   miniaudio:miniaudio.obj
 0001:00218c10       ma_hpf2_get_latency        0000000180219c10 f   miniaudio:miniaudio.obj
 0001:00218c20       ma_hpf2_init               0000000180219c20 f   miniaudio:miniaudio.obj
 0001:00218d50       ma_hpf2_init_preallocated  0000000180219d50 f   miniaudio:miniaudio.obj
 0001:00219420       ma_hpf2_process_pcm_frames 000000018021a420 f   miniaudio:miniaudio.obj
 0001:00219440       ma_hpf2_reinit             000000018021a440 f   miniaudio:miniaudio.obj
 0001:002195c0       ma_hpf2_uninit             000000018021a5c0 f   miniaudio:miniaudio.obj
 0001:00219690       ma_hpf_config_init         000000018021a690 f   miniaudio:miniaudio.obj
 0001:00219890       ma_hpf_get_heap_size       000000018021a890 f   miniaudio:miniaudio.obj
 0001:002198e0       ma_hpf_get_latency         000000018021a8e0 f   miniaudio:miniaudio.obj
 0001:00219900       ma_hpf_init                000000018021a900 f   miniaudio:miniaudio.obj
 0001:00219a20       ma_hpf_init_preallocated   000000018021aa20 f   miniaudio:miniaudio.obj
 0001:00219a60       ma_hpf_node_config_init    000000018021aa60 f   miniaudio:miniaudio.obj
 0001:00219b20       ma_hpf_node_init           000000018021ab20 f   miniaudio:miniaudio.obj
 0001:00219e20       ma_hpf_node_reinit         000000018021ae20 f   miniaudio:miniaudio.obj
 0001:00219e50       ma_hpf_node_uninit         000000018021ae50 f   miniaudio:miniaudio.obj
 0001:00219fe0       ma_hpf_process_pcm_frames  000000018021afe0 f   miniaudio:miniaudio.obj
 0001:0021aa40       ma_hpf_reinit              000000018021ba40 f   miniaudio:miniaudio.obj
 0001:0021b3d0       ma_hpf_uninit              000000018021c3d0 f   miniaudio:miniaudio.obj
 0001:0021b510       ma_interleave_pcm_frames   000000018021c510 f   miniaudio:miniaudio.obj
 0001:0021b800       ma_is_backend_enabled      000000018021c800 f   miniaudio:miniaudio.obj
 0001:0021b8c0       ma_is_loopback_supported   000000018021c8c0 f   miniaudio:miniaudio.obj
 0001:0021b9b0       ma_itoa_s                  000000018021c9b0 f   miniaudio:miniaudio.obj
 0001:0021bb00       ma_job_init                000000018021cb00 f   miniaudio:miniaudio.obj
 0001:0021bb90       ma_job_process             000000018021cb90 f   miniaudio:miniaudio.obj
 0001:0021bc30       ma_job_queue_config_init   000000018021cc30 f   miniaudio:miniaudio.obj
 0001:0021bd50       ma_job_queue_get_heap_size 000000018021cd50 f   miniaudio:miniaudio.obj
 0001:0021bdc0       ma_job_queue_init          000000018021cdc0 f   miniaudio:miniaudio.obj
 0001:0021bf00       ma_job_queue_init_preallocated 000000018021cf00 f   miniaudio:miniaudio.obj
 0001:0021c170       ma_job_queue_next          000000018021d170 f   miniaudio:miniaudio.obj
 0001:0021c500       ma_job_queue_post          000000018021d500 f   miniaudio:miniaudio.obj
 0001:0021c800       ma_job_queue_uninit        000000018021d800 f   miniaudio:miniaudio.obj
 0001:0021cbb0       ma_linear_resampler_config_init 000000018021dbb0 f   miniaudio:miniaudio.obj
 0001:0021cc60       ma_linear_resampler_get_expected_output_frame_count 000000018021dc60 f   miniaudio:miniaudio.obj
 0001:0021cec0       ma_linear_resampler_get_heap_size 000000018021dec0 f   miniaudio:miniaudio.obj
 0001:0021cf10       ma_linear_resampler_get_input_latency 000000018021df10 f   miniaudio:miniaudio.obj
 0001:0021cf40       ma_linear_resampler_get_output_latency 000000018021df40 f   miniaudio:miniaudio.obj
 0001:0021cf80       ma_linear_resampler_get_required_input_frame_count 000000018021df80 f   miniaudio:miniaudio.obj
 0001:0021cff0       ma_linear_resampler_init   000000018021dff0 f   miniaudio:miniaudio.obj
 0001:0021d0f0       ma_linear_resampler_init_preallocated 000000018021e0f0 f   miniaudio:miniaudio.obj
 0001:0021d720       ma_linear_resampler_process_pcm_frames 000000018021e720 f   miniaudio:miniaudio.obj
 0001:0021f3b0       ma_linear_resampler_reset  00000001802203b0 f   miniaudio:miniaudio.obj
 0001:0021f4d0       ma_linear_resampler_set_rate 00000001802204d0 f   miniaudio:miniaudio.obj
 0001:0021f6e0       ma_linear_resampler_set_rate_ratio 00000001802206e0 f   miniaudio:miniaudio.obj
 0001:0021f740       ma_linear_resampler_uninit 0000000180220740 f   miniaudio:miniaudio.obj
 0001:0021f930       ma_log_callback_init       0000000180220930 f   miniaudio:miniaudio.obj
 0001:0021f9a0       ma_log_init                00000001802209a0 f   miniaudio:miniaudio.obj
 0001:0021fb00       ma_log_level_to_string     0000000180220b00 f   miniaudio:miniaudio.obj
 0001:0021fb90       ma_log_post                0000000180220b90 f   miniaudio:miniaudio.obj
 0001:0021fce0       ma_log_postf               0000000180220ce0 f   miniaudio:miniaudio.obj
 0001:0021ff20       ma_log_postv               0000000180220f20 f   miniaudio:miniaudio.obj
 0001:00220130       ma_log_register_callback   0000000180221130 f   miniaudio:miniaudio.obj
 0001:00220250       ma_log_uninit              0000000180221250 f   miniaudio:miniaudio.obj
 0001:002202b0       ma_log_unregister_callback 00000001802212b0 f   miniaudio:miniaudio.obj
 0001:00220690       ma_loshelf2_config_init    0000000180221690 f   miniaudio:miniaudio.obj
 0001:00220740       ma_loshelf2_get_heap_size  0000000180221740 f   miniaudio:miniaudio.obj
 0001:002207d0       ma_loshelf2_get_latency    00000001802217d0 f   miniaudio:miniaudio.obj
 0001:002207e0       ma_loshelf2_init           00000001802217e0 f   miniaudio:miniaudio.obj
 0001:00220910       ma_loshelf2_init_preallocated 0000000180221910 f   miniaudio:miniaudio.obj
 0001:00220c50       ma_loshelf2_process_pcm_frames 0000000180221c50 f   miniaudio:miniaudio.obj
 0001:00220c70       ma_loshelf2_reinit         0000000180221c70 f   miniaudio:miniaudio.obj
 0001:00220f10       ma_loshelf2_uninit         0000000180221f10 f   miniaudio:miniaudio.obj
 0001:00220f50       ma_loshelf_node_config_init 0000000180221f50 f   miniaudio:miniaudio.obj
 0001:00221000       ma_loshelf_node_init       0000000180222000 f   miniaudio:miniaudio.obj
 0001:002212e0       ma_loshelf_node_reinit     00000001802222e0 f   miniaudio:miniaudio.obj
 0001:002215c0       ma_loshelf_node_uninit     00000001802225c0 f   miniaudio:miniaudio.obj
 0001:00221680       ma_lpf1_clear_cache        0000000180222680 f   miniaudio:miniaudio.obj
 0001:002216a0       ma_lpf1_config_init        00000001802226a0 f   miniaudio:miniaudio.obj
 0001:00221800       ma_lpf1_get_heap_size      0000000180222800 f   miniaudio:miniaudio.obj
 0001:00221840       ma_lpf1_get_latency        0000000180222840 f   miniaudio:miniaudio.obj
 0001:00221850       ma_lpf1_init               0000000180222850 f   miniaudio:miniaudio.obj
 0001:00221a10       ma_lpf1_init_preallocated  0000000180222a10 f   miniaudio:miniaudio.obj
 0001:00221dc0       ma_lpf1_process_pcm_frames 0000000180222dc0 f   miniaudio:miniaudio.obj
 0001:00222170       ma_lpf1_reinit             0000000180223170 f   miniaudio:miniaudio.obj
 0001:00222270       ma_lpf1_uninit             0000000180223270 f   miniaudio:miniaudio.obj
 0001:002223f0       ma_lpf2_clear_cache        00000001802233f0 f   miniaudio:miniaudio.obj
 0001:00222420       ma_lpf2_config_init        0000000180223420 f   miniaudio:miniaudio.obj
 0001:002224e0       ma_lpf2_get_heap_size      00000001802234e0 f   miniaudio:miniaudio.obj
 0001:00222570       ma_lpf2_get_latency        0000000180223570 f   miniaudio:miniaudio.obj
 0001:00222580       ma_lpf2_init               0000000180223580 f   miniaudio:miniaudio.obj
 0001:002226b0       ma_lpf2_init_preallocated  00000001802236b0 f   miniaudio:miniaudio.obj
 0001:00222d70       ma_lpf2_process_pcm_frames 0000000180223d70 f   miniaudio:miniaudio.obj
 0001:00222d90       ma_lpf2_reinit             0000000180223d90 f   miniaudio:miniaudio.obj
 0001:00222f00       ma_lpf2_uninit             0000000180223f00 f   miniaudio:miniaudio.obj
 0001:00222fd0       ma_lpf_clear_cache         0000000180223fd0 f   miniaudio:miniaudio.obj
 0001:00223070       ma_lpf_config_init         0000000180224070 f   miniaudio:miniaudio.obj
 0001:00223270       ma_lpf_get_heap_size       0000000180224270 f   miniaudio:miniaudio.obj
 0001:002232c0       ma_lpf_get_latency         00000001802242c0 f   miniaudio:miniaudio.obj
 0001:002232e0       ma_lpf_init                00000001802242e0 f   miniaudio:miniaudio.obj
 0001:00223400       ma_lpf_init_preallocated   0000000180224400 f   miniaudio:miniaudio.obj
 0001:00223440       ma_lpf_node_config_init    0000000180224440 f   miniaudio:miniaudio.obj
 0001:00223500       ma_lpf_node_init           0000000180224500 f   miniaudio:miniaudio.obj
 0001:00223800       ma_lpf_node_reinit         0000000180224800 f   miniaudio:miniaudio.obj
 0001:00223830       ma_lpf_node_uninit         0000000180224830 f   miniaudio:miniaudio.obj
 0001:002242f0       ma_lpf_process_pcm_frames  00000001802252f0 f   miniaudio:miniaudio.obj
 0001:00224db0       ma_lpf_reinit              0000000180225db0 f   miniaudio:miniaudio.obj
 0001:00225740       ma_lpf_uninit              0000000180226740 f   miniaudio:miniaudio.obj
 0001:00225880       ma_malloc                  0000000180226880 f   miniaudio:miniaudio.obj
 0001:002258f0       ma_mix_pcm_frames_f32      00000001802268f0 f   miniaudio:miniaudio.obj
 0001:00225fd0       ma_mp3_get_cursor_in_pcm_frames 0000000180226fd0 f   miniaudio:miniaudio.obj
 0001:00226000       ma_mp3_get_data_format     0000000180227000 f   miniaudio:miniaudio.obj
 0001:00226130       ma_mp3_get_length_in_pcm_frames 0000000180227130 f   miniaudio:miniaudio.obj
 0001:002262c0       ma_mp3_init                00000001802272c0 f   miniaudio:miniaudio.obj
 0001:00226690       ma_mp3_init_file           0000000180227690 f   miniaudio:miniaudio.obj
 0001:002268d0       ma_mp3_init_file_w         00000001802278d0 f   miniaudio:miniaudio.obj
 0001:00226d80       ma_mp3_init_memory         0000000180227d80 f   miniaudio:miniaudio.obj
 0001:00227140       ma_mp3_read_pcm_frames     0000000180228140 f   miniaudio:miniaudio.obj
 0001:00227250       ma_mp3_seek_to_pcm_frame   0000000180228250 f   miniaudio:miniaudio.obj
 0001:00227280       ma_mp3_uninit              0000000180228280 f   miniaudio:miniaudio.obj
 0001:00227370       ma_mutex_init              0000000180228370 f   miniaudio:miniaudio.obj
 0001:00227440       ma_mutex_lock              0000000180228440 f   miniaudio:miniaudio.obj
 0001:002274a0       ma_mutex_uninit            00000001802284a0 f   miniaudio:miniaudio.obj
 0001:002274d0       ma_mutex_unlock            00000001802284d0 f   miniaudio:miniaudio.obj
 0001:00227520       ma_node_attach_output_bus  0000000180228520 f   miniaudio:miniaudio.obj
 0001:002275f0       ma_node_config_init        00000001802285f0 f   miniaudio:miniaudio.obj
 0001:00227670       ma_node_detach_all_output_buses 0000000180228670 f   miniaudio:miniaudio.obj
 0001:002279e0       ma_node_detach_output_bus  00000001802289e0 f   miniaudio:miniaudio.obj
 0001:00228030       ma_node_get_heap_size      0000000180229030 f   miniaudio:miniaudio.obj
 0001:00228080       ma_node_get_input_bus_count 0000000180229080 f   miniaudio:miniaudio.obj
 0001:00228090       ma_node_get_input_channels 0000000180229090 f   miniaudio:miniaudio.obj
 0001:002280c0       ma_node_get_node_graph     00000001802290c0 f   miniaudio:miniaudio.obj
 0001:002280d0       ma_node_get_output_bus_count 00000001802290d0 f   miniaudio:miniaudio.obj
 0001:002280e0       ma_node_get_output_bus_volume 00000001802290e0 f   miniaudio:miniaudio.obj
 0001:00228110       ma_node_get_output_channels 0000000180229110 f   miniaudio:miniaudio.obj
 0001:00228140       ma_node_get_state          0000000180229140 f   miniaudio:miniaudio.obj
 0001:00228160       ma_node_get_state_by_time  0000000180229160 f   miniaudio:miniaudio.obj
 0001:002281c0       ma_node_get_state_by_time_range 00000001802291c0 f   miniaudio:miniaudio.obj
 0001:00228210       ma_node_get_state_time     0000000180229210 f   miniaudio:miniaudio.obj
 0001:00228240       ma_node_get_time           0000000180229240 f   miniaudio:miniaudio.obj
 0001:00228260       ma_node_graph_config_init  0000000180229260 f   miniaudio:miniaudio.obj
 0001:00228290       ma_node_graph_get_channels 0000000180229290 f   miniaudio:miniaudio.obj
 0001:002282c0       ma_node_graph_get_endpoint 00000001802292c0 f   miniaudio:miniaudio.obj
 0001:002282e0       ma_node_graph_get_time     00000001802292e0 f   miniaudio:miniaudio.obj
 0001:00228310       ma_node_graph_init         0000000180229310 f   miniaudio:miniaudio.obj
 0001:00228670       ma_node_graph_read_pcm_frames 0000000180229670 f   miniaudio:miniaudio.obj
 0001:002288d0       ma_node_graph_set_time     00000001802298d0 f   miniaudio:miniaudio.obj
 0001:00228900       ma_node_graph_uninit       0000000180229900 f   miniaudio:miniaudio.obj
 0001:00228990       ma_node_init               0000000180229990 f   miniaudio:miniaudio.obj
 0001:00228aa0       ma_node_init_preallocated  0000000180229aa0 f   miniaudio:miniaudio.obj
 0001:0022aba0       ma_node_set_output_bus_volume 000000018022bba0 f   miniaudio:miniaudio.obj
 0001:0022ac40       ma_node_set_state          000000018022bc40 f   miniaudio:miniaudio.obj
 0001:0022ac60       ma_node_set_state_time     000000018022bc60 f   miniaudio:miniaudio.obj
 0001:0022ac90       ma_node_set_time           000000018022bc90 f   miniaudio:miniaudio.obj
 0001:0022ae40       ma_node_uninit             000000018022be40 f   miniaudio:miniaudio.obj
 0001:0022aec0       ma_noise_config_init       000000018022bec0 f   miniaudio:miniaudio.obj
 0001:0022b320       ma_noise_get_heap_size     000000018022c320 f   miniaudio:miniaudio.obj
 0001:0022b3a0       ma_noise_init              000000018022c3a0 f   miniaudio:miniaudio.obj
 0001:0022b4e0       ma_noise_init_preallocated 000000018022c4e0 f   miniaudio:miniaudio.obj
 0001:0022b7c0       ma_noise_read_pcm_frames   000000018022c7c0 f   miniaudio:miniaudio.obj
 0001:002308d0       ma_noise_set_amplitude     00000001802318d0 f   miniaudio:miniaudio.obj
 0001:002308f0       ma_noise_set_seed          00000001802318f0 f   miniaudio:miniaudio.obj
 0001:00230910       ma_noise_set_type          0000000180231910 f   miniaudio:miniaudio.obj
 0001:00230960       ma_noise_uninit            0000000180231960 f   miniaudio:miniaudio.obj
 0001:00230af0       ma_notch2_config_init      0000000180231af0 f   miniaudio:miniaudio.obj
 0001:00230bb0       ma_notch2_get_heap_size    0000000180231bb0 f   miniaudio:miniaudio.obj
 0001:00230c40       ma_notch2_get_latency      0000000180231c40 f   miniaudio:miniaudio.obj
 0001:00230c50       ma_notch2_init             0000000180231c50 f   miniaudio:miniaudio.obj
 0001:00230f20       ma_notch2_init_preallocated 0000000180231f20 f   miniaudio:miniaudio.obj
 0001:00231120       ma_notch2_process_pcm_frames 0000000180232120 f   miniaudio:miniaudio.obj
 0001:00231140       ma_notch2_reinit           0000000180232140 f   miniaudio:miniaudio.obj
 0001:002312a0       ma_notch2_uninit           00000001802322a0 f   miniaudio:miniaudio.obj
 0001:002312e0       ma_notch_node_config_init  00000001802322e0 f   miniaudio:miniaudio.obj
 0001:00231390       ma_notch_node_init         0000000180232390 f   miniaudio:miniaudio.obj
 0001:00231580       ma_notch_node_reinit       0000000180232580 f   miniaudio:miniaudio.obj
 0001:00231700       ma_notch_node_uninit       0000000180232700 f   miniaudio:miniaudio.obj
 0001:002317c0       ma_offset_pcm_frames_const_ptr 00000001802327c0 f   miniaudio:miniaudio.obj
 0001:00231840       ma_offset_pcm_frames_ptr   0000000180232840 f   miniaudio:miniaudio.obj
 0001:002318c0       ma_paged_audio_buffer_config_init 00000001802328c0 f   miniaudio:miniaudio.obj
 0001:002318d0       ma_paged_audio_buffer_data_allocate_and_append_page 00000001802328d0 f   miniaudio:miniaudio.obj
 0001:00231a40       ma_paged_audio_buffer_data_allocate_page 0000000180232a40 f   miniaudio:miniaudio.obj
 0001:00231b90       ma_paged_audio_buffer_data_append_page 0000000180232b90 f   miniaudio:miniaudio.obj
 0001:00231bf0       ma_paged_audio_buffer_data_free_page 0000000180232bf0 f   miniaudio:miniaudio.obj
 0001:00231c50       ma_paged_audio_buffer_data_get_head 0000000180232c50 f   miniaudio:miniaudio.obj
 0001:00231c70       ma_paged_audio_buffer_data_get_length_in_pcm_frames 0000000180232c70 f   miniaudio:miniaudio.obj
 0001:00231cc0       ma_paged_audio_buffer_data_get_tail 0000000180232cc0 f   miniaudio:miniaudio.obj
 0001:00231cd0       ma_paged_audio_buffer_data_init 0000000180232cd0 f   miniaudio:miniaudio.obj
 0001:00231d10       ma_paged_audio_buffer_data_uninit 0000000180232d10 f   miniaudio:miniaudio.obj
 0001:00231da0       ma_paged_audio_buffer_get_cursor_in_pcm_frames 0000000180232da0 f   miniaudio:miniaudio.obj
 0001:00231dd0       ma_paged_audio_buffer_get_length_in_pcm_frames 0000000180232dd0 f   miniaudio:miniaudio.obj
 0001:00231e30       ma_paged_audio_buffer_init 0000000180232e30 f   miniaudio:miniaudio.obj
 0001:00231ed0       ma_paged_audio_buffer_read_pcm_frames 0000000180232ed0 f   miniaudio:miniaudio.obj
 0001:002321d0       ma_paged_audio_buffer_seek_to_pcm_frame 00000001802331d0 f   miniaudio:miniaudio.obj
 0001:002322f0       ma_paged_audio_buffer_uninit 00000001802332f0 f   miniaudio:miniaudio.obj
 0001:00232300       ma_panner_config_init      0000000180233300 f   miniaudio:miniaudio.obj
 0001:00232370       ma_panner_get_mode         0000000180233370 f   miniaudio:miniaudio.obj
 0001:00232380       ma_panner_get_pan          0000000180233380 f   miniaudio:miniaudio.obj
 0001:002323a0       ma_panner_init             00000001802333a0 f   miniaudio:miniaudio.obj
 0001:002323e0       ma_panner_process_pcm_frames 00000001802333e0 f   miniaudio:miniaudio.obj
 0001:002324e0       ma_panner_set_mode         00000001802334e0 f   miniaudio:miniaudio.obj
 0001:002324f0       ma_panner_set_pan          00000001802334f0 f   miniaudio:miniaudio.obj
 0001:00232a40       ma_pcm_convert             0000000180233a40 f   miniaudio:miniaudio.obj
 0001:00233370       ma_pcm_deinterleave_f32    0000000180234370 f   miniaudio:miniaudio.obj
 0001:00233790       ma_pcm_deinterleave_s16    0000000180234790 f   miniaudio:miniaudio.obj
 0001:00233940       ma_pcm_deinterleave_s24    0000000180234940 f   miniaudio:miniaudio.obj
 0001:00233be0       ma_pcm_deinterleave_s32    0000000180234be0 f   miniaudio:miniaudio.obj
 0001:00233d90       ma_pcm_deinterleave_u8     0000000180234d90 f   miniaudio:miniaudio.obj
 0001:00233f40       ma_pcm_f32_to_f32          0000000180234f40 f   miniaudio:miniaudio.obj
 0001:00233fe0       ma_pcm_f32_to_s16          0000000180234fe0 f   miniaudio:miniaudio.obj
 0001:00237c30       ma_pcm_f32_to_s24          0000000180238c30 f   miniaudio:miniaudio.obj
 0001:002383f0       ma_pcm_f32_to_s32          00000001802393f0 f   miniaudio:miniaudio.obj
 0001:00238a30       ma_pcm_f32_to_u8           0000000180239a30 f   miniaudio:miniaudio.obj
 0001:0023a130       ma_pcm_interleave_f32      000000018023b130 f   miniaudio:miniaudio.obj
 0001:0023a550       ma_pcm_interleave_s16      000000018023b550 f   miniaudio:miniaudio.obj
 0001:0023a700       ma_pcm_interleave_s24      000000018023b700 f   miniaudio:miniaudio.obj
 0001:0023a9a0       ma_pcm_interleave_s32      000000018023b9a0 f   miniaudio:miniaudio.obj
 0001:0023ab50       ma_pcm_interleave_u8       000000018023bb50 f   miniaudio:miniaudio.obj
 0001:0023ae10       ma_pcm_rb_acquire_read     000000018023be10 f   miniaudio:miniaudio.obj
 0001:0023afb0       ma_pcm_rb_acquire_write    000000018023bfb0 f   miniaudio:miniaudio.obj
 0001:0023b1b0       ma_pcm_rb_available_read   000000018023c1b0 f   miniaudio:miniaudio.obj
 0001:0023b2a0       ma_pcm_rb_available_write  000000018023c2a0 f   miniaudio:miniaudio.obj
 0001:0023b390       ma_pcm_rb_commit_read      000000018023c390 f   miniaudio:miniaudio.obj
 0001:0023b4f0       ma_pcm_rb_commit_write     000000018023c4f0 f   miniaudio:miniaudio.obj
 0001:0023b6e0       ma_pcm_rb_get_channels     000000018023c6e0 f   miniaudio:miniaudio.obj
 0001:0023b700       ma_pcm_rb_get_format       000000018023c700 f   miniaudio:miniaudio.obj
 0001:0023b720       ma_pcm_rb_get_sample_rate  000000018023c720 f   miniaudio:miniaudio.obj
 0001:0023b740       ma_pcm_rb_get_subbuffer_offset 000000018023c740 f   miniaudio:miniaudio.obj
 0001:0023b7f0       ma_pcm_rb_get_subbuffer_ptr 000000018023c7f0 f   miniaudio:miniaudio.obj
 0001:0023b820       ma_pcm_rb_get_subbuffer_size 000000018023c820 f   miniaudio:miniaudio.obj
 0001:0023b8b0       ma_pcm_rb_get_subbuffer_stride 000000018023c8b0 f   miniaudio:miniaudio.obj
 0001:0023b950       ma_pcm_rb_init             000000018023c950 f   miniaudio:miniaudio.obj
 0001:0023b9a0       ma_pcm_rb_init_ex          000000018023c9a0 f   miniaudio:miniaudio.obj
 0001:0023bc90       ma_pcm_rb_pointer_distance 000000018023cc90 f   miniaudio:miniaudio.obj
 0001:0023bd70       ma_pcm_rb_reset            000000018023cd70 f   miniaudio:miniaudio.obj
 0001:0023bd90       ma_pcm_rb_seek_read        000000018023cd90 f   miniaudio:miniaudio.obj
 0001:0023bee0       ma_pcm_rb_seek_write       000000018023cee0 f   miniaudio:miniaudio.obj
 0001:0023c020       ma_pcm_rb_set_sample_rate  000000018023d020 f   miniaudio:miniaudio.obj
 0001:0023c030       ma_pcm_rb_uninit           000000018023d030 f   miniaudio:miniaudio.obj
 0001:0023c080       ma_pcm_s16_to_f32          000000018023d080 f   miniaudio:miniaudio.obj
 0001:0023c940       ma_pcm_s16_to_s16          000000018023d940 f   miniaudio:miniaudio.obj
 0001:0023c9d0       ma_pcm_s16_to_s24          000000018023d9d0 f   miniaudio:miniaudio.obj
 0001:0023cad0       ma_pcm_s16_to_s32          000000018023dad0 f   miniaudio:miniaudio.obj
 0001:0023d110       ma_pcm_s16_to_u8           000000018023e110 f   miniaudio:miniaudio.obj
 0001:0023ddd0       ma_pcm_s24_to_f32          000000018023edd0 f   miniaudio:miniaudio.obj
 0001:0023e4d0       ma_pcm_s24_to_s16          000000018023f4d0 f   miniaudio:miniaudio.obj
 0001:0023ef10       ma_pcm_s24_to_s24          000000018023ff10 f   miniaudio:miniaudio.obj
 0001:0023efa0       ma_pcm_s24_to_s32          000000018023ffa0 f   miniaudio:miniaudio.obj
 0001:0023f0e0       ma_pcm_s24_to_u8           00000001802400e0 f   miniaudio:miniaudio.obj
 0001:0023fa60       ma_pcm_s32_to_f32          0000000180240a60 f   miniaudio:miniaudio.obj
 0001:00240260       ma_pcm_s32_to_s16          0000000180241260 f   miniaudio:miniaudio.obj
 0001:00240fe0       ma_pcm_s32_to_s24          0000000180241fe0 f   miniaudio:miniaudio.obj
 0001:00241120       ma_pcm_s32_to_s32          0000000180242120 f   miniaudio:miniaudio.obj
 0001:002411c0       ma_pcm_s32_to_u8           00000001802421c0 f   miniaudio:miniaudio.obj
 0001:00241ef0       ma_pcm_u8_to_f32           0000000180242ef0 f   miniaudio:miniaudio.obj
 0001:00242830       ma_pcm_u8_to_s16           0000000180243830 f   miniaudio:miniaudio.obj
 0001:00242db0       ma_pcm_u8_to_s24           0000000180243db0 f   miniaudio:miniaudio.obj
 0001:00242eb0       ma_pcm_u8_to_s32           0000000180243eb0 f   miniaudio:miniaudio.obj
 0001:00243470       ma_pcm_u8_to_u8            0000000180244470 f   miniaudio:miniaudio.obj
 0001:002436a0       ma_peak2_config_init       00000001802446a0 f   miniaudio:miniaudio.obj
 0001:00243770       ma_peak2_get_heap_size     0000000180244770 f   miniaudio:miniaudio.obj
 0001:00243800       ma_peak2_get_latency       0000000180244800 f   miniaudio:miniaudio.obj
 0001:00243810       ma_peak2_init              0000000180244810 f   miniaudio:miniaudio.obj
 0001:00243940       ma_peak2_init_preallocated 0000000180244940 f   miniaudio:miniaudio.obj
 0001:00243ba0       ma_peak2_process_pcm_frames 0000000180244ba0 f   miniaudio:miniaudio.obj
 0001:00243bc0       ma_peak2_reinit            0000000180244bc0 f   miniaudio:miniaudio.obj
 0001:00243d80       ma_peak2_uninit            0000000180244d80 f   miniaudio:miniaudio.obj
 0001:00243dc0       ma_peak_node_config_init   0000000180244dc0 f   miniaudio:miniaudio.obj
 0001:00243e90       ma_peak_node_init          0000000180244e90 f   miniaudio:miniaudio.obj
 0001:002441b0       ma_peak_node_reinit        00000001802451b0 f   miniaudio:miniaudio.obj
 0001:002443a0       ma_peak_node_uninit        00000001802453a0 f   miniaudio:miniaudio.obj
 0001:00244490       ma_pulsewave_config_init   0000000180245490 f   miniaudio:miniaudio.obj
 0001:00244540       ma_pulsewave_init          0000000180245540 f   miniaudio:miniaudio.obj
 0001:00244640       ma_pulsewave_read_pcm_frames 0000000180245640 f   miniaudio:miniaudio.obj
 0001:002446e0       ma_pulsewave_seek_to_pcm_frame 00000001802456e0 f   miniaudio:miniaudio.obj
 0001:00244710       ma_pulsewave_set_amplitude 0000000180245710 f   miniaudio:miniaudio.obj
 0001:00244740       ma_pulsewave_set_duty_cycle 0000000180245740 f   miniaudio:miniaudio.obj
 0001:00244760       ma_pulsewave_set_frequency 0000000180245760 f   miniaudio:miniaudio.obj
 0001:002447b0       ma_pulsewave_set_sample_rate 00000001802457b0 f   miniaudio:miniaudio.obj
 0001:00244800       ma_pulsewave_uninit        0000000180245800 f   miniaudio:miniaudio.obj
 0001:00244a40       ma_rb_acquire_read         0000000180245a40 f   miniaudio:miniaudio.obj
 0001:00244af0       ma_rb_acquire_write        0000000180245af0 f   miniaudio:miniaudio.obj
 0001:00244c10       ma_rb_available_read       0000000180245c10 f   miniaudio:miniaudio.obj
 0001:00244c90       ma_rb_available_write      0000000180245c90 f   miniaudio:miniaudio.obj
 0001:00244d00       ma_rb_commit_read          0000000180245d00 f   miniaudio:miniaudio.obj
 0001:00244de0       ma_rb_commit_write         0000000180245de0 f   miniaudio:miniaudio.obj
 0001:00244ec0       ma_rb_get_subbuffer_offset 0000000180245ec0 f   miniaudio:miniaudio.obj
 0001:00244ee0       ma_rb_get_subbuffer_ptr    0000000180245ee0 f   miniaudio:miniaudio.obj
 0001:00244f00       ma_rb_get_subbuffer_size   0000000180245f00 f   miniaudio:miniaudio.obj
 0001:00244f10       ma_rb_get_subbuffer_stride 0000000180245f10 f   miniaudio:miniaudio.obj
 0001:00244f30       ma_rb_init                 0000000180245f30 f   miniaudio:miniaudio.obj
 0001:002450d0       ma_rb_init_ex              00000001802460d0 f   miniaudio:miniaudio.obj
 0001:00245270       ma_rb_pointer_distance     0000000180246270 f   miniaudio:miniaudio.obj
 0001:002452d0       ma_rb_reset                00000001802462d0 f   miniaudio:miniaudio.obj
 0001:002452f0       ma_rb_seek_read            00000001802462f0 f   miniaudio:miniaudio.obj
 0001:002453b0       ma_rb_seek_write           00000001802463b0 f   miniaudio:miniaudio.obj
 0001:00245470       ma_rb_uninit               0000000180246470 f   miniaudio:miniaudio.obj
 0001:002454c0       ma_realloc                 00000001802464c0 f   miniaudio:miniaudio.obj
 0001:002454e0       ma_resampler_config_init   00000001802464e0 f   miniaudio:miniaudio.obj
 0001:002456d0       ma_resampler_get_expected_output_frame_count 00000001802466d0 f   miniaudio:miniaudio.obj
 0001:00245720       ma_resampler_get_heap_size 0000000180246720 f   miniaudio:miniaudio.obj
 0001:00245790       ma_resampler_get_input_latency 0000000180246790 f   miniaudio:miniaudio.obj
 0001:002457c0       ma_resampler_get_output_latency 00000001802467c0 f   miniaudio:miniaudio.obj
 0001:002457f0       ma_resampler_get_required_input_frame_count 00000001802467f0 f   miniaudio:miniaudio.obj
 0001:00245940       ma_resampler_init          0000000180246940 f   miniaudio:miniaudio.obj
 0001:00245aa0       ma_resampler_init_preallocated 0000000180246aa0 f   miniaudio:miniaudio.obj
 0001:00245c20       ma_resampler_process_pcm_frames 0000000180246c20 f   miniaudio:miniaudio.obj
 0001:00245ca0       ma_resampler_reset         0000000180246ca0 f   miniaudio:miniaudio.obj
 0001:00245ce0       ma_resampler_set_rate      0000000180246ce0 f   miniaudio:miniaudio.obj
 0001:00245d90       ma_resampler_set_rate_ratio 0000000180246d90 f   miniaudio:miniaudio.obj
 0001:00245e40       ma_resampler_uninit        0000000180246e40 f   miniaudio:miniaudio.obj
 0001:00246270       ma_resource_manager_config_init 0000000180247270 f   miniaudio:miniaudio.obj
 0001:00246460       ma_resource_manager_data_buffer_get_available_frames 0000000180247460 f   miniaudio:miniaudio.obj
 0001:00246710       ma_resource_manager_data_buffer_get_cursor_in_pcm_frames 0000000180247710 f   miniaudio:miniaudio.obj
 0001:00246880       ma_resource_manager_data_buffer_get_data_format 0000000180247880 f   miniaudio:miniaudio.obj
 0001:00246b70       ma_resource_manager_data_buffer_get_length_in_pcm_frames 0000000180247b70 f   miniaudio:miniaudio.obj
 0001:00246ca0       ma_resource_manager_data_buffer_init 0000000180247ca0 f   miniaudio:miniaudio.obj
 0001:002472a0       ma_resource_manager_data_buffer_init_copy 00000001802482a0 f   miniaudio:miniaudio.obj
 0001:002473e0       ma_resource_manager_data_buffer_init_ex 00000001802483e0 f   miniaudio:miniaudio.obj
 0001:00247a80       ma_resource_manager_data_buffer_init_w 0000000180248a80 f   miniaudio:miniaudio.obj
 0001:00247b40       ma_resource_manager_data_buffer_is_looping 0000000180248b40 f   miniaudio:miniaudio.obj
 0001:0024a090       ma_resource_manager_data_buffer_read_pcm_frames 000000018024b090 f   miniaudio:miniaudio.obj
 0001:0024a370       ma_resource_manager_data_buffer_result 000000018024b370 f   miniaudio:miniaudio.obj
 0001:0024a390       ma_resource_manager_data_buffer_seek_to_pcm_frame 000000018024b390 f   miniaudio:miniaudio.obj
 0001:0024a4b0       ma_resource_manager_data_buffer_set_looping 000000018024b4b0 f   miniaudio:miniaudio.obj
 0001:0024a4e0       ma_resource_manager_data_buffer_uninit 000000018024b4e0 f   miniaudio:miniaudio.obj
 0001:0024a9e0       ma_resource_manager_data_source_config_init 000000018024b9e0 f   miniaudio:miniaudio.obj
 0001:0024aa70       ma_resource_manager_data_source_get_available_frames 000000018024ba70 f   miniaudio:miniaudio.obj
 0001:0024ab20       ma_resource_manager_data_source_get_cursor_in_pcm_frames 000000018024bb20 f   miniaudio:miniaudio.obj
 0001:0024ac40       ma_resource_manager_data_source_get_data_format 000000018024bc40 f   miniaudio:miniaudio.obj
 0001:0024ae30       ma_resource_manager_data_source_get_length_in_pcm_frames 000000018024be30 f   miniaudio:miniaudio.obj
 0001:0024aef0       ma_resource_manager_data_source_init 000000018024bef0 f   miniaudio:miniaudio.obj
 0001:0024b020       ma_resource_manager_data_source_init_copy 000000018024c020 f   miniaudio:miniaudio.obj
 0001:0024b1c0       ma_resource_manager_data_source_init_ex 000000018024c1c0 f   miniaudio:miniaudio.obj
 0001:0024b280       ma_resource_manager_data_source_init_w 000000018024c280 f   miniaudio:miniaudio.obj
 0001:0024b3b0       ma_resource_manager_data_source_is_looping 000000018024c3b0 f   miniaudio:miniaudio.obj
 0001:0024b3e0       ma_resource_manager_data_source_map 000000018024c3e0 f   miniaudio:miniaudio.obj
 0001:0024b640       ma_resource_manager_data_source_read_pcm_frames 000000018024c640 f   miniaudio:miniaudio.obj
 0001:0024b680       ma_resource_manager_data_source_result 000000018024c680 f   miniaudio:miniaudio.obj
 0001:0024b6b0       ma_resource_manager_data_source_seek_to_pcm_frame 000000018024c6b0 f   miniaudio:miniaudio.obj
 0001:0024b6e0       ma_resource_manager_data_source_set_looping 000000018024c6e0 f   miniaudio:miniaudio.obj
 0001:0024b720       ma_resource_manager_data_source_uninit 000000018024c720 f   miniaudio:miniaudio.obj
 0001:0024b990       ma_resource_manager_data_source_unmap 000000018024c990 f   miniaudio:miniaudio.obj
 0001:0024beb0       ma_resource_manager_data_stream_get_available_frames 000000018024ceb0 f   miniaudio:miniaudio.obj
 0001:0024bf50       ma_resource_manager_data_stream_get_cursor_in_pcm_frames 000000018024cf50 f   miniaudio:miniaudio.obj
 0001:0024c020       ma_resource_manager_data_stream_get_data_format 000000018024d020 f   miniaudio:miniaudio.obj
 0001:0024c1e0       ma_resource_manager_data_stream_get_length_in_pcm_frames 000000018024d1e0 f   miniaudio:miniaudio.obj
 0001:0024c460       ma_resource_manager_data_stream_init 000000018024d460 f   miniaudio:miniaudio.obj
 0001:0024c520       ma_resource_manager_data_stream_init_ex 000000018024d520 f   miniaudio:miniaudio.obj
 0001:0024cac0       ma_resource_manager_data_stream_init_w 000000018024dac0 f   miniaudio:miniaudio.obj
 0001:0024cbd0       ma_resource_manager_data_stream_is_looping 000000018024dbd0 f   miniaudio:miniaudio.obj
 0001:0024ce10       ma_resource_manager_data_stream_read_pcm_frames 000000018024de10 f   miniaudio:miniaudio.obj
 0001:0024d2c0       ma_resource_manager_data_stream_result 000000018024e2c0 f   miniaudio:miniaudio.obj
 0001:0024d330       ma_resource_manager_data_stream_seek_to_pcm_frame 000000018024e330 f   miniaudio:miniaudio.obj
 0001:0024d580       ma_resource_manager_data_stream_set_looping 000000018024e580 f   miniaudio:miniaudio.obj
 0001:0024d5b0       ma_resource_manager_data_stream_uninit 000000018024e5b0 f   miniaudio:miniaudio.obj
 0001:0024dc20       ma_resource_manager_get_log 000000018024ec20 f   miniaudio:miniaudio.obj
 0001:0024dc30       ma_resource_manager_init   000000018024ec30 f   miniaudio:miniaudio.obj
 0001:0024e8b0       ma_resource_manager_next_job 000000018024f8b0 f   miniaudio:miniaudio.obj
 0001:0024e910       ma_resource_manager_pipeline_notifications_init 000000018024f910 f   miniaudio:miniaudio.obj
 0001:0024ea00       ma_resource_manager_post_job 000000018024fa00 f   miniaudio:miniaudio.obj
 0001:0024ea20       ma_resource_manager_post_job_quit 000000018024fa20 f   miniaudio:miniaudio.obj
 0001:0024ead0       ma_resource_manager_process_job 000000018024fad0 f   miniaudio:miniaudio.obj
 0001:0024eb10       ma_resource_manager_process_next_job 000000018024fb10 f   miniaudio:miniaudio.obj
 0001:0024ebd0       ma_resource_manager_register_decoded_data 000000018024fbd0 f   miniaudio:miniaudio.obj
 0001:0024ece0       ma_resource_manager_register_decoded_data_w 000000018024fce0 f   miniaudio:miniaudio.obj
 0001:0024efe0       ma_resource_manager_register_encoded_data 000000018024ffe0 f   miniaudio:miniaudio.obj
 0001:0024f0a0       ma_resource_manager_register_encoded_data_w 00000001802500a0 f   miniaudio:miniaudio.obj
 0001:0024f370       ma_resource_manager_register_file 0000000180250370 f   miniaudio:miniaudio.obj
 0001:0024f3b0       ma_resource_manager_register_file_w 00000001802503b0 f   miniaudio:miniaudio.obj
 0001:0024f3f0       ma_resource_manager_uninit 00000001802503f0 f   miniaudio:miniaudio.obj
 0001:0024f630       ma_resource_manager_unregister_data 0000000180250630 f   miniaudio:miniaudio.obj
 0001:0024f640       ma_resource_manager_unregister_data_w 0000000180250640 f   miniaudio:miniaudio.obj
 0001:0024f650       ma_resource_manager_unregister_file 0000000180250650 f   miniaudio:miniaudio.obj
 0001:0024f660       ma_resource_manager_unregister_file_w 0000000180250660 f   miniaudio:miniaudio.obj
 0001:0024f6a0       ma_result_description      00000001802506a0 f   miniaudio:miniaudio.obj
 0001:002505f0       ma_semaphore_init          00000001802515f0 f   miniaudio:miniaudio.obj
 0001:002506c0       ma_semaphore_release       00000001802516c0 f   miniaudio:miniaudio.obj
 0001:00250770       ma_semaphore_uninit        0000000180251770 f   miniaudio:miniaudio.obj
 0001:002507c0       ma_semaphore_wait          00000001802517c0 f   miniaudio:miniaudio.obj
 0001:00250890       ma_silence_pcm_frames      0000000180251890 f   miniaudio:miniaudio.obj
 0001:002509f0       ma_slot_allocator_alloc    00000001802519f0 f   miniaudio:miniaudio.obj
 0001:00250bd0       ma_slot_allocator_config_init 0000000180251bd0 f   miniaudio:miniaudio.obj
 0001:00250be0       ma_slot_allocator_free     0000000180251be0 f   miniaudio:miniaudio.obj
 0001:00250dc0       ma_slot_allocator_get_heap_size 0000000180251dc0 f   miniaudio:miniaudio.obj
 0001:00250e50       ma_slot_allocator_init     0000000180251e50 f   miniaudio:miniaudio.obj
 0001:00251010       ma_slot_allocator_init_preallocated 0000000180252010 f   miniaudio:miniaudio.obj
 0001:00251120       ma_slot_allocator_uninit   0000000180252120 f   miniaudio:miniaudio.obj
 0001:00251160       ma_sound_at_end            0000000180252160 f   miniaudio:miniaudio.obj
 0001:00251190       ma_sound_config_init       0000000180252190 f   miniaudio:miniaudio.obj
 0001:00251260       ma_sound_config_init_2     0000000180252260 f   miniaudio:miniaudio.obj
 0001:00251340       ma_sound_get_attenuation_model 0000000180252340 f   miniaudio:miniaudio.obj
 0001:00251370       ma_sound_get_cone          0000000180252370 f   miniaudio:miniaudio.obj
 0001:002513e0       ma_sound_get_current_fade_volume 00000001802523e0 f   miniaudio:miniaudio.obj
 0001:00251470       ma_sound_get_cursor_in_pcm_frames 0000000180252470 f   miniaudio:miniaudio.obj
 0001:002515b0       ma_sound_get_cursor_in_seconds 00000001802525b0 f   miniaudio:miniaudio.obj
 0001:00251750       ma_sound_get_data_format   0000000180252750 f   miniaudio:miniaudio.obj
 0001:00251930       ma_sound_get_data_source   0000000180252930 f   miniaudio:miniaudio.obj
 0001:00251950       ma_sound_get_direction     0000000180252950 f   miniaudio:miniaudio.obj
 0001:00251a30       ma_sound_get_direction_to_listener 0000000180252a30 f   miniaudio:miniaudio.obj
 0001:00251b90       ma_sound_get_directional_attenuation_factor 0000000180252b90 f   miniaudio:miniaudio.obj
 0001:00251bc0       ma_sound_get_doppler_factor 0000000180252bc0 f   miniaudio:miniaudio.obj
 0001:00251c00       ma_sound_get_engine        0000000180252c00 f   miniaudio:miniaudio.obj
 0001:00251c20       ma_sound_get_length_in_pcm_frames 0000000180252c20 f   miniaudio:miniaudio.obj
 0001:00251c90       ma_sound_get_length_in_seconds 0000000180252c90 f   miniaudio:miniaudio.obj
 0001:00251de0       ma_sound_get_listener_index 0000000180252de0 f   miniaudio:miniaudio.obj
 0001:00251ef0       ma_sound_get_max_distance  0000000180252ef0 f   miniaudio:miniaudio.obj
 0001:00251f20       ma_sound_get_max_gain      0000000180252f20 f   miniaudio:miniaudio.obj
 0001:00251f50       ma_sound_get_min_distance  0000000180252f50 f   miniaudio:miniaudio.obj
 0001:00251f80       ma_sound_get_min_gain      0000000180252f80 f   miniaudio:miniaudio.obj
 0001:00251fb0       ma_sound_get_pan           0000000180252fb0 f   miniaudio:miniaudio.obj
 0001:00251fd0       ma_sound_get_pan_mode      0000000180252fd0 f   miniaudio:miniaudio.obj
 0001:00251ff0       ma_sound_get_pinned_listener_index 0000000180252ff0 f   miniaudio:miniaudio.obj
 0001:00252010       ma_sound_get_pitch         0000000180253010 f   miniaudio:miniaudio.obj
 0001:00252030       ma_sound_get_position      0000000180253030 f   miniaudio:miniaudio.obj
 0001:00252110       ma_sound_get_positioning   0000000180253110 f   miniaudio:miniaudio.obj
 0001:00252140       ma_sound_get_rolloff       0000000180253140 f   miniaudio:miniaudio.obj
 0001:00252170       ma_sound_get_time_in_milliseconds 0000000180253170 f   miniaudio:miniaudio.obj
 0001:002521d0       ma_sound_get_time_in_pcm_frames 00000001802531d0 f   miniaudio:miniaudio.obj
 0001:002521f0       ma_sound_get_velocity      00000001802531f0 f   miniaudio:miniaudio.obj
 0001:002522d0       ma_sound_get_volume        00000001802532d0 f   miniaudio:miniaudio.obj
 0001:002522f0       ma_sound_group_config_init 00000001802532f0 f   miniaudio:miniaudio.obj
 0001:002523a0       ma_sound_group_config_init_2 00000001802533a0 f   miniaudio:miniaudio.obj
 0001:00252430       ma_sound_group_get_attenuation_model 0000000180253430 f   miniaudio:miniaudio.obj
 0001:00252460       ma_sound_group_get_cone    0000000180253460 f   miniaudio:miniaudio.obj
 0001:002524d0       ma_sound_group_get_current_fade_volume 00000001802534d0 f   miniaudio:miniaudio.obj
 0001:00252560       ma_sound_group_get_direction 0000000180253560 f   miniaudio:miniaudio.obj
 0001:00252670       ma_sound_group_get_direction_to_listener 0000000180253670 f   miniaudio:miniaudio.obj
 0001:002527b0       ma_sound_group_get_directional_attenuation_factor 00000001802537b0 f   miniaudio:miniaudio.obj
 0001:002527e0       ma_sound_group_get_doppler_factor 00000001802537e0 f   miniaudio:miniaudio.obj
 0001:00252820       ma_sound_group_get_engine  0000000180253820 f   miniaudio:miniaudio.obj
 0001:00252840       ma_sound_group_get_listener_index 0000000180253840 f   miniaudio:miniaudio.obj
 0001:00252850       ma_sound_group_get_max_distance 0000000180253850 f   miniaudio:miniaudio.obj
 0001:00252880       ma_sound_group_get_max_gain 0000000180253880 f   miniaudio:miniaudio.obj
 0001:002528b0       ma_sound_group_get_min_distance 00000001802538b0 f   miniaudio:miniaudio.obj
 0001:002528e0       ma_sound_group_get_min_gain 00000001802538e0 f   miniaudio:miniaudio.obj
 0001:00252910       ma_sound_group_get_pan     0000000180253910 f   miniaudio:miniaudio.obj
 0001:00252930       ma_sound_group_get_pan_mode 0000000180253930 f   miniaudio:miniaudio.obj
 0001:00252950       ma_sound_group_get_pinned_listener_index 0000000180253950 f   miniaudio:miniaudio.obj
 0001:00252970       ma_sound_group_get_pitch   0000000180253970 f   miniaudio:miniaudio.obj
 0001:00252990       ma_sound_group_get_position 0000000180253990 f   miniaudio:miniaudio.obj
 0001:00252a90       ma_sound_group_get_positioning 0000000180253a90 f   miniaudio:miniaudio.obj
 0001:00252ac0       ma_sound_group_get_rolloff 0000000180253ac0 f   miniaudio:miniaudio.obj
 0001:00252af0       ma_sound_group_get_time_in_pcm_frames 0000000180253af0 f   miniaudio:miniaudio.obj
 0001:00252b10       ma_sound_group_get_velocity 0000000180253b10 f   miniaudio:miniaudio.obj
 0001:00252c10       ma_sound_group_get_volume  0000000180253c10 f   miniaudio:miniaudio.obj
 0001:00252c30       ma_sound_group_init        0000000180253c30 f   miniaudio:miniaudio.obj
 0001:00252e50       ma_sound_group_init_ex     0000000180253e50 f   miniaudio:miniaudio.obj
 0001:00252fb0       ma_sound_group_is_playing  0000000180253fb0 f   miniaudio:miniaudio.obj
 0001:00253030       ma_sound_group_is_spatialization_enabled 0000000180254030 f   miniaudio:miniaudio.obj
 0001:00253060       ma_sound_group_set_attenuation_model 0000000180254060 f   miniaudio:miniaudio.obj
 0001:00253080       ma_sound_group_set_cone    0000000180254080 f   miniaudio:miniaudio.obj
 0001:002530d0       ma_sound_group_set_direction 00000001802540d0 f   miniaudio:miniaudio.obj
 0001:00253180       ma_sound_group_set_directional_attenuation_factor 0000000180254180 f   miniaudio:miniaudio.obj
 0001:002531b0       ma_sound_group_set_doppler_factor 00000001802541b0 f   miniaudio:miniaudio.obj
 0001:002531e0       ma_sound_group_set_fade_in_milliseconds 00000001802541e0 f   miniaudio:miniaudio.obj
 0001:00253260       ma_sound_group_set_fade_in_pcm_frames 0000000180254260 f   miniaudio:miniaudio.obj
 0001:002532b0       ma_sound_group_set_max_distance 00000001802542b0 f   miniaudio:miniaudio.obj
 0001:002532e0       ma_sound_group_set_max_gain 00000001802542e0 f   miniaudio:miniaudio.obj
 0001:00253310       ma_sound_group_set_min_distance 0000000180254310 f   miniaudio:miniaudio.obj
 0001:00253340       ma_sound_group_set_min_gain 0000000180254340 f   miniaudio:miniaudio.obj
 0001:00253370       ma_sound_group_set_pan     0000000180254370 f   miniaudio:miniaudio.obj
 0001:002533b0       ma_sound_group_set_pan_mode 00000001802543b0 f   miniaudio:miniaudio.obj
 0001:002533d0       ma_sound_group_set_pinned_listener_index 00000001802543d0 f   miniaudio:miniaudio.obj
 0001:00253400       ma_sound_group_set_pitch   0000000180254400 f   miniaudio:miniaudio.obj
 0001:00253430       ma_sound_group_set_position 0000000180254430 f   miniaudio:miniaudio.obj
 0001:002534e0       ma_sound_group_set_positioning 00000001802544e0 f   miniaudio:miniaudio.obj
 0001:00253500       ma_sound_group_set_rolloff 0000000180254500 f   miniaudio:miniaudio.obj
 0001:00253530       ma_sound_group_set_spatialization_enabled 0000000180254530 f   miniaudio:miniaudio.obj
 0001:00253550       ma_sound_group_set_start_time_in_milliseconds 0000000180254550 f   miniaudio:miniaudio.obj
 0001:002535a0       ma_sound_group_set_start_time_in_pcm_frames 00000001802545a0 f   miniaudio:miniaudio.obj
 0001:002535b0       ma_sound_group_set_stop_time_in_milliseconds 00000001802545b0 f   miniaudio:miniaudio.obj
 0001:00253600       ma_sound_group_set_stop_time_in_pcm_frames 0000000180254600 f   miniaudio:miniaudio.obj
 0001:00253610       ma_sound_group_set_velocity 0000000180254610 f   miniaudio:miniaudio.obj
 0001:002536c0       ma_sound_group_set_volume  00000001802546c0 f   miniaudio:miniaudio.obj
 0001:002537c0       ma_sound_group_start       00000001802547c0 f   miniaudio:miniaudio.obj
 0001:002537d0       ma_sound_group_stop        00000001802547d0 f   miniaudio:miniaudio.obj
 0001:002537f0       ma_sound_group_uninit      00000001802547f0 f   miniaudio:miniaudio.obj
 0001:00253800       ma_sound_init_copy         0000000180254800 f   miniaudio:miniaudio.obj
 0001:00253cb0       ma_sound_init_ex           0000000180254cb0 f   miniaudio:miniaudio.obj
 0001:00253da0       ma_sound_init_from_data_source 0000000180254da0 f   miniaudio:miniaudio.obj
 0001:002546a0       ma_sound_init_from_file    00000001802556a0 f   miniaudio:miniaudio.obj
 0001:00254870       ma_sound_init_from_file_internal 0000000180255870 f   miniaudio:miniaudio.obj
 0001:00254bd0       ma_sound_init_from_file_w  0000000180255bd0 f   miniaudio:miniaudio.obj
 0001:00254da0       ma_sound_is_looping        0000000180255da0 f   miniaudio:miniaudio.obj
 0001:00254dd0       ma_sound_is_playing        0000000180255dd0 f   miniaudio:miniaudio.obj
 0001:00254e50       ma_sound_is_spatialization_enabled 0000000180255e50 f   miniaudio:miniaudio.obj
 0001:00254ee0       ma_sound_seek_to_pcm_frame 0000000180255ee0 f   miniaudio:miniaudio.obj
 0001:00254f90       ma_sound_set_attenuation_model 0000000180255f90 f   miniaudio:miniaudio.obj
 0001:00254fb0       ma_sound_set_cone          0000000180255fb0 f   miniaudio:miniaudio.obj
 0001:00255000       ma_sound_set_direction     0000000180256000 f   miniaudio:miniaudio.obj
 0001:002550b0       ma_sound_set_directional_attenuation_factor 00000001802560b0 f   miniaudio:miniaudio.obj
 0001:002550e0       ma_sound_set_doppler_factor 00000001802560e0 f   miniaudio:miniaudio.obj
 0001:00255110       ma_sound_set_end_callback  0000000180256110 f   miniaudio:miniaudio.obj
 0001:00255150       ma_sound_set_fade_in_milliseconds 0000000180256150 f   miniaudio:miniaudio.obj
 0001:002551d0       ma_sound_set_fade_in_pcm_frames 00000001802561d0 f   miniaudio:miniaudio.obj
 0001:00255220       ma_sound_set_fade_start_in_milliseconds 0000000180256220 f   miniaudio:miniaudio.obj
 0001:002552e0       ma_sound_set_fade_start_in_pcm_frames 00000001802562e0 f   miniaudio:miniaudio.obj
 0001:00255330       ma_sound_set_looping       0000000180256330 f   miniaudio:miniaudio.obj
 0001:00255360       ma_sound_set_max_distance  0000000180256360 f   miniaudio:miniaudio.obj
 0001:00255390       ma_sound_set_max_gain      0000000180256390 f   miniaudio:miniaudio.obj
 0001:002553c0       ma_sound_set_min_distance  00000001802563c0 f   miniaudio:miniaudio.obj
 0001:002553f0       ma_sound_set_min_gain      00000001802563f0 f   miniaudio:miniaudio.obj
 0001:00255420       ma_sound_set_pan           0000000180256420 f   miniaudio:miniaudio.obj
 0001:00255460       ma_sound_set_pan_mode      0000000180256460 f   miniaudio:miniaudio.obj
 0001:00255480       ma_sound_set_pinned_listener_index 0000000180256480 f   miniaudio:miniaudio.obj
 0001:002554b0       ma_sound_set_pitch         00000001802564b0 f   miniaudio:miniaudio.obj
 0001:002554e0       ma_sound_set_position      00000001802564e0 f   miniaudio:miniaudio.obj
 0001:00255590       ma_sound_set_positioning   0000000180256590 f   miniaudio:miniaudio.obj
 0001:002555b0       ma_sound_set_rolloff       00000001802565b0 f   miniaudio:miniaudio.obj
 0001:002555e0       ma_sound_set_spatialization_enabled 00000001802565e0 f   miniaudio:miniaudio.obj
 0001:00255600       ma_sound_set_start_time_in_milliseconds 0000000180256600 f   miniaudio:miniaudio.obj
 0001:00255650       ma_sound_set_start_time_in_pcm_frames 0000000180256650 f   miniaudio:miniaudio.obj
 0001:00255660       ma_sound_set_stop_time_in_milliseconds 0000000180256660 f   miniaudio:miniaudio.obj
 0001:002556b0       ma_sound_set_stop_time_in_pcm_frames 00000001802566b0 f   miniaudio:miniaudio.obj
 0001:002556c0       ma_sound_set_stop_time_with_fade_in_milliseconds 00000001802566c0 f   miniaudio:miniaudio.obj
 0001:002557b0       ma_sound_set_stop_time_with_fade_in_pcm_frames 00000001802567b0 f   miniaudio:miniaudio.obj
 0001:00255810       ma_sound_set_velocity      0000000180256810 f   miniaudio:miniaudio.obj
 0001:002558c0       ma_sound_set_volume        00000001802568c0 f   miniaudio:miniaudio.obj
 0001:002559c0       ma_sound_start             00000001802569c0 f   miniaudio:miniaudio.obj
 0001:00255ac0       ma_sound_stop              0000000180256ac0 f   miniaudio:miniaudio.obj
 0001:00255ae0       ma_sound_stop_with_fade_in_milliseconds 0000000180256ae0 f   miniaudio:miniaudio.obj
 0001:00255bc0       ma_sound_stop_with_fade_in_pcm_frames 0000000180256bc0 f   miniaudio:miniaudio.obj
 0001:00255c60       ma_sound_uninit            0000000180256c60 f   miniaudio:miniaudio.obj
 0001:00255fe0       ma_spatializer_config_init 0000000180256fe0 f   miniaudio:miniaudio.obj
 0001:00256120       ma_spatializer_get_attenuation_model 0000000180257120 f   miniaudio:miniaudio.obj
 0001:00256140       ma_spatializer_get_cone    0000000180257140 f   miniaudio:miniaudio.obj
 0001:00256190       ma_spatializer_get_direction 0000000180257190 f   miniaudio:miniaudio.obj
 0001:00256250       ma_spatializer_get_directional_attenuation_factor 0000000180257250 f   miniaudio:miniaudio.obj
 0001:00256280       ma_spatializer_get_doppler_factor 0000000180257280 f   miniaudio:miniaudio.obj
 0001:002563d0       ma_spatializer_get_heap_size 00000001802573d0 f   miniaudio:miniaudio.obj
 0001:00256460       ma_spatializer_get_input_channels 0000000180257460 f   miniaudio:miniaudio.obj
 0001:00256470       ma_spatializer_get_master_volume 0000000180257470 f   miniaudio:miniaudio.obj
 0001:002564a0       ma_spatializer_get_max_distance 00000001802574a0 f   miniaudio:miniaudio.obj
 0001:002564c0       ma_spatializer_get_max_gain 00000001802574c0 f   miniaudio:miniaudio.obj
 0001:002564e0       ma_spatializer_get_min_distance 00000001802574e0 f   miniaudio:miniaudio.obj
 0001:00256500       ma_spatializer_get_min_gain 0000000180257500 f   miniaudio:miniaudio.obj
 0001:00256520       ma_spatializer_get_output_channels 0000000180257520 f   miniaudio:miniaudio.obj
 0001:00256530       ma_spatializer_get_position 0000000180257530 f   miniaudio:miniaudio.obj
 0001:002565f0       ma_spatializer_get_positioning 00000001802575f0 f   miniaudio:miniaudio.obj
 0001:00256610       ma_spatializer_get_relative_position_and_direction 0000000180257610 f   miniaudio:miniaudio.obj
 0001:00256f10       ma_spatializer_get_rolloff 0000000180257f10 f   miniaudio:miniaudio.obj
 0001:00256f30       ma_spatializer_get_velocity 0000000180257f30 f   miniaudio:miniaudio.obj
 0001:00256ff0       ma_spatializer_init        0000000180257ff0 f   miniaudio:miniaudio.obj
 0001:00257160       ma_spatializer_init_preallocated 0000000180258160 f   miniaudio:miniaudio.obj
 0001:002575d0       ma_spatializer_listener_config_init 00000001802585d0 f   miniaudio:miniaudio.obj
 0001:00257670       ma_spatializer_listener_get_channel_map 0000000180258670 f   miniaudio:miniaudio.obj
 0001:00257680       ma_spatializer_listener_get_cone 0000000180258680 f   miniaudio:miniaudio.obj
 0001:002576b0       ma_spatializer_listener_get_direction 00000001802586b0 f   miniaudio:miniaudio.obj
 0001:00257820       ma_spatializer_listener_get_heap_size 0000000180258820 f   miniaudio:miniaudio.obj
 0001:00257860       ma_spatializer_listener_get_position 0000000180258860 f   miniaudio:miniaudio.obj
 0001:00257920       ma_spatializer_listener_get_speed_of_sound 0000000180258920 f   miniaudio:miniaudio.obj
 0001:00257940       ma_spatializer_listener_get_velocity 0000000180258940 f   miniaudio:miniaudio.obj
 0001:00257a00       ma_spatializer_listener_get_world_up 0000000180258a00 f   miniaudio:miniaudio.obj
 0001:00257a40       ma_spatializer_listener_init 0000000180258a40 f   miniaudio:miniaudio.obj
 0001:00257b50       ma_spatializer_listener_init_preallocated 0000000180258b50 f   miniaudio:miniaudio.obj
 0001:00257de0       ma_spatializer_listener_is_enabled 0000000180258de0 f   miniaudio:miniaudio.obj
 0001:00257df0       ma_spatializer_listener_set_cone 0000000180258df0 f   miniaudio:miniaudio.obj
 0001:00257e10       ma_spatializer_listener_set_direction 0000000180258e10 f   miniaudio:miniaudio.obj
 0001:00257eb0       ma_spatializer_listener_set_enabled 0000000180258eb0 f   miniaudio:miniaudio.obj
 0001:00257ec0       ma_spatializer_listener_set_position 0000000180258ec0 f   miniaudio:miniaudio.obj
 0001:00257f60       ma_spatializer_listener_set_speed_of_sound 0000000180258f60 f   miniaudio:miniaudio.obj
 0001:00257f70       ma_spatializer_listener_set_velocity 0000000180258f70 f   miniaudio:miniaudio.obj
 0001:00258010       ma_spatializer_listener_set_world_up 0000000180259010 f   miniaudio:miniaudio.obj
 0001:00258030       ma_spatializer_listener_uninit 0000000180259030 f   miniaudio:miniaudio.obj
 0001:00258070       ma_spatializer_process_pcm_frames 0000000180259070 f   miniaudio:miniaudio.obj
 0001:00259030       ma_spatializer_set_attenuation_model 000000018025a030 f   miniaudio:miniaudio.obj
 0001:00259040       ma_spatializer_set_cone    000000018025a040 f   miniaudio:miniaudio.obj
 0001:00259080       ma_spatializer_set_direction 000000018025a080 f   miniaudio:miniaudio.obj
 0001:00259120       ma_spatializer_set_directional_attenuation_factor 000000018025a120 f   miniaudio:miniaudio.obj
 0001:00259140       ma_spatializer_set_doppler_factor 000000018025a140 f   miniaudio:miniaudio.obj
 0001:00259160       ma_spatializer_set_master_volume 000000018025a160 f   miniaudio:miniaudio.obj
 0001:00259190       ma_spatializer_set_max_distance 000000018025a190 f   miniaudio:miniaudio.obj
 0001:002591b0       ma_spatializer_set_max_gain 000000018025a1b0 f   miniaudio:miniaudio.obj
 0001:002591d0       ma_spatializer_set_min_distance 000000018025a1d0 f   miniaudio:miniaudio.obj
 0001:002591f0       ma_spatializer_set_min_gain 000000018025a1f0 f   miniaudio:miniaudio.obj
 0001:00259210       ma_spatializer_set_position 000000018025a210 f   miniaudio:miniaudio.obj
 0001:002592b0       ma_spatializer_set_positioning 000000018025a2b0 f   miniaudio:miniaudio.obj
 0001:002592c0       ma_spatializer_set_rolloff 000000018025a2c0 f   miniaudio:miniaudio.obj
 0001:002592e0       ma_spatializer_set_velocity 000000018025a2e0 f   miniaudio:miniaudio.obj
 0001:00259380       ma_spatializer_uninit      000000018025a380 f   miniaudio:miniaudio.obj
 0001:00259490       ma_spinlock_lock           000000018025a490 f   miniaudio:miniaudio.obj
 0001:00259560       ma_spinlock_lock_noyield   000000018025a560 f   miniaudio:miniaudio.obj
 0001:002595b0       ma_spinlock_unlock         000000018025a5b0 f   miniaudio:miniaudio.obj
 0001:002595d0       ma_splitter_node_config_init 000000018025a5d0 f   miniaudio:miniaudio.obj
 0001:00259680       ma_splitter_node_init      000000018025a680 f   miniaudio:miniaudio.obj
 0001:00259860       ma_splitter_node_uninit    000000018025a860 f   miniaudio:miniaudio.obj
 0001:0025a010       ma_strappend               000000018025b010 f   miniaudio:miniaudio.obj
 0001:0025a070       ma_strcat_s                000000018025b070 f   miniaudio:miniaudio.obj
 0001:0025a0e0       ma_strcmp                  000000018025b0e0 f   miniaudio:miniaudio.obj
 0001:0025a130       ma_strcmp_WCHAR            000000018025b130 f   miniaudio:miniaudio.obj
 0001:0025a160       ma_strcpy_s                000000018025b160 f   miniaudio:miniaudio.obj
 0001:0025a1e0       ma_strcpy_s_WCHAR          000000018025b1e0 f   miniaudio:miniaudio.obj
 0001:0025a260       ma_strlen_WCHAR            000000018025b260 f   miniaudio:miniaudio.obj
 0001:0025a290       ma_strncat_s               000000018025b290 f   miniaudio:miniaudio.obj
 0001:0025a320       ma_strncpy_s               000000018025b320 f   miniaudio:miniaudio.obj
 0001:0025aab0       ma_vec3f_cross             000000018025bab0 f   miniaudio:miniaudio.obj
 0001:0025ab60       ma_vec3f_dist              000000018025bb60 f   miniaudio:miniaudio.obj
 0001:0025abf0       ma_vec3f_dot               000000018025bbf0 f   miniaudio:miniaudio.obj
 0001:0025ac20       ma_vec3f_init_3f           000000018025bc20 f   miniaudio:miniaudio.obj
 0001:0025ac40       ma_vec3f_len               000000018025bc40 f   miniaudio:miniaudio.obj
 0001:0025acc0       ma_vec3f_len2              000000018025bcc0 f   miniaudio:miniaudio.obj
 0001:0025ad10       ma_vec3f_neg               000000018025bd10 f   miniaudio:miniaudio.obj
 0001:0025ad50       ma_vec3f_normalize         000000018025bd50 f   miniaudio:miniaudio.obj
 0001:0025ae20       ma_vec3f_sub               000000018025be20 f   miniaudio:miniaudio.obj
 0001:0025ae70       ma_version                 000000018025be70 f   miniaudio:miniaudio.obj
 0001:0025aea0       ma_version_string          000000018025bea0 f   miniaudio:miniaudio.obj
 0001:0025aeb0       ma_vfs_close               000000018025beb0 f   miniaudio:miniaudio.obj
 0001:0025aee0       ma_vfs_info                000000018025bee0 f   miniaudio:miniaudio.obj
 0001:0025af20       ma_vfs_open                000000018025bf20 f   miniaudio:miniaudio.obj
 0001:0025af60       ma_vfs_open_and_read_file  000000018025bf60 f   miniaudio:miniaudio.obj
 0001:0025b550       ma_vfs_open_and_read_file_w 000000018025c550 f   miniaudio:miniaudio.obj
 0001:0025b580       ma_vfs_open_w              000000018025c580 f   miniaudio:miniaudio.obj
 0001:0025b5c0       ma_vfs_or_default_close    000000018025c5c0 f   miniaudio:miniaudio.obj
 0001:0025b640       ma_vfs_or_default_info     000000018025c640 f   miniaudio:miniaudio.obj
 0001:0025b680       ma_vfs_or_default_open     000000018025c680 f   miniaudio:miniaudio.obj
 0001:0025b7b0       ma_vfs_or_default_open_w   000000018025c7b0 f   miniaudio:miniaudio.obj
 0001:0025b8e0       ma_vfs_or_default_read     000000018025c8e0 f   miniaudio:miniaudio.obj
 0001:0025bac0       ma_vfs_or_default_seek     000000018025cac0 f   miniaudio:miniaudio.obj
 0001:0025bbc0       ma_vfs_or_default_tell     000000018025cbc0 f   miniaudio:miniaudio.obj
 0001:0025bcf0       ma_vfs_or_default_write    000000018025ccf0 f   miniaudio:miniaudio.obj
 0001:0025be70       ma_vfs_read                000000018025ce70 f   miniaudio:miniaudio.obj
 0001:0025bf30       ma_vfs_seek                000000018025cf30 f   miniaudio:miniaudio.obj
 0001:0025bf60       ma_vfs_tell                000000018025cf60 f   miniaudio:miniaudio.obj
 0001:0025bfa0       ma_vfs_write               000000018025cfa0 f   miniaudio:miniaudio.obj
 0001:0025bff0       ma_volume_db_to_linear     000000018025cff0 f   miniaudio:miniaudio.obj
 0001:0025c030       ma_volume_linear_to_db     000000018025d030 f   miniaudio:miniaudio.obj
 0001:0025c170       ma_wav_get_cursor_in_pcm_frames 000000018025d170 f   miniaudio:miniaudio.obj
 0001:0025c1b0       ma_wav_get_data_format     000000018025d1b0 f   miniaudio:miniaudio.obj
 0001:0025c2e0       ma_wav_get_length_in_pcm_frames 000000018025d2e0 f   miniaudio:miniaudio.obj
 0001:0025c320       ma_wav_init                000000018025d320 f   miniaudio:miniaudio.obj
 0001:0025c560       ma_wav_init_file           000000018025d560 f   miniaudio:miniaudio.obj
 0001:0025c6e0       ma_wav_init_file_w         000000018025d6e0 f   miniaudio:miniaudio.obj
 0001:0025c940       ma_wav_init_memory         000000018025d940 f   miniaudio:miniaudio.obj
 0001:0025cc20       ma_wav_read_pcm_frames     000000018025dc20 f   miniaudio:miniaudio.obj
 0001:0025ceb0       ma_wav_seek_to_pcm_frame   000000018025deb0 f   miniaudio:miniaudio.obj
 0001:0025cee0       ma_wav_uninit              000000018025dee0 f   miniaudio:miniaudio.obj
 0001:0025cf60       ma_waveform_config_init    000000018025df60 f   miniaudio:miniaudio.obj
 0001:0025d000       ma_waveform_init           000000018025e000 f   miniaudio:miniaudio.obj
 0001:0025d0b0       ma_waveform_read_pcm_frames 000000018025e0b0 f   miniaudio:miniaudio.obj
 0001:0025eb30       ma_waveform_seek_to_pcm_frame 000000018025fb30 f   miniaudio:miniaudio.obj
 0001:0025eb60       ma_waveform_set_amplitude  000000018025fb60 f   miniaudio:miniaudio.obj
 0001:0025eb80       ma_waveform_set_frequency  000000018025fb80 f   miniaudio:miniaudio.obj
 0001:0025ebd0       ma_waveform_set_sample_rate 000000018025fbd0 f   miniaudio:miniaudio.obj
 0001:0025ec10       ma_waveform_set_type       000000018025fc10 f   miniaudio:miniaudio.obj
 0001:0025ede0       ma_waveform_uninit         000000018025fde0 f   miniaudio:miniaudio.obj
 0001:0025edf0       ma_wcscpy_s                000000018025fdf0 f   miniaudio:miniaudio.obj
 0001:0025ee70       ma_wfopen                  000000018025fe70 f   miniaudio:miniaudio.obj
 0001:0025f4f0       __raise_securityfailure    00000001802604f0 f   LIBCMT:gs_report.obj
 0001:0025f534       __report_gsfailure         0000000180260534 f   LIBCMT:gs_report.obj
 0001:0025f63c       __report_rangecheckfailure 000000018026063c f   LIBCMT:gs_report.obj
 0001:0025f658       __report_securityfailure   0000000180260658 f   LIBCMT:gs_report.obj
 0001:0025f71c       __report_securityfailureEx 000000018026071c f   LIBCMT:gs_report.obj
 0001:0025f988       __GSHandlerCheck           0000000180260988 f   LIBCMT:gshandler.obj
 0001:0025f9ac       __GSHandlerCheckCommon     00000001802609ac f   LIBCMT:gshandler.obj
 0001:0025fa30       __chkstk                   0000000180260a30 f   LIBCMT:chkstk.obj
 0001:0025fa30       _alloca_probe              0000000180260a30 f   LIBCMT:chkstk.obj
 0001:0025fab0       __security_check_cookie    0000000180260ab0 f   LIBCMT:amdsecgs.obj
 0001:0025fed0       _CRT_INIT                  0000000180260ed0 f   LIBCMT:dll_dllmain.obj
 0001:0025fed8       _DllMainCRTStartup         0000000180260ed8 f   LIBCMT:dll_dllmain.obj
 0001:0025ff24       ??3@YAXPEAX_K@Z            0000000180260f24 f   LIBCMT:delete_scalar_size.obj
 0001:0025ff2c       ?configure_argv@__scrt_narrow_argv_policy@@SAHXZ 0000000180260f2c f i LIBCMT:utility.obj
 0001:0025ffa4       ?initialize_environment@__scrt_narrow_environment_policy@@SAHXZ 0000000180260fa4 f i LIBCMT:utility.obj
 0001:0025ffe8       NtCurrentTeb               0000000180260fe8 f i LIBCMT:utility.obj
 0001:0025fff4       __scrt_acquire_startup_lock 0000000180260ff4 f   LIBCMT:utility.obj
 0001:0026003c       __scrt_dllmain_after_initialize_c 000000018026103c f   LIBCMT:utility.obj
 0001:00260080       __scrt_dllmain_before_initialize_c 0000000180261080 f   LIBCMT:utility.obj
 0001:0026009c       __scrt_dllmain_crt_thread_attach 000000018026109c f   LIBCMT:utility.obj
 0001:002600d0       __scrt_dllmain_crt_thread_detach 00000001802610d0 f   LIBCMT:utility.obj
 0001:002600ec       __scrt_dllmain_exception_filter 00000001802610ec f   LIBCMT:utility.obj
 0001:00260164       __scrt_dllmain_uninitialize_c 0000000180261164 f   LIBCMT:utility.obj
 0001:002601a0       __scrt_dllmain_uninitialize_critical 00000001802611a0 f   LIBCMT:utility.obj
 0001:002601bc       __scrt_initialize_crt      00000001802611bc f   LIBCMT:utility.obj
 0001:00260204       __scrt_initialize_onexit_tables 0000000180261204 f   LIBCMT:utility.obj
 0001:002602b4       __scrt_is_nonwritable_in_current_image 00000001802612b4 f   LIBCMT:utility.obj
 0001:00260374       __scrt_release_startup_lock 0000000180261374 f   LIBCMT:utility.obj
 0001:002603a4       __scrt_uninitialize_crt    00000001802613a4 f   LIBCMT:utility.obj
 0001:002603d8       _onexit                    00000001802613d8 f   LIBCMT:utility.obj
 0001:00260420       at_quick_exit              0000000180261420 f   LIBCMT:utility.obj
 0001:00260444       atexit                     0000000180261444 f   LIBCMT:utility.obj
 0001:00260460       _Init_thread_abort         0000000180261460 f   LIBCMT:thread_safe_statics.obj
 0001:002604a8       _Init_thread_footer        00000001802614a8 f   LIBCMT:thread_safe_statics.obj
 0001:0026052c       _Init_thread_header        000000018026152c f   LIBCMT:thread_safe_statics.obj
 0001:002605c4       _Init_thread_lock          00000001802615c4 f   LIBCMT:thread_safe_statics.obj
 0001:002605d8       _Init_thread_notify        00000001802615d8 f   LIBCMT:thread_safe_statics.obj
 0001:002605ec       _Init_thread_unlock        00000001802615ec f   LIBCMT:thread_safe_statics.obj
 0001:00260600       _Init_thread_wait_v2       0000000180261600 f   LIBCMT:thread_safe_statics.obj
 0001:00260624       __isa_available_init       0000000180261624 f   LIBCMT:cpu_disp.obj
 0001:00260a28       __security_init_cookie     0000000180261a28 f   LIBCMT:gs_support.obj
 0001:00260b00       DllMain                    0000000180261b00 f   LIBCMT:dll_dllmain_stub.obj
 0001:00260b08       ?__scrt_initialize_type_info@@YAXXZ 0000000180261b08 f   LIBCMT:tncleanup.obj
 0001:00260b1c       ?__scrt_uninitialize_type_info@@YAXXZ 0000000180261b1c f   LIBCMT:tncleanup.obj
 0001:00260b2c       __scrt_initialize_default_local_stdio_options 0000000180261b2c f   LIBCMT:default_local_stdio_options.obj
 0001:00260b50       __scrt_get_dyn_tls_init_callback 0000000180261b50 f   LIBCMT:dyn_tls_init.obj
 0001:00260b5c       __crt_debugger_hook        0000000180261b5c f   LIBCMT:utility_desktop.obj
 0001:00260b68       __scrt_fastfail            0000000180261b68 f   LIBCMT:utility_desktop.obj
 0001:00260d04       __scrt_get_show_window_mode 0000000180261d04 f   LIBCMT:utility_desktop.obj
 0001:00260d4c       __scrt_initialize_mta      0000000180261d4c f   LIBCMT:utility_desktop.obj
 0001:00260d54       __scrt_initialize_winrt    0000000180261d54 f   LIBCMT:utility_desktop.obj
 0001:00260d58       __scrt_is_managed_app      0000000180261d58 f   LIBCMT:utility_desktop.obj
 0001:00260dc0       __scrt_set_unhandled_exception_filter 0000000180261dc0 f   LIBCMT:utility_desktop.obj
 0001:00260dd4       __scrt_exe_initialize_mta  0000000180261dd4 f   LIBCMT:utility_desktop.obj
 0001:00260dd4       __scrt_stub_for_initialize_mta 0000000180261dd4 f   LIBCMT:utility_desktop.obj
 0001:00260dd8       __scrt_unhandled_exception_filter 0000000180261dd8 f   LIBCMT:utility_desktop.obj
 0001:00260e4c       _RTC_Initialize            0000000180261e4c f   LIBCMT:initsect.obj
 0001:00260e98       _RTC_Terminate             0000000180261e98 f   LIBCMT:initsect.obj
 0001:00260ee4       _guard_check_icall_nop     0000000180261ee4 f i LIBCMT:guard_support.obj
 0001:00260ee8       ReadNoFence64              0000000180261ee8 f i LIBCMT:guard_support.obj
 0001:00260eec       ReadPointerNoFence         0000000180261eec f i LIBCMT:guard_support.obj
 0001:00260ef0       __castguard_check_failure_debugbreak 0000000180261ef0 f i LIBCMT:guard_support.obj
 0001:00260f14       __castguard_check_failure_fastfail 0000000180261f14 f i LIBCMT:guard_support.obj
 0001:00260f40       __castguard_check_failure_nop 0000000180261f40 f i LIBCMT:guard_support.obj
 0001:00260f44       __castguard_check_failure_os_handled 0000000180261f44 f i LIBCMT:guard_support.obj
 0001:00260fa0       __castguard_check_failure_user_handled 0000000180261fa0 f i LIBCMT:guard_support.obj
 0001:0026102c       __castguard_set_user_handler 000000018026202c f i LIBCMT:guard_support.obj
 0001:0026103c       __castguard_slow_path_check_debugbreak 000000018026203c f i LIBCMT:guard_support.obj
 0001:00261080       __castguard_slow_path_check_fastfail 0000000180262080 f i LIBCMT:guard_support.obj
 0001:002610c8       __castguard_slow_path_check_nop 00000001802620c8 f i LIBCMT:guard_support.obj
 0001:002610cc       __castguard_slow_path_check_os_handled 00000001802620cc f i LIBCMT:guard_support.obj
 0001:0026112c       __castguard_slow_path_check_user_handled 000000018026212c f i LIBCMT:guard_support.obj
 0001:002611b0       _guard_icall_checks_enforced 00000001802621b0 f i LIBCMT:guard_support.obj
 0001:002611cc       _guard_rf_checks_enforced  00000001802621cc f i LIBCMT:guard_support.obj
 0001:002611d0       ??3@YAXPEAX@Z              00000001802621d0 f   LIBCMT:delete_scalar.obj
 0001:002611d8       _get_startup_argv_mode     00000001802621d8 f   LIBCMT:argv_mode.obj
 0001:002611e0       __scrt_is_ucrt_dll_in_use  00000001802621e0 f   LIBCMT:ucrt_detection.obj
 0001:002611f0       OpenClipboard              00000001802621f0 f   user32:USER32.dll
 0001:002611f6       CloseClipboard             00000001802621f6 f   user32:USER32.dll
 0001:002611fc       SetClipboardData           00000001802621fc f   user32:USER32.dll
 0001:00261202       GetClipboardData           0000000180262202 f   user32:USER32.dll
 0001:00261208       EmptyClipboard             0000000180262208 f   user32:USER32.dll
 0001:0026120e       DebugBreak                 000000018026220e f   kernel32:KERNEL32.dll
 0001:00261214       OutputDebugStringA         0000000180262214 f   kernel32:KERNEL32.dll
 0001:0026121a       GlobalAlloc                000000018026221a f   kernel32:KERNEL32.dll
 0001:00261220       GlobalUnlock               0000000180262220 f   kernel32:KERNEL32.dll
 0001:00261226       GlobalLock                 0000000180262226 f   kernel32:KERNEL32.dll
 0001:0026122c       GlobalFree                 000000018026222c f   kernel32:KERNEL32.dll
 0001:00261232       MultiByteToWideChar        0000000180262232 f   kernel32:KERNEL32.dll
 0001:00261238       WideCharToMultiByte        0000000180262238 f   kernel32:KERNEL32.dll
 0001:0026123e       CreateFileA                000000018026223e f   kernel32:KERNEL32.dll
 0001:00261244       CreateFileW                0000000180262244 f   kernel32:KERNEL32.dll
 0001:0026124a       GetFileInformationByHandle 000000018026224a f   kernel32:KERNEL32.dll
 0001:00261250       ReadFile                   0000000180262250 f   kernel32:KERNEL32.dll
 0001:00261256       WriteFile                  0000000180262256 f   kernel32:KERNEL32.dll
 0001:0026125c       CloseHandle                000000018026225c f   kernel32:KERNEL32.dll
 0001:00261262       GetLastError               0000000180262262 f   kernel32:KERNEL32.dll
 0001:00261268       QueryPerformanceCounter    0000000180262268 f   kernel32:KERNEL32.dll
 0001:0026126e       QueryPerformanceFrequency  000000018026226e f   kernel32:KERNEL32.dll
 0001:00261274       SetEvent                   0000000180262274 f   kernel32:KERNEL32.dll
 0001:0026127a       ResetEvent                 000000018026227a f   kernel32:KERNEL32.dll
 0001:00261280       ReleaseSemaphore           0000000180262280 f   kernel32:KERNEL32.dll
 0001:00261286       WaitForSingleObject        0000000180262286 f   kernel32:KERNEL32.dll
 0001:0026128c       CreateEventA               000000018026228c f   kernel32:KERNEL32.dll
 0001:00261292       Sleep                      0000000180262292 f   kernel32:KERNEL32.dll
 0001:00261298       CreateSemaphoreW           0000000180262298 f   kernel32:KERNEL32.dll
 0001:0026129e       CreateThread               000000018026229e f   kernel32:KERNEL32.dll
 0001:002612a4       SetThreadPriority          00000001802622a4 f   kernel32:KERNEL32.dll
 0001:002612aa       FreeLibrary                00000001802622aa f   kernel32:KERNEL32.dll
 0001:002612b0       GetProcAddress             00000001802622b0 f   kernel32:KERNEL32.dll
 0001:002612b6       LoadLibraryA               00000001802622b6 f   kernel32:KERNEL32.dll
 0001:002612bc       RtlCaptureContext          00000001802622bc f   kernel32:KERNEL32.dll
 0001:002612c2       RtlLookupFunctionEntry     00000001802622c2 f   kernel32:KERNEL32.dll
 0001:002612c8       RtlVirtualUnwind           00000001802622c8 f   kernel32:KERNEL32.dll
 0001:002612ce       UnhandledExceptionFilter   00000001802622ce f   kernel32:KERNEL32.dll
 0001:002612d4       SetUnhandledExceptionFilter 00000001802622d4 f   kernel32:KERNEL32.dll
 0001:002612da       GetCurrentProcess          00000001802622da f   kernel32:KERNEL32.dll
 0001:002612e0       TerminateProcess           00000001802622e0 f   kernel32:KERNEL32.dll
 0001:002612e6       IsProcessorFeaturePresent  00000001802622e6 f   kernel32:KERNEL32.dll
 0001:002612ec       ReleaseSRWLockExclusive    00000001802622ec f   kernel32:KERNEL32.dll
 0001:002612f2       AcquireSRWLockExclusive    00000001802622f2 f   kernel32:KERNEL32.dll
 0001:002612f8       WakeAllConditionVariable   00000001802622f8 f   kernel32:KERNEL32.dll
 0001:002612fe       SleepConditionVariableSRW  00000001802622fe f   kernel32:KERNEL32.dll
 0001:00261304       GetCurrentProcessId        0000000180262304 f   kernel32:KERNEL32.dll
 0001:0026130a       GetCurrentThreadId         000000018026230a f   kernel32:KERNEL32.dll
 0001:00261310       GetSystemTimeAsFileTime    0000000180262310 f   kernel32:KERNEL32.dll
 0001:00261316       InitializeSListHead        0000000180262316 f   kernel32:KERNEL32.dll
 0001:0026131c       IsDebuggerPresent          000000018026231c f   kernel32:KERNEL32.dll
 0001:00261322       GetStartupInfoW            0000000180262322 f   kernel32:KERNEL32.dll
 0001:00261328       GetModuleHandleW           0000000180262328 f   kernel32:KERNEL32.dll
 0001:0026132e       ShellExecuteA              000000018026232e f   shell32:SHELL32.dll
 0001:00261334       ImmGetContext              0000000180262334 f   imm32:IMM32.dll
 0001:0026133a       ImmReleaseContext          000000018026233a f   imm32:IMM32.dll
 0001:00261340       ImmSetCompositionWindow    0000000180262340 f   imm32:IMM32.dll
 0001:00261346       ImmSetCandidateWindow      0000000180262346 f   imm32:IMM32.dll
 0001:0026134c       strchr                     000000018026234c f   libvcruntime:strchr.obj
 0001:002613f0       strstr                     00000001802623f0 f   libvcruntime:strstr.obj
 0001:00261660       __C_specific_handler       0000000180262660 f   libvcruntime:riscchandler.obj
 0001:002618fc       __vcrt_initialize          00000001802628fc f   libvcruntime:initialization.obj
 0001:00261930       __vcrt_thread_attach       0000000180262930 f   libvcruntime:initialization.obj
 0001:0026194c       __vcrt_thread_detach       000000018026294c f   libvcruntime:initialization.obj
 0001:00261960       __vcrt_uninitialize        0000000180262960 f   libvcruntime:initialization.obj
 0001:00261980       __vcrt_uninitialize_critical 0000000180262980 f   libvcruntime:initialization.obj
 0001:002619a8       ??$?RD@__crt_internal_free_policy@@QEBAXQEBD@Z 00000001802629a8 f i libvcruntime:std_type_info.obj
 0001:002619b4       ??$?RX@__crt_internal_free_policy@@QEBAXQEBX@Z 00000001802629b4 f i libvcruntime:std_type_info.obj
 0001:002619c0       ??$__crt_interlocked_compare_exchange_pointer@$$CBDPEAD$$T@@YAPEBDPEDSEBDQEAD$$T@Z 00000001802629c0 f i libvcruntime:std_type_info.obj
 0001:002619cc       ??$__crt_interlocked_read_pointer@$$CBD@@YAPEBDPEDSEBD@Z 00000001802629cc f i libvcruntime:std_type_info.obj
 0001:002619d4       ??0?$__crt_unique_heap_ptr@DU__crt_internal_free_policy@@@@QEAA@QEAD@Z 00000001802629d4 f i libvcruntime:std_type_info.obj
 0001:002619dc       ??0?$__crt_unique_heap_ptr@XU__crt_internal_free_policy@@@@QEAA@QEAX@Z 00000001802629dc f i libvcruntime:std_type_info.obj
 0001:002619e4       ??1?$__crt_unique_heap_ptr@DU__crt_internal_free_policy@@@@QEAA@XZ 00000001802629e4 f i libvcruntime:std_type_info.obj
 0001:00261a08       ??1?$__crt_unique_heap_ptr@XU__crt_internal_free_policy@@@@QEAA@XZ 0000000180262a08 f i libvcruntime:std_type_info.obj
 0001:00261a2c       ??B?$__crt_unique_heap_ptr@DU__crt_internal_free_policy@@@@QEBA_NXZ 0000000180262a2c f i libvcruntime:std_type_info.obj
 0001:00261a38       ??B?$__crt_unique_heap_ptr@XU__crt_internal_free_policy@@@@QEBA_NXZ 0000000180262a38 f i libvcruntime:std_type_info.obj
 0001:00261a5c       ?__crt_interlocked_read_64@@YA_JPED_J@Z 0000000180262a5c f i libvcruntime:std_type_info.obj
 0001:00261a64       ?detach@?$__crt_unique_heap_ptr@XU__crt_internal_free_policy@@@@QEAAPEAXXZ 0000000180262a64 f i libvcruntime:std_type_info.obj
 0001:00261a70       ?get@?$__crt_unique_heap_ptr@DU__crt_internal_free_policy@@@@QEBAPEADXZ 0000000180262a70 f i libvcruntime:std_type_info.obj
 0001:00261a74       ?get@?$__crt_unique_heap_ptr@XU__crt_internal_free_policy@@@@QEBAPEAXXZ 0000000180262a74 f i libvcruntime:std_type_info.obj
 0001:00261a78       ?is_valid@?$__crt_unique_heap_ptr@DU__crt_internal_free_policy@@@@QEBA_NXZ 0000000180262a78 f i libvcruntime:std_type_info.obj
 0001:00261a84       ?is_valid@?$__crt_unique_heap_ptr@XU__crt_internal_free_policy@@@@QEBA_NXZ 0000000180262a84 f i libvcruntime:std_type_info.obj
 0001:00261a90       ?release@?$__crt_unique_heap_ptr@DU__crt_internal_free_policy@@@@QEAAXXZ 0000000180262a90 f i libvcruntime:std_type_info.obj
 0001:00261ab4       ?release@?$__crt_unique_heap_ptr@XU__crt_internal_free_policy@@@@QEAAXXZ 0000000180262ab4 f i libvcruntime:std_type_info.obj
 0001:00261ad8       __std_type_info_compare    0000000180262ad8 f   libvcruntime:std_type_info.obj
 0001:00261b08       __std_type_info_destroy_list 0000000180262b08 f   libvcruntime:std_type_info.obj
 0001:00261b3c       __std_type_info_hash       0000000180262b3c f   libvcruntime:std_type_info.obj
 0001:00261b84       __std_type_info_name       0000000180262b84 f   libvcruntime:std_type_info.obj
 0001:00261ce0       __DestructExceptionObject  0000000180262ce0 f   libvcruntime:ehhelpers.obj
 0001:00261d68       ?_CallMemberFunction0@@YAXQEAX0@Z 0000000180262d68 f i libvcruntime:ehhelpers.obj
 0001:00261ddc       ?raw_name@type_info@@QEBAPEBDXZ 0000000180262ddc f i libvcruntime:ehhelpers.obj
 0001:00261de4       _IsExceptionObjectToBeDestroyed 0000000180262de4 f   libvcruntime:ehhelpers.obj
 0001:00261e20       _SetWinRTOutOfMemoryExceptionCallback 0000000180262e20 f   libvcruntime:ehhelpers.obj
 0001:00261e2c       __AdjustPointer            0000000180262e2c f   libvcruntime:ehhelpers.obj
 0001:00261e58       __FrameUnwindFilter        0000000180262e58 f   libvcruntime:ehhelpers.obj
 0001:00261ed8       __GetPlatformExceptionInfo 0000000180262ed8 f   libvcruntime:ehhelpers.obj
 0001:00261f4c       __current_exception        0000000180262f4c f   libvcruntime:ehhelpers.obj
 0001:00261f64       __current_exception_context 0000000180262f64 f   libvcruntime:ehhelpers.obj
 0001:00261f7c       __processing_throw         0000000180262f7c f   libvcruntime:ehhelpers.obj
 0001:00261f94       __std_terminate            0000000180262f94 f   libvcruntime:ehhelpers.obj
 0001:00261fa0       _is_exception_typeof       0000000180262fa0 f   libvcruntime:ehhelpers.obj
 0001:002620b0       _NLG_Notify                00000001802630b0 f   libvcruntime:notify.obj
 0001:002620e0       __NLG_Dispatch2            00000001802630e0 f   libvcruntime:notify.obj
 0001:002620f0       __NLG_Return2              00000001802630f0 f   libvcruntime:notify.obj
 0001:002620fc       __except_validate_context_record 00000001802630fc f   libvcruntime:jbcxrval.obj
 0001:00262140       __except_validate_jump_buffer 0000000180263140 f   libvcruntime:jbcxrval.obj
 0001:00262190       __except_validate_jump_buffer_common 0000000180263190 f i libvcruntime:jbcxrval.obj
 0001:00262204       ??$?RU__vcrt_ptd@@@__crt_internal_free_policy@@QEBAXQEBU__vcrt_ptd@@@Z 0000000180263204 f i libvcruntime:per_thread_data.obj
 0001:00262210       ??0?$__crt_unique_heap_ptr@U__vcrt_ptd@@U__crt_internal_free_policy@@@@QEAA@QEAU__vcrt_ptd@@@Z 0000000180263210 f i libvcruntime:per_thread_data.obj
 0001:00262238       ??1?$__crt_unique_heap_ptr@U__vcrt_ptd@@U__crt_internal_free_policy@@@@QEAA@XZ 0000000180263238 f i libvcruntime:per_thread_data.obj
 0001:00262268       ??B?$__crt_unique_heap_ptr@U__vcrt_ptd@@U__crt_internal_free_policy@@@@QEBA_NXZ 0000000180263268 f i libvcruntime:per_thread_data.obj
 0001:00262274       ?detach@?$__crt_unique_heap_ptr@U__vcrt_ptd@@U__crt_internal_free_policy@@@@QEAAPEAU__vcrt_ptd@@XZ 0000000180263274 f i libvcruntime:per_thread_data.obj
 0001:00262280       ?get@?$__crt_unique_heap_ptr@U__vcrt_ptd@@U__crt_internal_free_policy@@@@QEBAPEAU__vcrt_ptd@@XZ 0000000180263280 f i libvcruntime:per_thread_data.obj
 0001:00262284       ?is_valid@?$__crt_unique_heap_ptr@U__vcrt_ptd@@U__crt_internal_free_policy@@@@QEBA_NXZ 0000000180263284 f i libvcruntime:per_thread_data.obj
 0001:00262290       ?release@?$__crt_unique_heap_ptr@U__vcrt_ptd@@U__crt_internal_free_policy@@@@QEAAXXZ 0000000180263290 f i libvcruntime:per_thread_data.obj
 0001:002622e8       __vcrt_freefls             00000001802632e8 f   libvcruntime:per_thread_data.obj
 0001:00262310       __vcrt_freeptd_for_this_thread 0000000180263310 f   libvcruntime:per_thread_data.obj
 0001:00262368       __vcrt_getptd              0000000180263368 f   libvcruntime:per_thread_data.obj
 0001:00262388       __vcrt_getptd_noexit       0000000180263388 f   libvcruntime:per_thread_data.obj
 0001:00262478       __vcrt_getptd_noinit       0000000180263478 f   libvcruntime:per_thread_data.obj
 0001:002624d8       __vcrt_initialize_ptd      00000001802634d8 f   libvcruntime:per_thread_data.obj
 0001:00262530       __vcrt_uninitialize_ptd    0000000180263530 f   libvcruntime:per_thread_data.obj
 0001:0026255c       __vcrt_initialize_locks    000000018026355c f   libvcruntime:locks.obj
 0001:002625b4       __vcrt_lock                00000001802635b4 f   libvcruntime:locks.obj
 0001:002625d4       __vcrt_uninitialize_locks  00000001802635d4 f   libvcruntime:locks.obj
 0001:00262618       __vcrt_unlock              0000000180263618 f   libvcruntime:locks.obj
 0001:00262638       ??$?0$00@DName@@QEAA@PEBDU?$StringLifeSelector@$00@@@Z 0000000180263638 f i libvcruntime:undname.obj
 0001:00262688       ??$?0$00@pcharNode@@QEAA@PEBDHU?$StringLifeSelector@$00@@@Z 0000000180263688 f i libvcruntime:undname.obj
 0001:002626a4       ??$?0$01@DName@@QEAA@PEBDU?$StringLifeSelector@$01@@@Z 00000001802636a4 f i libvcruntime:undname.obj
 0001:002626f4       ??$?0$01@pcharNode@@QEAA@PEBDHU?$StringLifeSelector@$01@@@Z 00000001802636f4 f i libvcruntime:undname.obj
 0001:00262784       ??$?0$0A@@DName@@QEAA@PEBDU?$StringLifeSelector@$0A@@@@Z 0000000180263784 f i libvcruntime:undname.obj
 0001:002627d4       ??$?0$0A@@pcharNode@@QEAA@PEBDHU?$StringLifeSelector@$0A@@@@Z 00000001802637d4 f i libvcruntime:undname.obj
 0001:00262864       ??$?0_K$0A@@?$optional@_K@std@@QEAA@$$QEA_K@Z 0000000180263864 f i libvcruntime:undname.obj
 0001:00262878       ??$?0_K@?$_Optional_construct_base@_K@std@@QEAA@Uin_place_t@1@$$QEA_K@Z 0000000180263878 f i libvcruntime:undname.obj
 0001:0026288c       ??$?0_K@?$_Optional_destruct_base@_K$00@std@@QEAA@Uin_place_t@1@$$QEA_K@Z 000000018026388c f i libvcruntime:undname.obj
 0001:002628a0       ??$append@VDNameNode@@@DName@@AEAAXPEBVDNameNode@@@Z 00000001802638a0 f i libvcruntime:undname.obj
 0001:0026291c       ??$append@VDNameStatusNode@@@DName@@AEAAXPEBVDNameStatusNode@@@Z 000000018026391c f i libvcruntime:undname.obj
 0001:00262998       ??$append@VcharNode@@@DName@@AEAAXPEBVcharNode@@@Z 0000000180263998 f i libvcruntime:undname.obj
 0001:00262a14       ??$append@VpDNameNode@@@DName@@AEAAXPEBVpDNameNode@@@Z 0000000180263a14 f i libvcruntime:undname.obj
 0001:00262a90       ??$append@VpcharNode@@@DName@@AEAAXPEBVpcharNode@@@Z 0000000180263a90 f i libvcruntime:undname.obj
 0001:00262b0c       ??$doPchar@$00@DName@@AEAAXPEBDH@Z 0000000180263b0c f i libvcruntime:undname.obj
 0001:00262bc8       ??$doPchar@$01@DName@@AEAAXPEBDH@Z 0000000180263bc8 f i libvcruntime:undname.obj
 0001:00262c84       ??$doPchar@$0A@@DName@@AEAAXPEBDH@Z 0000000180263c84 f i libvcruntime:undname.obj
 0001:00262d40       ??$forward@_K@std@@YA$$QEA_KAEA_K@Z 0000000180263d40 f i libvcruntime:undname.obj
 0001:00262ea4       ??0?$_Optional_construct_base@_K@std@@QEAA@XZ 0000000180263ea4 f i libvcruntime:undname.obj
 0001:00262eb0       ??0?$_Optional_destruct_base@_K$00@std@@QEAA@XZ 0000000180263eb0 f i libvcruntime:undname.obj
 0001:00262ebc       ??0?$optional@_K@std@@QEAA@XZ 0000000180263ebc f i libvcruntime:undname.obj
 0001:00262ec8       ??0Block@_HeapManager@@QEAA@XZ 0000000180263ec8 f i libvcruntime:undname.obj
 0001:00262ed4       ??0DName@@QEAA@AEAPEBDD@Z  0000000180263ed4 f   libvcruntime:undname.obj
 0001:00262fb4       ??0DName@@QEAA@AEBUStringLiteral@@@Z 0000000180263fb4 f   libvcruntime:undname.obj
 0001:00262fec       ??0DName@@QEAA@AEBV0@@Z    0000000180263fec f i libvcruntime:undname.obj
 0001:00263000       ??0DName@@QEAA@D@Z         0000000180264000 f   libvcruntime:undname.obj
 0001:00263028       ??0DName@@QEAA@PEAV0@@Z    0000000180264028 f   libvcruntime:undname.obj
 0001:002630cc       ??0DName@@QEAA@W4DNameStatus@@@Z 00000001802640cc f   libvcruntime:undname.obj
 0001:00263108       ??0DName@@QEAA@XZ          0000000180264108 f i libvcruntime:undname.obj
 0001:00263118       ??0DName@@QEAA@_J@Z        0000000180264118 f   libvcruntime:undname.obj
 0001:002631e4       ??0DName@@QEAA@_K@Z        00000001802641e4 f   libvcruntime:undname.obj
 0001:00263290       ??0DNameNode@@IEAA@XZ      0000000180264290 f i libvcruntime:undname.obj
 0001:002632a4       ??0Replicator@@QEAA@XZ     00000001802642a4 f i libvcruntime:undname.obj
 0001:002632e0       ??0UnDecorator@@QEAA@PEBDP6APEADJ@ZK@Z 00000001802642e0 f i libvcruntime:undname.obj
 0001:002633b4       ??0_Nontrivial_dummy_type@std@@QEAA@XZ 00000001802643b4 f i libvcruntime:undname.obj
 0001:002633b8       ??0charNode@@QEAA@D@Z      00000001802643b8 f i libvcruntime:undname.obj
 0001:002633d0       ??0pDNameNode@@QEAA@PEAVDName@@@Z 00000001802643d0 f   libvcruntime:undname.obj
 0001:00263400       ??0pairNode@@QEAA@PEBVDNameNode@@0@Z 0000000180264400 f i libvcruntime:undname.obj
 0001:00263428       ??2@YAPEAX_KAEAV_HeapManager@@H@Z 0000000180264428 f   libvcruntime:undname.obj
 0001:0026345c       ??4DName@@QEAAAEAV0@AEBUStringLiteral@@@Z 000000018026445c f   libvcruntime:undname.obj
 0001:0026348c       ??4DName@@QEAAAEAV0@AEBV0@@Z 000000018026448c f   libvcruntime:undname.obj
 0001:002634a0       ??4DName@@QEAAAEAV0@D@Z    00000001802644a0 f i libvcruntime:undname.obj
 0001:002634c8       ??4DName@@QEAAAEAV0@PEAV0@@Z 00000001802644c8 f   libvcruntime:undname.obj
 0001:0026355c       ??4DName@@QEAAAEAV0@W4DNameStatus@@@Z 000000018026455c f   libvcruntime:undname.obj
 0001:00263598       ??AReplicator@@QEBA?AVDName@@H@Z 0000000180264598 f   libvcruntime:undname.obj
 0001:002635e8       ??B?$optional@_K@std@@QEBA_NXZ 00000001802645e8 f i libvcruntime:undname.obj
 0001:002635ec       ??D?$_Optional_construct_base@_K@std@@QEGAAAEA_KXZ 00000001802645ec f i libvcruntime:undname.obj
 0001:002635f0       ??H@YA?AVDName@@AEBUStringLiteral@@AEBV0@@Z 00000001802645f0 f i libvcruntime:undname.obj
 0001:00263634       ??H@YA?AVDName@@DAEBV0@@Z  0000000180264634 f i libvcruntime:undname.obj
 0001:00263688       ??H@YA?AVDName@@W4DNameStatus@@AEBV0@@Z 0000000180264688 f i libvcruntime:undname.obj
 0001:002636cc       ??HDName@@QEBA?AV0@AEBUStringLiteral@@@Z 00000001802646cc f   libvcruntime:undname.obj
 0001:00263700       ??HDName@@QEBA?AV0@AEBV0@@Z 0000000180264700 f   libvcruntime:undname.obj
 0001:00263734       ??HDName@@QEBA?AV0@D@Z     0000000180264734 f   libvcruntime:undname.obj
 0001:00263768       ??HDName@@QEBA?AV0@PEAV0@@Z 0000000180264768 f   libvcruntime:undname.obj
 0001:0026379c       ??HDName@@QEBA?AV0@W4DNameStatus@@@Z 000000018026479c f   libvcruntime:undname.obj
 0001:002637d0       ??HStringLiteral@@QEBA?AU0@H@Z 00000001802647d0 f i libvcruntime:undname.obj
 0001:002637ec       ??YDName@@QEAAAEAV0@AEBUStringLiteral@@@Z 00000001802647ec f   libvcruntime:undname.obj
 0001:0026388c       ??YDName@@QEAAAEAV0@AEBV0@@Z 000000018026488c f   libvcruntime:undname.obj
 0001:002638fc       ??YDName@@QEAAAEAV0@D@Z    00000001802648fc f   libvcruntime:undname.obj
 0001:00263984       ??YDName@@QEAAAEAV0@PEAV0@@Z 0000000180264984 f   libvcruntime:undname.obj
 0001:00263a3c       ??YDName@@QEAAAEAV0@W4DNameStatus@@@Z 0000000180264a3c f   libvcruntime:undname.obj
 0001:00263aa8       ??YReplicator@@QEAAAEAV0@AEBVDName@@@Z 0000000180264aa8 f   libvcruntime:undname.obj
 0001:00263b18       ??_5DName@@QEAAAEAV0@AEBV0@@Z 0000000180264b18 f   libvcruntime:undname.obj
 0001:00263b38       ??__K_l@@YA?AUStringLiteral@@PEBD_K@Z 0000000180264b38 f i libvcruntime:undname.obj
 0001:00263b48       ?Constructor@_HeapManager@@QEAAXP6APEAX_K@ZP6AXPEAX@Z@Z 0000000180264b48 f i libvcruntime:undname.obj
 0001:00263b64       ?Destructor@_HeapManager@@QEAAXXZ 0000000180264b64 f i libvcruntime:undname.obj
 0001:00263bc0       ?UScore@UnDecorator@@SA?AUStringLiteral@@W4Tokens@@@Z 0000000180264bc0 f   libvcruntime:undname.obj
 0001:00263c20       ?composeDeclaration@UnDecorator@@CA?AVDName@@AEBV2@@Z 0000000180264c20 f i libvcruntime:undname.obj
 0001:00264fd4       ?doAccessSpecifiers@UnDecorator@@SAHXZ 0000000180265fd4 f i libvcruntime:undname.obj
 0001:00264fe8       ?doAllocationLanguage@UnDecorator@@SAHXZ 0000000180265fe8 f i libvcruntime:undname.obj
 0001:00264ffc       ?doAllocationModel@UnDecorator@@SAHXZ 0000000180265ffc f i libvcruntime:undname.obj
 0001:00265010       ?doEcsu@UnDecorator@@SAHXZ 0000000180266010 f i libvcruntime:undname.obj
 0001:00265024       ?doEllipsis@UnDecorator@@SAHXZ 0000000180266024 f i libvcruntime:undname.obj
 0001:00265038       ?doFunctionReturns@UnDecorator@@SAHXZ 0000000180266038 f i libvcruntime:undname.obj
 0001:0026504c       ?doMSKeywords@UnDecorator@@SAHXZ 000000018026604c f i libvcruntime:undname.obj
 0001:00265060       ?doMemberTypes@UnDecorator@@SAHXZ 0000000180266060 f i libvcruntime:undname.obj
 0001:00265074       ?doNameOnly@UnDecorator@@SAHXZ 0000000180266074 f i libvcruntime:undname.obj
 0001:00265084       ?doNoIdentCharCheck@UnDecorator@@SAHXZ 0000000180266084 f i libvcruntime:undname.obj
 0001:00265094       ?doPchar@DName@@AEAAXD@Z   0000000180266094 f   libvcruntime:undname.obj
 0001:002650f8       ?doPtr64@UnDecorator@@SAHXZ 00000001802660f8 f i libvcruntime:undname.obj
 0001:0026510c       ?doRestrictionSpec@UnDecorator@@SAHXZ 000000018026610c f i libvcruntime:undname.obj
 0001:00265120       ?doThisTypes@UnDecorator@@SAHXZ 0000000180266120 f i libvcruntime:undname.obj
 0001:00265138       ?doThrowTypes@UnDecorator@@SAHXZ 0000000180266138 f i libvcruntime:undname.obj
 0001:0026514c       ?doTypeOnly@UnDecorator@@SAHXZ 000000018026614c f i libvcruntime:undname.obj
 0001:0026515c       ?doUnderScore@UnDecorator@@SAHXZ 000000018026615c f i libvcruntime:undname.obj
 0001:0026516c       ?getAddressOf@UnDecorator@@CA?AVDName@@XZ 000000018026616c f   libvcruntime:undname.obj
 0001:00265220       ?getArgumentList@UnDecorator@@CA?AVDName@@XZ 0000000180266220 f   libvcruntime:undname.obj
 0001:00265404       ?getArgumentTypes@UnDecorator@@CA?AVDName@@XZ 0000000180266404 f   libvcruntime:undname.obj
 0001:002655a4       ?getArrayAccess@UnDecorator@@CA?AVDName@@XZ 00000001802665a4 f   libvcruntime:undname.obj
 0001:00265664       ?getArrayObject@UnDecorator@@CA?AVDName@@XZ 0000000180266664 f   libvcruntime:undname.obj
 0001:00265768       ?getArrayType@UnDecorator@@CA?AVDName@@AEBV2@@Z 0000000180266768 f i libvcruntime:undname.obj
 0001:00265a5c       ?getBasedType@UnDecorator@@CA?AVDName@@XZ 0000000180266a5c f   libvcruntime:undname.obj
 0001:00265b90       ?getBasicDataType@UnDecorator@@CA?AVDName@@AEBV2@@Z 0000000180266b90 f   libvcruntime:undname.obj
 0001:0026630c       ?getCHPEName@UnDecorator@@QEAAPEADPEADH@Z 000000018026730c f i libvcruntime:undname.obj
 0001:00266470       ?getCallIndex@UnDecorator@@CA?AVDName@@XZ 0000000180267470 f i libvcruntime:undname.obj
 0001:00266490       ?getCallingConvention@UnDecorator@@CA?AVDName@@XZ 0000000180267490 f   libvcruntime:undname.obj
 0001:002665f8       ?getDataIndirectType@UnDecorator@@CA?AVDName@@AEBV2@W4IndirectionKind@@0H@Z 00000001802675f8 f   libvcruntime:undname.obj
 0001:00267190       ?getDataIndirectType@UnDecorator@@CA?AVDName@@XZ 0000000180268190 f i libvcruntime:undname.obj
 0001:002671d8       ?getDataType@UnDecorator@@CA?AVDName@@PEAV2@@Z 00000001802681d8 f   libvcruntime:undname.obj
 0001:00267330       ?getDecoratedName@UnDecorator@@CA?AVDName@@XZ 0000000180268330 f   libvcruntime:undname.obj
 0001:002676d0       ?getDimension@UnDecorator@@CA?AVDName@@_N@Z 00000001802686d0 f   libvcruntime:undname.obj
 0001:0026786c       ?getDispatchTarget@UnDecorator@@CA?AVDName@@XZ 000000018026886c f   libvcruntime:undname.obj
 0001:002678e0       ?getDisplacement@UnDecorator@@CA?AVDName@@XZ 00000001802688e0 f i libvcruntime:undname.obj
 0001:00267900       ?getECSUDataType@UnDecorator@@CA?AVDName@@XZ 0000000180268900 f   libvcruntime:undname.obj
 0001:00267b78       ?getECSUName@UnDecorator@@CA?AVDName@@XZ 0000000180268b78 f i libvcruntime:undname.obj
 0001:00267b94       ?getEnumType@UnDecorator@@CA?AVDName@@XZ 0000000180268b94 f i libvcruntime:undname.obj
 0001:00267d04       ?getExtendedDataIndirectType@UnDecorator@@CA?AVDName@@AEAW4IndirectionKind@@AEA_NH@Z 0000000180268d04 f   libvcruntime:undname.obj
 0001:00268008       ?getExternalDataType@UnDecorator@@CA?AVDName@@AEBV2@@Z 0000000180269008 f i libvcruntime:undname.obj
 0001:002680f8       ?getFloatingPoint@UnDecorator@@CA?AVDName@@H@Z 00000001802690f8 f   libvcruntime:undname.obj
 0001:002682b8       ?getFunctionIndirectType@UnDecorator@@CA?AVDName@@AEBV2@@Z 00000001802692b8 f   libvcruntime:undname.obj
 0001:0026893c       ?getGuardNumber@UnDecorator@@CA?AVDName@@XZ 000000018026993c f i libvcruntime:undname.obj
 0001:0026895c       ?getLastChar@DName@@QEBADXZ 000000018026995c f i libvcruntime:undname.obj
 0001:0026897c       ?getLastChar@DNameStatusNode@@UEBADXZ 000000018026997c f i libvcruntime:undname.obj
 0001:0026898c       ?getLastChar@charNode@@UEBADXZ 000000018026998c f i libvcruntime:undname.obj
 0001:00268990       ?getLastChar@pDNameNode@@UEBADXZ 0000000180269990 f i libvcruntime:undname.obj
 0001:002689c4       ?getLastChar@pairNode@@UEBADXZ 00000001802699c4 f i libvcruntime:undname.obj
 0001:00268a08       ?getLastChar@pcharNode@@UEBADXZ 0000000180269a08 f i libvcruntime:undname.obj
 0001:00268a24       ?getLexicalFrame@UnDecorator@@CA?AVDName@@XZ 0000000180269a24 f i libvcruntime:undname.obj
 0001:00268aa0       ?getMemberAccess@UnDecorator@@CA?AVDName@@XZ 0000000180269aa0 f   libvcruntime:undname.obj
 0001:00268b58       ?getMemoryWithBuffer@_HeapManager@@QEAAPEAX_K@Z 0000000180269b58 f   libvcruntime:undname.obj
 0001:00268c0c       ?getMemoryWithoutBuffer@_HeapManager@@QEAAPEAX_K@Z 0000000180269c0c f   libvcruntime:undname.obj
 0001:00268c24       ?getNoexcept@UnDecorator@@CA?AVDName@@XZ 0000000180269c24 f   libvcruntime:undname.obj
 0001:00268ca0       ?getNumberOfDimensions@UnDecorator@@CAHXZ 0000000180269ca0 f   libvcruntime:undname.obj
 0001:00268d10       ?getOperatorName@UnDecorator@@CA?AVDName@@_NPEA_N@Z 0000000180269d10 f i libvcruntime:undname.obj
 0001:00269914       ?getPointerToMember@UnDecorator@@CA?AVDName@@XZ 000000018026a914 f   libvcruntime:undname.obj
 0001:00269a48       ?getPointerType@UnDecorator@@CA?AVDName@@AEBV2@0@Z 000000018026aa48 f i libvcruntime:undname.obj
 0001:00269a6c       ?getPointerTypeArray@UnDecorator@@CA?AVDName@@AEBV2@0@Z 000000018026aa6c f i libvcruntime:undname.obj
 0001:00269a8c       ?getPrimaryDataType@UnDecorator@@CA?AVDName@@AEBV2@@Z 000000018026aa8c f   libvcruntime:undname.obj
 0001:00269df4       ?getPtrRefDataType@UnDecorator@@CA?AVDName@@AEBV2@H@Z 000000018026adf4 f   libvcruntime:undname.obj
 0001:0026a034       ?getPtrRefType@UnDecorator@@CA?AVDName@@AEBV2@0W4IndirectionKind@@@Z 000000018026b034 f   libvcruntime:undname.obj
 0001:0026a294       ?getReferenceType@UnDecorator@@CA?AVDName@@AEBV2@0W4IndirectionKind@@@Z 000000018026b294 f i libvcruntime:undname.obj
 0001:0026a2b0       ?getRestrictionSpec@UnDecorator@@CA?AVDName@@XZ 000000018026b2b0 f   libvcruntime:undname.obj
 0001:0026a500       ?getReturnType@UnDecorator@@CA?AVDName@@PEAV2@@Z 000000018026b500 f   libvcruntime:undname.obj
 0001:0026a544       ?getScope@UnDecorator@@CA?AVDName@@XZ 000000018026b544 f   libvcruntime:undname.obj
 0001:0026ab28       ?getScopedName@UnDecorator@@CA?AVDName@@XZ 000000018026bb28 f   libvcruntime:undname.obj
 0001:0026acbc       ?getSignedDimension@UnDecorator@@CA?AVDName@@XZ 000000018026bcbc f   libvcruntime:undname.obj
 0001:0026ad64       ?getStorageConvention@UnDecorator@@CA?AVDName@@XZ 000000018026bd64 f i libvcruntime:undname.obj
 0001:0026adac       ?getString@DName@@QEBAPEADPEAD0@Z 000000018026bdac f i libvcruntime:undname.obj
 0001:0026adcc       ?getString@DName@@QEBAPEADPEADH@Z 000000018026bdcc f i libvcruntime:undname.obj
 0001:0026ae84       ?getString@DNameStatusNode@@UEBAPEADPEAD0@Z 000000018026be84 f i libvcruntime:undname.obj
 0001:0026aedc       ?getString@charNode@@UEBAPEADPEAD0@Z 000000018026bedc f i libvcruntime:undname.obj
 0001:0026aef4       ?getString@pDNameNode@@UEBAPEADPEAD0@Z 000000018026bef4 f i libvcruntime:undname.obj
 0001:0026af2c       ?getString@pairNode@@UEBAPEADPEAD0@Z 000000018026bf2c f i libvcruntime:undname.obj
 0001:0026af8c       ?getString@pcharNode@@UEBAPEADPEAD0@Z 000000018026bf8c f i libvcruntime:undname.obj
 0001:0026afd0       ?getStringEncoding@UnDecorator@@CA?AVDName@@W4PrefixKind@@H@Z 000000018026bfd0 f   libvcruntime:undname.obj
 0001:0026b120       ?getStringHelper@@YAPEADPEADPEBD1H@Z 000000018026c120 f i libvcruntime:undname.obj
 0001:0026b158       ?getStringObject@UnDecorator@@CA?AVDName@@XZ 000000018026c158 f   libvcruntime:undname.obj
 0001:0026b20c       ?getSymbolName@UnDecorator@@CA?AVDName@@XZ 000000018026c20c f i libvcruntime:undname.obj
 0001:0026b26c       ?getTemplateArgumentList@UnDecorator@@CA?AVDName@@XZ 000000018026c26c f   libvcruntime:undname.obj
 0001:0026b510       ?getTemplateName@UnDecorator@@CA?AVDName@@_N@Z 000000018026c510 f   libvcruntime:undname.obj
 0001:0026b868       ?getTemplateNonTypeArgument@UnDecorator@@CA?AVDName@@XZ 000000018026c868 f   libvcruntime:undname.obj
 0001:0026bf0c       ?getTemplateTypeArgument@UnDecorator@@CA?AVDName@@XZ 000000018026cf0c f   libvcruntime:undname.obj
 0001:0026c0d0       ?getThisType@UnDecorator@@CA?AVDName@@XZ 000000018026d0d0 f i libvcruntime:undname.obj
 0001:0026c120       ?getThrowTypes@UnDecorator@@CA?AVDName@@XZ 000000018026d120 f   libvcruntime:undname.obj
 0001:0026c14c       ?getTypeEncoding@UnDecorator@@CAHXZ 000000018026d14c f i libvcruntime:undname.obj
 0001:0026c5f8       ?getUndecoratedName@UnDecorator@@QEAAPEADPEADH@Z 000000018026d5f8 f i libvcruntime:undname.obj
 0001:0026c7b0       ?getUnionObject@UnDecorator@@CA?AVDName@@XZ 000000018026d7b0 f   libvcruntime:undname.obj
 0001:0026c8bc       ?getVCallThunkType@UnDecorator@@CA?AVDName@@XZ 000000018026d8bc f i libvcruntime:undname.obj
 0001:0026c950       ?getValue@UnDecorator@@CA?AV?$optional@_K@std@@XZ 000000018026d950 f   libvcruntime:undname.obj
 0001:0026c9a4       ?getValueObject@UnDecorator@@CA?AVDName@@XZ 000000018026d9a4 f   libvcruntime:undname.obj
 0001:0026cb88       ?getVbTableType@UnDecorator@@CA?AVDName@@AEBV2@@Z 000000018026db88 f i libvcruntime:undname.obj
 0001:0026cba4       ?getVdispMapType@UnDecorator@@CA?AVDName@@AEBV2@@Z 000000018026dba4 f i libvcruntime:undname.obj
 0001:0026cc40       ?getVfTableType@UnDecorator@@CA?AVDName@@AEBV2@@Z 000000018026dc40 f i libvcruntime:undname.obj
 0001:0026cecc       ?getZName@UnDecorator@@CA?AVDName@@_N0@Z 000000018026decc f   libvcruntime:undname.obj
 0001:0026d258       ?get_current_character_and_increment_buffer@UnDecorator@@CADXZ 000000018026e258 f i libvcruntime:undname.obj
 0001:0026d278       ?haveTemplateParameters@UnDecorator@@SAHXZ 000000018026e278 f i libvcruntime:undname.obj
 0001:0026d288       ?increment_buffer@UnDecorator@@CA_N_K@Z 000000018026e288 f i libvcruntime:undname.obj
 0001:0026d2c0       ?increment_buffer_no_check@UnDecorator@@CAXXZ 000000018026e2c0 f i libvcruntime:undname.obj
 0001:0026d2cc       ?increment_buffer_no_check@UnDecorator@@CAX_K@Z 000000018026e2cc f i libvcruntime:undname.obj
 0001:0026d2d8       ?isArray@DName@@QEBAHXZ    000000018026e2d8 f i libvcruntime:undname.obj
 0001:0026d2e4       ?isComArray@DName@@QEBAHXZ 000000018026e2e4 f i libvcruntime:undname.obj
 0001:0026d2f0       ?isEmpty@DName@@QEBAHXZ    000000018026e2f0 f i libvcruntime:undname.obj
 0001:0026d2fc       ?isFull@Replicator@@QEBAHXZ 000000018026e2fc f i libvcruntime:undname.obj
 0001:0026d308       ?isNoTE@DName@@QEBAHXZ     000000018026e308 f i libvcruntime:undname.obj
 0001:0026d314       ?isPinPtr@DName@@QEBAHXZ   000000018026e314 f i libvcruntime:undname.obj
 0001:0026d320       ?isPtrRef@DName@@QEBAHXZ   000000018026e320 f i libvcruntime:undname.obj
 0001:0026d32c       ?isUDC@DName@@QEBAHXZ      000000018026e32c f i libvcruntime:undname.obj
 0001:0026d348       ?isUDTThunk@DName@@QEBAHXZ 000000018026e348 f i libvcruntime:undname.obj
 0001:0026d364       ?isVCallThunk@DName@@QEBAHXZ 000000018026e364 f i libvcruntime:undname.obj
 0001:0026d370       ?isValid@DName@@QEBAHXZ    000000018026e370 f i libvcruntime:undname.obj
 0001:0026d37c       ?length@DName@@QEBAHXZ     000000018026e37c f i libvcruntime:undname.obj
 0001:0026d39c       ?length@DNameStatusNode@@UEBAHXZ 000000018026e39c f i libvcruntime:undname.obj
 0001:0026d3a0       ?length@charNode@@UEBAHXZ  000000018026e3a0 f i libvcruntime:undname.obj
 0001:0026d3a8       ?length@pDNameNode@@UEBAHXZ 000000018026e3a8 f i libvcruntime:undname.obj
 0001:0026d3dc       ?length@pairNode@@UEBAHXZ  000000018026e3dc f i libvcruntime:undname.obj
 0001:0026d434       ?length@pcharNode@@UEBAHXZ 000000018026e434 f i libvcruntime:undname.obj
 0001:0026d438       ?make@DNameStatusNode@@SAPEBV1@W4DNameStatus@@@Z 000000018026e438 f i libvcruntime:undname.obj
 0001:0026d460       ?parseDecoratedName@UnDecorator@@CA?AVDName@@XZ 000000018026e460 f   libvcruntime:undname.obj
 0001:0026d5bc       ?raw_length@DNameStatusNode@@UEBAHXZ 000000018026e5bc f i libvcruntime:undname.obj
 0001:0026d5c0       ?raw_length@charNode@@UEBAHXZ 000000018026e5c0 f i libvcruntime:undname.obj
 0001:0026d5c8       ?raw_length@pDNameNode@@UEBAHXZ 000000018026e5c8 f i libvcruntime:undname.obj
 0001:0026d5cc       ?raw_length@pairNode@@UEBAHXZ 000000018026e5cc f i libvcruntime:undname.obj
 0001:0026d5d0       ?raw_length@pcharNode@@UEBAHXZ 000000018026e5d0 f i libvcruntime:undname.obj
 0001:0026d5d4       ?setIsArray@DName@@QEAAXXZ 000000018026e5d4 f i libvcruntime:undname.obj
 0001:0026d5dc       ?setIsComArray@DName@@QEAAXXZ 000000018026e5dc f i libvcruntime:undname.obj
 0001:0026d5e4       ?setIsNoTE@DName@@QEAAXXZ  000000018026e5e4 f i libvcruntime:undname.obj
 0001:0026d5ec       ?setIsPinPtr@DName@@QEAAXXZ 000000018026e5ec f i libvcruntime:undname.obj
 0001:0026d5f4       ?setIsUDC@DName@@QEAAXXZ   000000018026e5f4 f i libvcruntime:undname.obj
 0001:0026d604       ?setIsVCallThunk@DName@@QEAAXXZ 000000018026e604 f i libvcruntime:undname.obj
 0001:0026d60c       ?setPtrRef@DName@@QEAAAEAV1@XZ 000000018026e60c f i libvcruntime:undname.obj
 0001:0026d618       ?status@DName@@QEBA?AW4DNameStatus@@XZ 000000018026e618 f i libvcruntime:undname.obj
 0001:0026d690       __unDName                  000000018026e690 f   libvcruntime:undname.obj
 0001:0026d6c0       __unDNameEx                000000018026e6c0 f   libvcruntime:undname.obj
 0001:0026d7e8       _vsprintf_s_l              000000018026e7e8 f i libvcruntime:undname.obj
 0001:0026d864       snprintf                   000000018026e864 f i libvcruntime:undname.obj
 0001:0026d8d0       sprintf_s                  000000018026e8d0 f i libvcruntime:undname.obj
 0001:0026d938       unDNameGenerateCHPE        000000018026e938 f   libvcruntime:undname.obj
 0001:0026dad4       ??$__crt_interlocked_exchange_pointer@UHINSTANCE__@@PEAU1@@@YAPEAUHINSTANCE__@@PEDSEAU0@QEAU0@@Z 000000018026ead4 f i libvcruntime:winapi_downlevel.obj
 0001:0026dadc       ??$__crt_interlocked_exchange_pointer@UHINSTANCE__@@PEAX@@YAPEAUHINSTANCE__@@PEDSEAU0@QEAX@Z 000000018026eadc f i libvcruntime:winapi_downlevel.obj
 0001:0026dae4       ??$__crt_interlocked_exchange_pointer@XPEAX@@YAPEAXPEDSEAXQEAX@Z 000000018026eae4 f i libvcruntime:winapi_downlevel.obj
 0001:0026daec       ??$__crt_interlocked_read_pointer@UHINSTANCE__@@@@YAPEAUHINSTANCE__@@PEDSEAU0@@Z 000000018026eaec f i libvcruntime:winapi_downlevel.obj
 0001:0026daf4       ??$__crt_interlocked_read_pointer@X@@YAPEAXPEDSEAX@Z 000000018026eaf4 f i libvcruntime:winapi_downlevel.obj
 0001:0026e17c       __vcrt_FlsAlloc            000000018026f17c f   libvcruntime:winapi_downlevel.obj
 0001:0026e1d4       __vcrt_FlsFree             000000018026f1d4 f   libvcruntime:winapi_downlevel.obj
 0001:0026e22c       __vcrt_FlsGetValue         000000018026f22c f   libvcruntime:winapi_downlevel.obj
 0001:0026e284       __vcrt_FlsSetValue         000000018026f284 f   libvcruntime:winapi_downlevel.obj
 0001:0026e2ec       __vcrt_InitializeCriticalSectionEx 000000018026f2ec f   libvcruntime:winapi_downlevel.obj
 0001:0026e368       ??$__crt_interlocked_exchange_pointer@$$A6AXXZP6AXXZ@@YAP6AXXZPEDS6AXXZQ6AXXZ@Z 000000018026f368 f i libvcruntime:purevirt.obj
 0001:0026e370       ??$__crt_interlocked_read_pointer@$$A6AXXZ@@YAP6AXXZPEDS6AXXZ@Z 000000018026f370 f i libvcruntime:purevirt.obj
 0001:0026e378       _get_purecall_handler      000000018026f378 f   libvcruntime:purevirt.obj
 0001:0026e384       _purecall                  000000018026f384 f   libvcruntime:purevirt.obj
 0001:0026e3a4       _set_purecall_handler      000000018026f3a4 f   libvcruntime:purevirt.obj
 0001:0026e3b4       ??$?0AEAViterator@TryBlockMap4@FH4@@AEAV012@$0A@@?$pair@Viterator@TryBlockMap4@FH4@@V123@@std@@QEAA@AEAViterator@TryBlockMap4@FH4@@0@Z 000000018026f3b4 f i libvcruntime:risctrnsctrl.obj
 0001:0026e3d0       ??$?0AEAViterator@TryBlockMap@__FrameHandler3@@AEAV012@$0A@@?$pair@Viterator@TryBlockMap@__FrameHandler3@@V123@@std@@QEAA@AEAViterator@TryBlockMap@__FrameHandler3@@0@Z 000000018026f3d0 f i libvcruntime:risctrnsctrl.obj
 0001:0026e5b8       ??$_CallSETranslator@V__FrameHandler3@@@@YAHPEAUEHExceptionRecord@@PEA_KPEAU_CONTEXT@@PEAU_xDISPATCHER_CONTEXT@@PEBU_s_FuncInfo@@K1H@Z 000000018026f5b8 f i libvcruntime:risctrnsctrl.obj
 0001:0026e620       ??$_CallSETranslator@V__FrameHandler4@@@@YAHPEAUEHExceptionRecord@@PEA_KPEAU_CONTEXT@@PEAU_xDISPATCHER_CONTEXT@@PEAUFuncInfo4@FH4@@K1H@Z 000000018026f620 f i libvcruntime:risctrnsctrl.obj
 0001:0026e688       ??$forward@AEAViterator@TryBlockMap4@FH4@@@std@@YAAEAViterator@TryBlockMap4@FH4@@AEAV123@@Z 000000018026f688 f i libvcruntime:risctrnsctrl.obj
 0001:0026e68c       ??$forward@AEAViterator@TryBlockMap@__FrameHandler3@@@std@@YAAEAViterator@TryBlockMap@__FrameHandler3@@AEAV123@@Z 000000018026f68c f i libvcruntime:risctrnsctrl.obj
 0001:0026e690       ??0FuncInfo4@FH4@@QEAA@XZ  000000018026f690 f i libvcruntime:risctrnsctrl.obj
 0001:0026e6a8       ??0FuncInfoHeader@FH4@@QEAA@XZ 000000018026f6a8 f i libvcruntime:risctrnsctrl.obj
 0001:0026e6b0       ??0iterator@TryBlockMap4@FH4@@QEAA@AEAV12@I@Z 000000018026f6b0 f i libvcruntime:risctrnsctrl.obj
 0001:0026e6c0       ??0iterator@TryBlockMap@__FrameHandler3@@QEAA@AEAV12@I@Z 000000018026f6c0 f i libvcruntime:risctrnsctrl.obj
 0001:0026e6d0       ??4iterator@TryBlockMap4@FH4@@QEAAAEAV012@AEBV012@@Z 000000018026f6d0 f i libvcruntime:risctrnsctrl.obj
 0001:0026e6dc       ??9iterator@TryBlockMap4@FH4@@QEBA_NAEBV012@@Z 000000018026f6dc f i libvcruntime:risctrnsctrl.obj
 0001:0026e6e8       ??Diterator@TryBlockMap4@FH4@@QEAA?AUTryBlockMapEntry4@2@XZ 000000018026f6e8 f i libvcruntime:risctrnsctrl.obj
 0001:0026e6fc       ??Eiterator@TryBlockMap4@FH4@@QEAAAEAV012@XZ 000000018026f6fc f i libvcruntime:risctrnsctrl.obj
 0001:0026e7c0       ?CatchTryBlock@__FrameHandler3@@SAPEBU_s_TryBlockMapEntry@@PEBU_s_FuncInfo@@H@Z 000000018026f7c0 f   libvcruntime:risctrnsctrl.obj
 0001:0026e83c       ?DecompFuncInfo@FH4@@YA_JPEAEAEAUFuncInfo4@1@_KH@Z 000000018026f83c f i libvcruntime:risctrnsctrl.obj
 0001:0026e854       ?DecompFuncInfo@FH4@@YA_JPEAEAEAUFuncInfo4@1@_KH_N@Z 000000018026f854 f i libvcruntime:risctrnsctrl.obj
 0001:0026e9d8       ?DecompTryBlock@TryBlockMap4@FH4@@AEAAXXZ 000000018026f9d8 f i libvcruntime:risctrnsctrl.obj
 0001:0026ea90       ?ExecutionInCatch@__FrameHandler3@@SA_NPEAU_xDISPATCHER_CONTEXT@@PEBU_s_FuncInfo@@@Z 000000018026fa90 f   libvcruntime:risctrnsctrl.obj
 0001:0026eac4       ?ExecutionInCatch@__FrameHandler4@@SA_NPEAU_xDISPATCHER_CONTEXT@@PEAUFuncInfo4@FH4@@@Z 000000018026fac4 f   libvcruntime:risctrnsctrl.obj
 0001:0026eacc       ?FrameUnwindToEmptyState@__FrameHandler3@@SAXPEA_KPEAU_xDISPATCHER_CONTEXT@@PEBU_s_FuncInfo@@@Z 000000018026facc f   libvcruntime:risctrnsctrl.obj
 0001:0026eb4c       ?FrameUnwindToEmptyState@__FrameHandler4@@SAXPEA_KPEAU_xDISPATCHER_CONTEXT@@PEAUFuncInfo4@FH4@@@Z 000000018026fb4c f   libvcruntime:risctrnsctrl.obj
 0001:0026eb8c       ?GetEstablisherFrame@__FrameHandler3@@SAPEA_KPEA_KPEAU_xDISPATCHER_CONTEXT@@PEBU_s_FuncInfo@@0@Z 000000018026fb8c f   libvcruntime:risctrnsctrl.obj
 0001:0026ec90       ?GetEstablisherFrame@__FrameHandler4@@SAPEA_KPEA_KPEAU_xDISPATCHER_CONTEXT@@PEAUFuncInfo4@FH4@@0@Z 000000018026fc90 f   libvcruntime:risctrnsctrl.obj
 0001:0026ecbc       ?GetRangeOfTrysToCheck@__FrameHandler3@@SA?AU?$pair@Viterator@TryBlockMap@__FrameHandler3@@V123@@std@@AEAVTryBlockMap@1@HPEAU_xDISPATCHER_CONTEXT@@PEBU_s_FuncInfo@@H@Z 000000018026fcbc f   libvcruntime:risctrnsctrl.obj
 0001:0026ee3c       ?GetRangeOfTrysToCheck@__FrameHandler4@@SA?AU?$pair@Viterator@TryBlockMap4@FH4@@V123@@std@@AEAVTryBlockMap4@FH4@@HPEAU_xDISPATCHER_CONTEXT@@PEAUFuncInfo4@5@H@Z 000000018026fe3c f   libvcruntime:risctrnsctrl.obj
 0001:0026f000       ?ReadInt@FH4@@YAHPEAPEAE@Z 0000000180270000 f i libvcruntime:risctrnsctrl.obj
 0001:0026f010       ?ReadUnsigned@FH4@@YAIPEAPEAE@Z 0000000180270010 f i libvcruntime:risctrnsctrl.obj
 0001:0026f04c       ?UnwindNestedFrames@__FrameHandler3@@SAXPEA_KPEAUEHExceptionRecord@@PEAU_CONTEXT@@0PEAXPEBU_s_FuncInfo@@HHPEBU_s_HandlerType@@PEAU_xDISPATCHER_CONTEXT@@E@Z 000000018027004c f   libvcruntime:risctrnsctrl.obj
 0001:0026f190       ?UnwindNestedFrames@__FrameHandler4@@SAXPEA_KPEAUEHExceptionRecord@@PEAU_CONTEXT@@0PEAXPEAUFuncInfo4@FH4@@HHPEAUHandlerType4@5@PEAU_xDISPATCHER_CONTEXT@@E@Z 0000000180270190 f   libvcruntime:risctrnsctrl.obj
 0001:0026f2f8       ?begin@TryBlockMap4@FH4@@QEAA?AViterator@12@XZ 00000001802702f8 f i libvcruntime:risctrnsctrl.obj
 0001:0026f308       ?end@TryBlockMap4@FH4@@QEAA?AViterator@12@XZ 0000000180270308 f i libvcruntime:risctrnsctrl.obj
 0001:0026f318       ?imageRelToByteBuffer@FH4@@YAPEAE_KH@Z 0000000180270318 f i libvcruntime:risctrnsctrl.obj
 0001:0026f320       ?incrementToSentinel@iterator@TryBlockMap4@FH4@@QEAAXXZ 0000000180270320 f i libvcruntime:risctrnsctrl.obj
 0001:0026f324       ?setBuffer@TryBlockMap4@FH4@@QEAAXViterator@12@@Z 0000000180270324 f i libvcruntime:risctrnsctrl.obj
 0001:0026f558       _CreateFrameInfo           0000000180270558 f   libvcruntime:risctrnsctrl.obj
 0001:0026f5a0       _FindAndUnlinkFrame        00000001802705a0 f   libvcruntime:risctrnsctrl.obj
 0001:0026f608       _GetImageBase              0000000180270608 f   libvcruntime:risctrnsctrl.obj
 0001:0026f620       _GetThrowImageBase         0000000180270620 f   libvcruntime:risctrnsctrl.obj
 0001:0026f638       _SetImageBase              0000000180270638 f   libvcruntime:risctrnsctrl.obj
 0001:0026f658       _SetThrowImageBase         0000000180270658 f   libvcruntime:risctrnsctrl.obj
 0001:0026f678       __CxxFrameHandler          0000000180270678 f   libvcruntime:risctrnsctrl.obj
 0001:0026f680       __CxxFrameHandler2         0000000180270680 f   libvcruntime:risctrnsctrl.obj
 0001:0026f688       __CxxFrameHandler3         0000000180270688 f   libvcruntime:risctrnsctrl.obj
 0001:0026f730       __CxxFrameHandler4         0000000180270730 f   libvcruntime:risctrnsctrl.obj
 0001:0026f820       ?GetCurrentState@__FrameHandler3@@SAHPEA_KPEAU_xDISPATCHER_CONTEXT@@PEBU_s_FuncInfo@@@Z 0000000180270820 f   libvcruntime:ehstate.obj
 0001:0026f850       ?GetUnwindTryBlock@__FrameHandler3@@SAHPEA_KPEAU_xDISPATCHER_CONTEXT@@PEBU_s_FuncInfo@@@Z 0000000180270850 f   libvcruntime:ehstate.obj
 0001:0026f884       ?SetState@__FrameHandler3@@SAXPEA_KPEBU_s_FuncInfo@@H@Z 0000000180270884 f   libvcruntime:ehstate.obj
 0001:0026f894       ?SetUnwindTryBlock@__FrameHandler3@@SAXPEA_KPEAU_xDISPATCHER_CONTEXT@@PEBU_s_FuncInfo@@H@Z 0000000180270894 f   libvcruntime:ehstate.obj
 0001:0026f8e0       ?StateFromControlPc@__FrameHandler3@@SAHPEBU_s_FuncInfo@@PEAU_xDISPATCHER_CONTEXT@@@Z 00000001802708e0 f   libvcruntime:ehstate.obj
 0001:0026f8ec       ?StateFromControlPc@__FrameHandler4@@SAHPEAUFuncInfo4@FH4@@PEAU_xDISPATCHER_CONTEXT@@@Z 00000001802708ec f   libvcruntime:ehstate.obj
 0001:0026f8f8       ?StateFromIp@__FrameHandler3@@SAHPEBU_s_FuncInfo@@PEAU_xDISPATCHER_CONTEXT@@_K@Z 00000001802708f8 f   libvcruntime:ehstate.obj
 0001:0026f978       ?StateFromIp@__FrameHandler4@@SAHPEAUFuncInfo4@FH4@@PEAU_xDISPATCHER_CONTEXT@@_K@Z 0000000180270978 f   libvcruntime:ehstate.obj
 0001:0026faa0       ?__FuncRelToRealOffset@@YA_KPEAU_xDISPATCHER_CONTEXT@@I@Z 0000000180270aa0 f i libvcruntime:ehstate.obj
 0001:0026fab4       ?__RVAtoRealOffset@@YA_KPEAU_xDISPATCHER_CONTEXT@@H@Z 0000000180270ab4 f i libvcruntime:ehstate.obj
 0001:002716c0       ??$TypeMatchHelper@V__FrameHandler3@@@@YAHPEBU_s_HandlerType@@PEBU_s_CatchableType@@PEBU_s_ThrowInfo@@@Z 00000001802726c0 f i libvcruntime:frame.obj
 0001:0027184c       ??$TypeMatchHelper@V__FrameHandler4@@@@YAHPEAUHandlerType4@FH4@@PEBU_s_CatchableType@@PEBU_s_ThrowInfo@@@Z 000000018027284c f i libvcruntime:frame.obj
 0001:002719ec       ??$__InternalCxxFrameHandler@V__FrameHandler3@@@@YA?AW4_EXCEPTION_DISPOSITION@@PEAUEHExceptionRecord@@PEA_KPEAU_CONTEXT@@PEAU_xDISPATCHER_CONTEXT@@PEBU_s_FuncInfo@@H1E@Z 00000001802729ec f i libvcruntime:frame.obj
 0001:00271cb0       ??$__InternalCxxFrameHandler@V__FrameHandler4@@@@YA?AW4_EXCEPTION_DISPOSITION@@PEAUEHExceptionRecord@@PEA_KPEAU_CONTEXT@@PEAU_xDISPATCHER_CONTEXT@@PEAUFuncInfo4@FH4@@H1E@Z 0000000180272cb0 f i libvcruntime:frame.obj
 0001:00271fec       ??$__InternalCxxFrameHandlerWrapper@V__FrameHandler3@@@@YA?AW4_EXCEPTION_DISPOSITION@@PEAUEHExceptionRecord@@PEA_KPEAU_CONTEXT@@PEAU_xDISPATCHER_CONTEXT@@PEBU_s_FuncInfo@@H1E@Z 0000000180272fec f i libvcruntime:frame.obj
 0001:00271ff4       ??$__InternalCxxFrameHandlerWrapper@V__FrameHandler4@@@@YA?AW4_EXCEPTION_DISPOSITION@@PEAUEHExceptionRecord@@PEA_KPEAU_CONTEXT@@PEAU_xDISPATCHER_CONTEXT@@PEAUFuncInfo4@FH4@@H1E@Z 0000000180272ff4 f i libvcruntime:frame.obj
 0001:00272054       ??0HandlerMap4@FH4@@QEAA@PEBUTryBlockMapEntry4@1@_KH@Z 0000000180273054 f i libvcruntime:frame.obj
 0001:002720f8       ??0HandlerMap@__FrameHandler3@@QEAA@PEBU_s_TryBlockMapEntry@@_KI@Z 00000001802730f8 f i libvcruntime:frame.obj
 0001:00272114       ??0HandlerType4@FH4@@QEAA@XZ 0000000180273114 f i libvcruntime:frame.obj
 0001:00272130       ??0TryBlockMap4@FH4@@QEAA@PEBUFuncInfo4@1@_K@Z 0000000180273130 f i libvcruntime:frame.obj
 0001:00272250       ??0TryBlockMap@__FrameHandler3@@QEAA@PEBU_s_FuncInfo@@_K@Z 0000000180273250 f i libvcruntime:frame.obj
 0001:00272260       ??0UWMap4@FH4@@QEAA@PEBUFuncInfo4@1@_K@Z 0000000180273260 f i libvcruntime:frame.obj
 0001:002722c0       ??0bad_exception@std@@QEAA@AEBV01@@Z 00000001802732c0 f i libvcruntime:frame.obj
 0001:0027230c       ??0bad_exception@std@@QEAA@XZ 000000018027330c f i libvcruntime:frame.obj
 0001:00272334       ??0exception@std@@QEAA@AEBV01@@Z 0000000180273334 f i libvcruntime:frame.obj
 0001:00272374       ??0exception@std@@QEAA@QEBDH@Z 0000000180273374 f i libvcruntime:frame.obj
 0001:00272390       ??0iterator@HandlerMap4@FH4@@QEAA@AEAV12@I@Z 0000000180273390 f i libvcruntime:frame.obj
 0001:002723a0       ??0iterator@HandlerMap@__FrameHandler3@@QEAA@AEAV12@I@Z 00000001802733a0 f i libvcruntime:frame.obj
 0001:002723b0       ??0iterator@UWMap4@FH4@@QEAA@AEAV12@PEAE@Z 00000001802733b0 f i libvcruntime:frame.obj
 0001:002723c0       ??1bad_exception@std@@UEAA@XZ 00000001802733c0 f i libvcruntime:frame.obj
 0001:002723d8       ??1exception@std@@UEAA@XZ  00000001802733d8 f i libvcruntime:frame.obj
 0001:002723f0       ??4iterator@UWMap4@FH4@@QEAAAEAV012@AEBV012@@Z 00000001802733f0 f i libvcruntime:frame.obj
 0001:00272418       ??8iterator@HandlerMap4@FH4@@QEBA_NAEBV012@@Z 0000000180273418 f i libvcruntime:frame.obj
 0001:00272424       ??8iterator@HandlerMap@__FrameHandler3@@QEBA_NAEBV012@@Z 0000000180273424 f i libvcruntime:frame.obj
 0001:00272430       ??8type_info@@QEBA_NAEBV0@@Z 0000000180273430 f i libvcruntime:frame.obj
 0001:00272454       ??9iterator@HandlerMap4@FH4@@QEBA_NAEBV012@@Z 0000000180273454 f i libvcruntime:frame.obj
 0001:00272460       ??9iterator@HandlerMap@__FrameHandler3@@QEBA_NAEBV012@@Z 0000000180273460 f i libvcruntime:frame.obj
 0001:0027246c       ??Diterator@HandlerMap4@FH4@@QEAA?AUHandlerType4@2@XZ 000000018027346c f i libvcruntime:frame.obj
 0001:00272494       ??Diterator@HandlerMap@__FrameHandler3@@QEAA?BU_s_HandlerType@@XZ 0000000180273494 f i libvcruntime:frame.obj
 0001:002724c0       ??Diterator@TryBlockMap@__FrameHandler3@@QEAA?BU_s_TryBlockMapEntry@@XZ 00000001802734c0 f i libvcruntime:frame.obj
 0001:002724f8       ??Diterator@UWMap4@FH4@@QEAA?AUUnwindMapEntry4@2@XZ 00000001802734f8 f i libvcruntime:frame.obj
 0001:00272560       ??Eiterator@HandlerMap4@FH4@@QEAAAEAV012@XZ 0000000180273560 f i libvcruntime:frame.obj
 0001:00272584       ??Eiterator@HandlerMap@__FrameHandler3@@QEAAAEAV012@XZ 0000000180273584 f i libvcruntime:frame.obj
 0001:0027258c       ??Eiterator@TryBlockMap@__FrameHandler3@@QEAAAEAV012@XZ 000000018027358c f i libvcruntime:frame.obj
 0001:00272594       ??Eiterator@UWMap4@FH4@@QEAAAEAV012@XZ 0000000180273594 f i libvcruntime:frame.obj
 0001:002725bc       ??Giterator@UWMap4@FH4@@QEBA_JAEBV012@@Z 00000001802735bc f i libvcruntime:frame.obj
 0001:002725c8       ??Miterator@TryBlockMap4@FH4@@QEBA_NAEBV012@@Z 00000001802735c8 f i libvcruntime:frame.obj
 0001:002725d4       ??Miterator@TryBlockMap@__FrameHandler3@@QEBA_NAEBV012@@Z 00000001802735d4 f i libvcruntime:frame.obj
 0001:002725e0       ??Oiterator@UWMap4@FH4@@QEBA_NAEBV012@@Z 00000001802735e0 f i libvcruntime:frame.obj
 0001:002725f0       ??Piterator@UWMap4@FH4@@QEBA_NAEBV012@@Z 00000001802735f0 f i libvcruntime:frame.obj
 0001:00272600       ??_Ebad_exception@std@@UEAAPEAXI@Z 0000000180273600 f i libvcruntime:frame.obj
 0001:00272600       ??_Gbad_exception@std@@UEAAPEAXI@Z 0000000180273600 f i libvcruntime:frame.obj
 0001:00272654       ??_Eexception@std@@UEAAPEAXI@Z 0000000180273654 f i libvcruntime:frame.obj
 0001:00272654       ??_Gexception@std@@UEAAPEAXI@Z 0000000180273654 f i libvcruntime:frame.obj
 0001:002726a8       ?BuildCatchObject@__FrameHandler3@@SAXPEAUEHExceptionRecord@@PEAXPEBU_s_HandlerType@@PEBU_s_CatchableType@@@Z 00000001802736a8 f   libvcruntime:frame.obj
 0001:002726b0       ?BuildCatchObject@__FrameHandler4@@SAXPEAUEHExceptionRecord@@PEAXPEAUHandlerType4@FH4@@PEBU_s_CatchableType@@@Z 00000001802736b0 f   libvcruntime:frame.obj
 0001:002726b8       ?BuildCatchObjectHelper@__FrameHandler3@@SAHPEAUEHExceptionRecord@@PEAXPEBU_s_HandlerType@@PEBU_s_CatchableType@@@Z 00000001802736b8 f   libvcruntime:frame.obj
 0001:002726c0       ?BuildCatchObjectHelper@__FrameHandler4@@SAHPEAUEHExceptionRecord@@PEAXPEAUHandlerType4@FH4@@PEBU_s_CatchableType@@@Z 00000001802736c0 f   libvcruntime:frame.obj
 0001:002726c8       ?CxxCallCatchBlock@__FrameHandler3@@SAPEAXPEAU_EXCEPTION_RECORD@@@Z 00000001802736c8 f   libvcruntime:frame.obj
 0001:0027292c       ?CxxCallCatchBlock@__FrameHandler4@@SAPEAXPEAU_EXCEPTION_RECORD@@@Z 000000018027392c f   libvcruntime:frame.obj
 0001:00272c0c       ?DecompHandler@HandlerMap4@FH4@@AEAAXXZ 0000000180273c0c f i libvcruntime:frame.obj
 0001:00272ee8       ?FrameUnwindToState@__FrameHandler3@@SAXPEA_KPEAU_xDISPATCHER_CONTEXT@@PEBU_s_FuncInfo@@H@Z 0000000180273ee8 f   libvcruntime:frame.obj
 0001:002730d4       ?FrameUnwindToState@__FrameHandler4@@SAXPEA_KPEAU_xDISPATCHER_CONTEXT@@PEAUFuncInfo4@FH4@@H@Z 00000001802740d4 f   libvcruntime:frame.obj
 0001:0027349c       ?GetHandlerSearchState@__FrameHandler3@@SAHPEA_KPEAU_xDISPATCHER_CONTEXT@@PEBU_s_FuncInfo@@@Z 000000018027449c f i libvcruntime:frame.obj
 0001:00273558       ?GetHandlerSearchState@__FrameHandler4@@SAHPEA_KPEAU_xDISPATCHER_CONTEXT@@PEAUFuncInfo4@FH4@@@Z 0000000180274558 f i libvcruntime:frame.obj
 0001:002735d4       ?GetMaxState@__FrameHandler3@@SAHPEAU_xDISPATCHER_CONTEXT@@PEBU_s_FuncInfo@@@Z 00000001802745d4 f i libvcruntime:frame.obj
 0001:002735d8       ?GetMaxState@__FrameHandler4@@SAHPEAU_xDISPATCHER_CONTEXT@@PEAUFuncInfo4@FH4@@@Z 00000001802745d8 f i libvcruntime:frame.obj
 0001:002737f4       ?ReadEntry@UWMap4@FH4@@AEAAXPEAPEAE@Z 00000001802747f4 f i libvcruntime:frame.obj
 0001:002738b8       ?TypeMatch@__FrameHandler3@@SAHPEBU_s_HandlerType@@PEBU_s_CatchableType@@PEBU_s_ThrowInfo@@@Z 00000001802748b8 f   libvcruntime:frame.obj
 0001:002738c0       ?TypeMatch@__FrameHandler4@@SAHPEAUHandlerType4@FH4@@PEBU_s_CatchableType@@PEBU_s_ThrowInfo@@@Z 00000001802748c0 f   libvcruntime:frame.obj
 0001:002738c8       ?WalkBack@UWMap4@FH4@@AEAAXPEAPEAE@Z 00000001802748c8 f i libvcruntime:frame.obj
 0001:0027390c       ?WalkBack@iterator@UWMap4@FH4@@QEAAXXZ 000000018027490c f i libvcruntime:frame.obj
 0001:00273958       ?WalkForward@UWMap4@FH4@@AEAAXPEAPEAE@Z 0000000180274958 f i libvcruntime:frame.obj
 0001:00273960       ?_CallMemberFunction1@@YAXQEAX00@Z 0000000180274960 f i libvcruntime:frame.obj
 0001:0027396c       ?_CallMemberFunction2@@YAXQEAX00H@Z 000000018027496c f i libvcruntime:frame.obj
 0001:0027399c       ?begin@HandlerMap4@FH4@@QEAA?AViterator@12@XZ 000000018027499c f i libvcruntime:frame.obj
 0001:002739ac       ?begin@HandlerMap@__FrameHandler3@@QEAA?AViterator@12@XZ 00000001802749ac f i libvcruntime:frame.obj
 0001:002739bc       ?begin@UWMap4@FH4@@QEAA?AViterator@12@XZ 00000001802749bc f i libvcruntime:frame.obj
 0001:002739d0       ?end@HandlerMap4@FH4@@QEAA?AViterator@12@XZ 00000001802749d0 f i libvcruntime:frame.obj
 0001:002739e0       ?end@HandlerMap@__FrameHandler3@@QEAA?AViterator@12@XZ 00000001802749e0 f i libvcruntime:frame.obj
 0001:002739f0       ?getESTypes@__FrameHandler3@@SAPEBU_s_ESTypeList@@PEBU_s_FuncInfo@@@Z 00000001802749f0 f i libvcruntime:frame.obj
 0001:00273a24       ?getESTypes@__FrameHandler4@@SAPEBU_s_ESTypeList@@PEAUFuncInfo4@FH4@@@Z 0000000180274a24 f i libvcruntime:frame.obj
 0001:00273a28       ?getLastEntry@HandlerMap4@FH4@@QEAAPEAUHandlerType4@2@XZ 0000000180274a28 f i libvcruntime:frame.obj
 0001:00273a8c       ?getLastEntry@HandlerMap@__FrameHandler3@@QEAAPEBU_s_HandlerType@@XZ 0000000180274a8c f i libvcruntime:frame.obj
 0001:00273aa4       ?getMagicNum@__FrameHandler3@@SAIPEBU_s_FuncInfo@@@Z 0000000180274aa4 f i libvcruntime:frame.obj
 0001:00273ab0       ?getMagicNum@__FrameHandler4@@SAIPEAUFuncInfo4@FH4@@@Z 0000000180274ab0 f i libvcruntime:frame.obj
 0001:00273ab8       ?getNumTryBlocks@TryBlockMap4@FH4@@QEAAIXZ 0000000180274ab8 f i libvcruntime:frame.obj
 0001:00273abc       ?getNumTryBlocks@TryBlockMap@__FrameHandler3@@QEAAIXZ 0000000180274abc f i libvcruntime:frame.obj
 0001:00273ac4       ?getStartStop@UWMap4@FH4@@QEAAXHHAEAViterator@12@0@Z 0000000180274ac4 f i libvcruntime:frame.obj
 0001:00273bc8       ?getStateFromIterators@UWMap4@FH4@@SAHAEBViterator@12@H0H0@Z 0000000180274bc8 f i libvcruntime:frame.obj
 0001:00273ca4       ?isEHs@__FrameHandler3@@SA_NPEBU_s_FuncInfo@@@Z 0000000180274ca4 f i libvcruntime:frame.obj
 0001:00273cac       ?isEHs@__FrameHandler4@@SA_NPEAUFuncInfo4@FH4@@@Z 0000000180274cac f i libvcruntime:frame.obj
 0001:00273cb8       ?isNoExcept@__FrameHandler3@@SA_NPEBU_s_FuncInfo@@@Z 0000000180274cb8 f i libvcruntime:frame.obj
 0001:00273cc4       ?isNoExcept@__FrameHandler4@@SA_NPEAUFuncInfo4@FH4@@@Z 0000000180274cc4 f i libvcruntime:frame.obj
 0001:00273cd0       ?reset@HandlerType4@FH4@@QEAAXXZ 0000000180274cd0 f i libvcruntime:frame.obj
 0001:00273cec       ?resetBuffer@HandlerMap4@FH4@@QEAAXXZ 0000000180274cec f i libvcruntime:frame.obj
 0001:00273cfc       ?setBuffer@HandlerMap4@FH4@@QEAAXI@Z 0000000180274cfc f i libvcruntime:frame.obj
 0001:00273d44       ?what@exception@std@@UEBAPEBDXZ 0000000180274d44 f i libvcruntime:frame.obj
 0001:00273d5c       __BuildCatchObject         0000000180274d5c f   libvcruntime:frame.obj
 0001:00273d64       __BuildCatchObjectHelper   0000000180274d64 f   libvcruntime:frame.obj
 0001:00273d6c       __TypeMatch                0000000180274d6c f   libvcruntime:frame.obj
 0001:00273d74       __vcrt_EncodePointer       0000000180274d74 f i libvcruntime:frame.obj
 0001:00273dd0       _CallSettingFrame          0000000180274dd0 f   libvcruntime:handlers.obj
 0001:00273e20       _CallSettingFrame_LookupContinuationIndex 0000000180274e20 f   libvcruntime:handlers.obj
 0001:00273e60       _CallSettingFrame_NotifyContinuationAddr 0000000180274e60 f   libvcruntime:handlers.obj
 0001:00273e90       _CallSettingFrameEncoded   0000000180274e90 f   libvcruntime:handlers.obj
 0001:00273ee8       ??$?RD@__crt_public_free_policy@@QEBAXQEBD@Z 0000000180274ee8 f i libvcruntime:std_exception.obj
 0001:00273ef4       ??0?$__crt_unique_heap_ptr@DU__crt_public_free_policy@@@@QEAA@QEAD@Z 0000000180274ef4 f i libvcruntime:std_exception.obj
 0001:00273efc       ??1?$__crt_unique_heap_ptr@DU__crt_public_free_policy@@@@QEAA@XZ 0000000180274efc f i libvcruntime:std_exception.obj
 0001:00273f20       ??B?$__crt_unique_heap_ptr@DU__crt_public_free_policy@@@@QEBA_NXZ 0000000180274f20 f i libvcruntime:std_exception.obj
 0001:00273f2c       ?detach@?$__crt_unique_heap_ptr@DU__crt_public_free_policy@@@@QEAAPEADXZ 0000000180274f2c f i libvcruntime:std_exception.obj
 0001:00273f38       ?get@?$__crt_unique_heap_ptr@DU__crt_public_free_policy@@@@QEBAPEADXZ 0000000180274f38 f i libvcruntime:std_exception.obj
 0001:00273f3c       ?is_valid@?$__crt_unique_heap_ptr@DU__crt_public_free_policy@@@@QEBA_NXZ 0000000180274f3c f i libvcruntime:std_exception.obj
 0001:00273f48       ?release@?$__crt_unique_heap_ptr@DU__crt_public_free_policy@@@@QEAAXXZ 0000000180274f48 f i libvcruntime:std_exception.obj
 0001:00273f6c       __std_exception_copy       0000000180274f6c f   libvcruntime:std_exception.obj
 0001:0027401c       __std_exception_destroy    000000018027501c f   libvcruntime:std_exception.obj
 0001:0027404c       _CxxThrowException         000000018027504c f   libvcruntime:throw.obj
 0001:0027411c       free                       000000018027511c f   libucrt:free.obj
 0001:00274134       malloc                     0000000180275134 f   libucrt:malloc.obj
 0001:0027413c       realloc                    000000018027513c f   libucrt:realloc.obj
 0001:00274144       ??1scoped_global_state_reset@__crt_state_management@@QEAA@XZ 0000000180275144 f i libucrt:qsort.obj
 0001:00274290       qsort                      0000000180275290 f   libucrt:qsort.obj
 0001:002747a4       ??$is_overflow_condition@K@__crt_strtox@@YA_NIK@Z 00000001802757a4 f i libucrt:strtox.obj
 0001:002747d4       ??$is_overflow_condition@_K@__crt_strtox@@YA_NI_K@Z 00000001802757d4 f i libucrt:strtox.obj
 0001:00274818       ??$make_c_string_character_source@DPEAPEAD@__crt_strtox@@YA?AV?$c_string_character_source@D@0@QEBDQEAPEAD@Z 0000000180275818 f i libucrt:strtox.obj
 0001:00274830       ??$make_c_string_character_source@_WPEAPEA_W@__crt_strtox@@YA?AV?$c_string_character_source@_W@0@QEB_WQEAPEA_W@Z 0000000180275830 f i libucrt:strtox.obj
 0001:00274848       ??$parse_integer@KV?$c_string_character_source@D@__crt_strtox@@$00@__crt_strtox@@YAKAEAV__crt_cached_ptd_host@@V?$c_string_character_source@D@0@H_N@Z 0000000180275848 f i libucrt:strtox.obj
 0001:00274bf0       ??$parse_integer@KV?$c_string_character_source@_W@__crt_strtox@@$00@__crt_strtox@@YAKAEAV__crt_cached_ptd_host@@V?$c_string_character_source@_W@0@H_N@Z 0000000180275bf0 f i libucrt:strtox.obj
 0001:00275570       ??$parse_integer@_KV?$c_string_character_source@D@__crt_strtox@@$00@__crt_strtox@@YA_KAEAV__crt_cached_ptd_host@@V?$c_string_character_source@D@0@H_N@Z 0000000180276570 f i libucrt:strtox.obj
 0001:00275904       ??$parse_integer@_KV?$c_string_character_source@_W@__crt_strtox@@$00@__crt_strtox@@YA_KAEAV__crt_cached_ptd_host@@V?$c_string_character_source@_W@0@H_N@Z 0000000180276904 f i libucrt:strtox.obj
 0001:00276268       ??$parse_integer_from_string@JDPEAPEAD@__crt_strtox@@YAJQEBDQEAPEADHQEAU__crt_locale_pointers@@@Z 0000000180277268 f i libucrt:strtox.obj
 0001:00276354       ??$parse_integer_from_string@J_WPEAPEA_W@__crt_strtox@@YAJQEB_WQEAPEA_WHQEAU__crt_locale_pointers@@@Z 0000000180277354 f i libucrt:strtox.obj
 0001:00276440       ??$parse_integer_from_string@KDPEAPEAD@__crt_strtox@@YAKQEBDQEAPEADHQEAU__crt_locale_pointers@@@Z 0000000180277440 f i libucrt:strtox.obj
 0001:0027652c       ??$parse_integer_from_string@K_WPEAPEA_W@__crt_strtox@@YAKQEB_WQEAPEA_WHQEAU__crt_locale_pointers@@@Z 000000018027752c f i libucrt:strtox.obj
 0001:00276618       ??$parse_integer_from_string@_JDPEAPEAD@__crt_strtox@@YA_JQEBDQEAPEADHQEAU__crt_locale_pointers@@@Z 0000000180277618 f i libucrt:strtox.obj
 0001:00276708       ??$parse_integer_from_string@_J_WPEAPEA_W@__crt_strtox@@YA_JQEB_WQEAPEA_WHQEAU__crt_locale_pointers@@@Z 0000000180277708 f i libucrt:strtox.obj
 0001:002767f8       ??$parse_integer_from_string@_KDPEAPEAD@__crt_strtox@@YA_KQEBDQEAPEADHQEAU__crt_locale_pointers@@@Z 00000001802777f8 f i libucrt:strtox.obj
 0001:002768e8       ??$parse_integer_from_string@_K_WPEAPEA_W@__crt_strtox@@YA_KQEB_WQEAPEA_WHQEAU__crt_locale_pointers@@@Z 00000001802778e8 f i libucrt:strtox.obj
 0001:002769d8       ??0?$c_string_character_source@D@__crt_strtox@@QEAA@QEBDQEAPEBD@Z 00000001802779d8 f i libucrt:strtox.obj
 0001:002769f0       ??0?$c_string_character_source@_W@__crt_strtox@@QEAA@QEB_WQEAPEB_W@Z 00000001802779f0 f i libucrt:strtox.obj
 0001:00276a08       ??0?$cached@H@__crt_cached_ptd_host@@QEAA@XZ 0000000180277a08 f i libucrt:strtox.obj
 0001:00276a14       ??0?$cached@K@__crt_cached_ptd_host@@QEAA@XZ 0000000180277a14 f i libucrt:strtox.obj
 0001:00276a20       ??0__crt_cached_ptd_host@@QEAA@QEAU__crt_locale_pointers@@@Z 0000000180277a20 f i libucrt:strtox.obj
 0001:00276a78       ??0__crt_scoped_get_last_error_reset@@QEAA@XZ 0000000180277a78 f i libucrt:strtox.obj
 0001:00276a98       ??1?$c_string_character_source@D@__crt_strtox@@QEAA@XZ 0000000180277a98 f i libucrt:strtox.obj
 0001:00276aac       ??1?$c_string_character_source@_W@__crt_strtox@@QEAA@XZ 0000000180277aac f i libucrt:strtox.obj
 0001:00276ac0       ??1__crt_cached_ptd_host@@QEAA@XZ 0000000180277ac0 f i libucrt:strtox.obj
 0001:00276b24       ??1__crt_scoped_get_last_error_reset@@QEAA@XZ 0000000180277b24 f i libucrt:strtox.obj
 0001:00276b30       ?check_synchronize_global_state_index@__crt_cached_ptd_host@@AEAA_KAEBV__crt_scoped_get_last_error_reset@@@Z 0000000180277b30 f i libucrt:strtox.obj
 0001:00276b50       ?check_synchronize_per_thread_data@__crt_cached_ptd_host@@AEAAPEAU__acrt_ptd@@XZ 0000000180277b50 f i libucrt:strtox.obj
 0001:00276bd0       ?force_synchronize_global_state_index@__crt_cached_ptd_host@@AEAA_KAEBV__crt_scoped_get_last_error_reset@@@Z 0000000180277bd0 f i libucrt:strtox.obj
 0001:00276bf0       ?force_synchronize_per_thread_data@__crt_cached_ptd_host@@AEAAPEAU__acrt_ptd@@XZ 0000000180277bf0 f i libucrt:strtox.obj
 0001:00276c5c       ?get@?$c_string_character_source@D@__crt_strtox@@QEAADXZ 0000000180277c5c f i libucrt:strtox.obj
 0001:00276c6c       ?get@?$c_string_character_source@_W@__crt_strtox@@QEAA_WXZ 0000000180277c6c f i libucrt:strtox.obj
 0001:00276c80       ?get_current_state_index@__crt_state_management@@YA_KAEBV__crt_scoped_get_last_error_reset@@@Z 0000000180277c80 f i libucrt:strtox.obj
 0001:00276c90       ?get_errno@__crt_cached_ptd_host@@QEAA@XZ 0000000180277c90 f i libucrt:strtox.obj
 0001:00276ca0       ?get_locale@__crt_cached_ptd_host@@QEAAPEAU__crt_locale_pointers@@XZ 0000000180277ca0 f i libucrt:strtox.obj
 0001:00276ce0       ?get_raw_ptd@__crt_cached_ptd_host@@QEAAPEAU__acrt_ptd@@XZ 0000000180277ce0 f i libucrt:strtox.obj
 0001:00276d60       ?is_space@__crt_strtox@@YA_NDQEAU__crt_locale_pointers@@@Z 0000000180277d60 f i libucrt:strtox.obj
 0001:00276d88       ?is_space@__crt_strtox@@YA_N_WPEAU__crt_locale_pointers@@@Z 0000000180277d88 f i libucrt:strtox.obj
 0001:00276da8       ?maximum_signed_value@__crt_strtox@@YAJK@Z 0000000180277da8 f i libucrt:strtox.obj
 0001:00276db0       ?maximum_signed_value@__crt_strtox@@YA_J_K@Z 0000000180277db0 f i libucrt:strtox.obj
 0001:00276dc0       ?minimum_signed_value@__crt_strtox@@YAJK@Z 0000000180277dc0 f i libucrt:strtox.obj
 0001:00276dc8       ?minimum_signed_value@__crt_strtox@@YA_J_K@Z 0000000180277dc8 f i libucrt:strtox.obj
 0001:00276dd8       ?parse_digit@__crt_strtox@@YAID@Z 0000000180277dd8 f i libucrt:strtox.obj
 0001:00276e14       ?parse_digit@__crt_strtox@@YAI_W@Z 0000000180277e14 f i libucrt:strtox.obj
 0001:0027703c       ?restore_state@?$c_string_character_source@D@__crt_strtox@@QEAA_NQEBD@Z 000000018027803c f i libucrt:strtox.obj
 0001:00277044       ?restore_state@?$c_string_character_source@_W@__crt_strtox@@QEAA_NQEB_W@Z 0000000180278044 f i libucrt:strtox.obj
 0001:0027704c       ?save_state@?$c_string_character_source@D@__crt_strtox@@QEBAPEBDXZ 000000018027804c f i libucrt:strtox.obj
 0001:00277050       ?save_state@?$c_string_character_source@_W@__crt_strtox@@QEBAPEB_WXZ 0000000180278050 f i libucrt:strtox.obj
 0001:00277054       ?set@?$cached@H@__crt_cached_ptd_host@@QEAAHH@Z 0000000180278054 f i libucrt:strtox.obj
 0001:00277060       ?unget@?$c_string_character_source@D@__crt_strtox@@QEAAXD@Z 0000000180278060 f i libucrt:strtox.obj
 0001:00277094       ?unget@?$c_string_character_source@_W@__crt_strtox@@QEAAX_W@Z 0000000180278094 f i libucrt:strtox.obj
 0001:002770cc       ?unsafe_value@?$cached@H@__crt_cached_ptd_host@@QEAAHXZ 00000001802780cc f i libucrt:strtox.obj
 0001:002770d0       ?unsafe_value@?$cached@K@__crt_cached_ptd_host@@QEAAKXZ 00000001802780d0 f i libucrt:strtox.obj
 0001:002770e0       ?update_locale@__crt_cached_ptd_host@@AEAAXXZ 00000001802780e0 f i libucrt:strtox.obj
 0001:002770f0       ?update_locale_slow@__crt_cached_ptd_host@@AEAAXXZ 00000001802780f0 f i libucrt:strtox.obj
 0001:00277184       ?valid@?$cached@H@__crt_cached_ptd_host@@QEBA_NXZ 0000000180278184 f i libucrt:strtox.obj
 0001:00277188       ?valid@?$cached@K@__crt_cached_ptd_host@@QEBA_NXZ 0000000180278188 f i libucrt:strtox.obj
 0001:0027718c       ?validate@?$c_string_character_source@D@__crt_strtox@@QEBA_NXZ 000000018027818c f i libucrt:strtox.obj
 0001:002771bc       ?validate@?$c_string_character_source@_W@__crt_strtox@@QEBA_NXZ 00000001802781bc f i libucrt:strtox.obj
 0001:002771ec       ?wide_character_to_digit@__crt_strtox@@YAH_W@Z 00000001802781ec f i libucrt:strtox.obj
 0001:002773f4       __acrt_disable_global_locale_sync 00000001802783f4 f i libucrt:strtox.obj
 0001:002773fc       __acrt_enable_global_locale_sync 00000001802783fc f i libucrt:strtox.obj
 0001:00277408       __acrt_get_locale_data_prefix 0000000180278408 f i libucrt:strtox.obj
 0001:0027740c       __acrt_locale_changed      000000018027840c f i libucrt:strtox.obj
 0001:0027741c       __acrt_locale_get_ctype_array_value 000000018027841c f i libucrt:strtox.obj
 0001:0027743c       __ascii_iswalpha           000000018027843c f i libucrt:strtox.obj
 0001:0027745c       __ascii_toupper            000000018027845c f i libucrt:strtox.obj
 0001:00277470       __ascii_towupper           0000000180278470 f i libucrt:strtox.obj
 0001:00277480       _chvalidchk_l              0000000180278480 f i libucrt:strtox.obj
 0001:002774fc       _ischartype_l              00000001802784fc f i libucrt:strtox.obj
 0001:00277590       _strtoi64                  0000000180278590 f   libucrt:strtox.obj
 0001:00277670       _strtoi64_l                0000000180278670 f   libucrt:strtox.obj
 0001:00277760       _strtoimax_l               0000000180278760 f   libucrt:strtox.obj
 0001:00277850       _strtol_l                  0000000180278850 f   libucrt:strtox.obj
 0001:0027793c       _strtoll_l                 000000018027893c f   libucrt:strtox.obj
 0001:00277a2c       _strtoui64                 0000000180278a2c f   libucrt:strtox.obj
 0001:00277b0c       _strtoui64_l               0000000180278b0c f   libucrt:strtox.obj
 0001:00277bfc       _strtoul_l                 0000000180278bfc f   libucrt:strtox.obj
 0001:00277ce8       _strtoull_l                0000000180278ce8 f   libucrt:strtox.obj
 0001:00277dd8       _strtoumax_l               0000000180278dd8 f   libucrt:strtox.obj
 0001:00277ec8       _wcstoi64                  0000000180278ec8 f   libucrt:strtox.obj
 0001:00277fa8       _wcstoi64_l                0000000180278fa8 f   libucrt:strtox.obj
 0001:00278098       _wcstoimax_l               0000000180279098 f   libucrt:strtox.obj
 0001:00278188       _wcstol_l                  0000000180279188 f   libucrt:strtox.obj
 0001:00278274       _wcstoll_l                 0000000180279274 f   libucrt:strtox.obj
 0001:00278364       _wcstoui64                 0000000180279364 f   libucrt:strtox.obj
 0001:00278444       _wcstoui64_l               0000000180279444 f   libucrt:strtox.obj
 0001:00278534       _wcstoul_l                 0000000180279534 f   libucrt:strtox.obj
 0001:00278620       _wcstoull_l                0000000180279620 f   libucrt:strtox.obj
 0001:00278710       _wcstoumax_l               0000000180279710 f   libucrt:strtox.obj
 0001:00278800       strtoimax                  0000000180279800 f   libucrt:strtox.obj
 0001:002788e0       strtol                     00000001802798e0 f   libucrt:strtox.obj
 0001:002789c0       strtoll                    00000001802799c0 f   libucrt:strtox.obj
 0001:00278aa0       strtoul                    0000000180279aa0 f   libucrt:strtox.obj
 0001:00278b80       strtoull                   0000000180279b80 f   libucrt:strtox.obj
 0001:00278c60       strtoumax                  0000000180279c60 f   libucrt:strtox.obj
 0001:00278d40       wcstoimax                  0000000180279d40 f   libucrt:strtox.obj
 0001:00278e20       wcstol                     0000000180279e20 f   libucrt:strtox.obj
 0001:00278f00       wcstoll                    0000000180279f00 f   libucrt:strtox.obj
 0001:00278fe0       wcstoul                    0000000180279fe0 f   libucrt:strtox.obj
 0001:002790c0       wcstoull                   000000018027a0c0 f   libucrt:strtox.obj
 0001:002791a0       wcstoumax                  000000018027a1a0 f   libucrt:strtox.obj
 0001:00279290       strncmp                    000000018027a290 f   libucrt:strncmp.obj
 0001:00279330       ??$?RPEAU__crt_stdio_stream_data@@@__crt_internal_free_policy@@QEBAXQEBQEAU__crt_stdio_stream_data@@@Z 000000018027a330 f i libucrt:_file.obj
 0001:0027933c       ??0?$__crt_unique_heap_ptr@PEAU__crt_stdio_stream_data@@U__crt_internal_free_policy@@@@QEAA@QEAPEAU__crt_stdio_stream_data@@@Z 000000018027a33c f i libucrt:_file.obj
 0001:00279344       ??0__crt_stdio_stream@@QEAA@QEAU_iobuf@@@Z 000000018027a344 f i libucrt:_file.obj
 0001:0027934c       ??1?$__crt_unique_heap_ptr@PEAU__crt_stdio_stream_data@@U__crt_internal_free_policy@@@@QEAA@XZ 000000018027a34c f i libucrt:_file.obj
 0001:00279370       ??C__crt_stdio_stream@@QEBAPEAU__crt_stdio_stream_data@@XZ 000000018027a370 f i libucrt:_file.obj
 0001:00279374       ?detach@?$__crt_unique_heap_ptr@PEAU__crt_stdio_stream_data@@U__crt_internal_free_policy@@@@QEAAPEAPEAU__crt_stdio_stream_data@@XZ 000000018027a374 f i libucrt:_file.obj
 0001:00279380       ?release@?$__crt_unique_heap_ptr@PEAU__crt_stdio_stream_data@@U__crt_internal_free_policy@@@@QEAAXXZ 000000018027a380 f i libucrt:_file.obj
 0001:002793a4       __acrt_initialize_stdio    000000018027a3a4 f   libucrt:_file.obj
 0001:0027950c       __acrt_iob_func            000000018027a50c f   libucrt:_file.obj
 0001:00279524       __acrt_uninitialize_stdio  000000018027a524 f   libucrt:_file.obj
 0001:00279598       _get_stream_buffer_pointers 000000018027a598 f   libucrt:_file.obj
 0001:002795f0       _lock_file                 000000018027a5f0 f   libucrt:_file.obj
 0001:00279600       _unlock_file               000000018027a600 f   libucrt:_file.obj
 0001:002798c4       ??$open_file@AEBQEBDAEBQEBDAEBHPEAU_iobuf@@@?$__crt_char_traits@D@@SAPEAU_iobuf@@AEBQEBD0AEBH$$QEAPEAU1@@Z 000000018027a8c4 f i libucrt:fopen.obj
 0001:002798dc       ??$open_file@AEBQEB_WAEBQEB_WAEBHPEAU_iobuf@@@?$__crt_char_traits@_W@@SAPEAU_iobuf@@AEBQEB_W0AEBH$$QEAPEAU1@@Z 000000018027a8dc f i libucrt:fopen.obj
 0001:002798f4       ?public_stream@__crt_stdio_stream@@QEBAPEAU_iobuf@@XZ 000000018027a8f4 f i libucrt:fopen.obj
 0001:002798f8       ?unlock@__crt_stdio_stream@@QEBAXXZ 000000018027a8f8 f i libucrt:fopen.obj
 0001:00279904       ?valid@__crt_stdio_stream@@QEBA_NXZ 000000018027a904 f i libucrt:fopen.obj
 0001:00279910       _fsopen                    000000018027a910 f   libucrt:fopen.obj
 0001:00279918       _wfopen                    000000018027a918 f   libucrt:fopen.obj
 0001:00279928       _wfopen_s                  000000018027a928 f   libucrt:fopen.obj
 0001:00279998       _wfsopen                   000000018027a998 f   libucrt:fopen.obj
 0001:002799a0       fopen                      000000018027a9a0 f   libucrt:fopen.obj
 0001:002799b0       fopen_s                    000000018027a9b0 f   libucrt:fopen.obj
 0001:00279a20       ??$__crt_interlocked_read@J@@YAJPEDJ@Z 000000018027aa20 f i libucrt:fclose.obj
 0001:00279a24       ?__crt_interlocked_read_32@@YAHPEDH@Z 000000018027aa24 f i libucrt:fclose.obj
 0001:00279b90       ?get_flags@__crt_stdio_stream@@QEBAJXZ 000000018027ab90 f i libucrt:fclose.obj
 0001:00279b9c       ?is_in_use@__crt_stdio_stream@@QEBA_NXZ 000000018027ab9c f i libucrt:fclose.obj
 0001:00279bac       ?is_string_backed@__crt_stdio_stream@@QEBA_NXZ 000000018027abac f i libucrt:fclose.obj
 0001:00279bbc       _fclose_nolock             000000018027abbc f   libucrt:fclose.obj
 0001:00279c7c       fclose                     000000018027ac7c f   libucrt:fclose.obj
 0001:00279d3c       ?eof@__crt_stdio_stream@@QEBA_NXZ 000000018027ad3c f i libucrt:feoferr.obj
 0001:00279d4c       ?error@__crt_stdio_stream@@QEBA_NXZ 000000018027ad4c f i libucrt:feoferr.obj
 0001:00279d5c       ?has_any_of@__crt_stdio_stream@@QEBA_NJ@Z 000000018027ad5c f i libucrt:feoferr.obj
 0001:00279d6c       feof                       000000018027ad6c f   libucrt:feoferr.obj
 0001:00279da4       ferror                     000000018027ada4 f   libucrt:feoferr.obj
 0001:00279ddc       _fgetc_nolock              000000018027addc f   libucrt:fgetc.obj
 0001:00279e30       _fgetchar                  000000018027ae30 f   libucrt:fgetc.obj
 0001:00279e4c       _getc_nolock               000000018027ae4c f   libucrt:fgetc.obj
 0001:00279e54       fgetc                      000000018027ae54 f   libucrt:fgetc.obj
 0001:00279fb0       getc                       000000018027afb0 f   libucrt:fgetc.obj
 0001:00279fb8       getchar                    000000018027afb8 f   libucrt:fgetc.obj
 0001:00279fd4       ?__acrt_stdio_reset_buffer@@YAXV__crt_stdio_stream@@@Z 000000018027afd4 f i libucrt:fread.obj
 0001:00279fe4       ?has_any_buffer@__crt_stdio_stream@@QEBA_NXZ 000000018027afe4 f i libucrt:fread.obj
 0001:00279ffc       ?set_flags@__crt_stdio_stream@@QEBA_NJ@Z 000000018027affc f i libucrt:fread.obj
 0001:0027a024       _fread_nolock              000000018027b024 f   libucrt:fread.obj
 0001:0027a048       _fread_nolock_s            000000018027b048 f   libucrt:fread.obj
 0001:0027a340       fread                      000000018027b340 f   libucrt:fread.obj
 0001:0027a364       fread_s                    000000018027b364 f   libucrt:fread.obj
 0001:0027a4dc       ?LongLongSub@@YAJ_J0PEA_J@Z 000000018027b4dc f i libucrt:fseek.obj
 0001:0027a820       ?has_all_of@__crt_stdio_stream@@QEBA_NJ@Z 000000018027b820 f i libucrt:fseek.obj
 0001:0027a834       ?lowio_handle@__crt_stdio_stream@@QEBAHXZ 000000018027b834 f i libucrt:fseek.obj
 0001:0027a840       ?unset_flags@__crt_stdio_stream@@QEBA_NJ@Z 000000018027b840 f i libucrt:fseek.obj
 0001:0027a870       _fseek_nolock              000000018027b870 f   libucrt:fseek.obj
 0001:0027a934       _fseeki64                  000000018027b934 f   libucrt:fseek.obj
 0001:0027a9f4       _fseeki64_nolock           000000018027b9f4 f   libucrt:fseek.obj
 0001:0027aab4       fseek                      000000018027bab4 f   libucrt:fseek.obj
 0001:0027b2f4       ?ctrl_z@__crt_stdio_stream@@QEBA_NXZ 000000018027c2f4 f i libucrt:ftell.obj
 0001:0027b304       ?has_big_buffer@__crt_stdio_stream@@QEBA_NXZ 000000018027c304 f i libucrt:ftell.obj
 0001:0027b318       ?has_crt_buffer@__crt_stdio_stream@@QEBA_NXZ 000000018027c318 f i libucrt:ftell.obj
 0001:0027b328       ?has_setvbuf_buffer@__crt_stdio_stream@@QEBA_NXZ 000000018027c328 f i libucrt:ftell.obj
 0001:0027b338       _ftell_nolock              000000018027c338 f   libucrt:ftell.obj
 0001:0027b414       _ftelli64                  000000018027c414 f   libucrt:ftell.obj
 0001:0027b4d4       _ftelli64_nolock           000000018027c4d4 f   libucrt:ftell.obj
 0001:0027b594       _ftelli64_nolock_internal  000000018027c594 f   libucrt:ftell.obj
 0001:0027b59c       _utf8_no_of_trailbytes     000000018027c59c f i libucrt:ftell.obj
 0001:0027b5b0       ftell                      000000018027c5b0 f   libucrt:ftell.obj
 0001:0027b738       ??0__acrt_stdio_temporary_buffering_guard@@QEAA@QEAU_iobuf@@AEAV__crt_cached_ptd_host@@@Z 000000018027c738 f i libucrt:fwrite.obj
 0001:0027b768       ??1__acrt_stdio_temporary_buffering_guard@@QEAA@XZ 000000018027c768 f i libucrt:fwrite.obj
 0001:0027b834       _fwrite_internal           000000018027c834 f   libucrt:fwrite.obj
 0001:0027b8f8       _fwrite_nolock             000000018027c8f8 f   libucrt:fwrite.obj
 0001:0027b9c4       _fwrite_nolock_internal    000000018027c9c4 f   libucrt:fwrite.obj
 0001:0027bc5c       fwrite                     000000018027cc5c f   libucrt:fwrite.obj
 0001:0027bd28       _ungetc_nolock             000000018027cd28 f   libucrt:ungetc.obj
 0001:0027be90       ungetc                     000000018027ce90 f   libucrt:ungetc.obj
 0001:0027bf00       ??$?0AEBV?$stream_output_adapter@D@__crt_stdio_output@@AEB_KAEBQEBDAEAV__crt_cached_ptd_host@@AEBQEAD@?$format_validation_base@DV?$stream_output_adapter@D@__crt_stdio_output@@@__crt_stdio_output@@IEAA@AEBV?$stream_output_adapter@D@1@AEB_KAEBQEBDAEAV__crt_cached_ptd_host@@AEBQEAD@Z 000000018027cf00 f i libucrt:output.obj
 0001:0027bf8c       ??$?0AEBV?$stream_output_adapter@D@__crt_stdio_output@@AEB_KAEBQEBDAEAV__crt_cached_ptd_host@@AEBQEAD@?$positional_parameter_base@DV?$stream_output_adapter@D@__crt_stdio_output@@@__crt_stdio_output@@IEAA@AEBV?$stream_output_adapter@D@1@AEB_KAEBQEBDAEAV__crt_cached_ptd_host@@AEBQEAD@Z 000000018027cf8c f i libucrt:output.obj
 0001:0027c03c       ??$?0AEBV?$stream_output_adapter@D@__crt_stdio_output@@AEB_KAEBQEBDAEAV__crt_cached_ptd_host@@AEBQEAD@?$standard_base@DV?$stream_output_adapter@D@__crt_stdio_output@@@__crt_stdio_output@@IEAA@AEBV?$stream_output_adapter@D@1@AEB_KAEBQEBDAEAV__crt_cached_ptd_host@@AEBQEAD@Z 000000018027d03c f i libucrt:output.obj
 0001:0027c0c8       ??$?0AEBV?$stream_output_adapter@_W@__crt_stdio_output@@AEB_KAEBQEB_WAEAV__crt_cached_ptd_host@@AEBQEAD@?$format_validation_base@_WV?$stream_output_adapter@_W@__crt_stdio_output@@@__crt_stdio_output@@IEAA@AEBV?$stream_output_adapter@_W@1@AEB_KAEBQEB_WAEAV__crt_cached_ptd_host@@AEBQEAD@Z 000000018027d0c8 f i libucrt:output.obj
 0001:0027c15c       ??$?0AEBV?$stream_output_adapter@_W@__crt_stdio_output@@AEB_KAEBQEB_WAEAV__crt_cached_ptd_host@@AEBQEAD@?$positional_parameter_base@_WV?$stream_output_adapter@_W@__crt_stdio_output@@@__crt_stdio_output@@IEAA@AEBV?$stream_output_adapter@_W@1@AEB_KAEBQEB_WAEAV__crt_cached_ptd_host@@AEBQEAD@Z 000000018027d15c f i libucrt:output.obj
 0001:0027c214       ??$?0AEBV?$stream_output_adapter@_W@__crt_stdio_output@@AEB_KAEBQEB_WAEAV__crt_cached_ptd_host@@AEBQEAD@?$standard_base@_WV?$stream_output_adapter@_W@__crt_stdio_output@@@__crt_stdio_output@@IEAA@AEBV?$stream_output_adapter@_W@1@AEB_KAEBQEB_WAEAV__crt_cached_ptd_host@@AEBQEAD@Z 000000018027d214 f i libucrt:output.obj
 0001:0027c2a8       ??$?0AEBV?$string_output_adapter@D@__crt_stdio_output@@AEB_KAEBQEBDAEAV__crt_cached_ptd_host@@AEBQEAD@?$format_validation_base@DV?$string_output_adapter@D@__crt_stdio_output@@@__crt_stdio_output@@IEAA@AEBV?$string_output_adapter@D@1@AEB_KAEBQEBDAEAV__crt_cached_ptd_host@@AEBQEAD@Z 000000018027d2a8 f i libucrt:output.obj
 0001:0027c334       ??$?0AEBV?$string_output_adapter@D@__crt_stdio_output@@AEB_KAEBQEBDAEAV__crt_cached_ptd_host@@AEBQEAD@?$positional_parameter_base@DV?$string_output_adapter@D@__crt_stdio_output@@@__crt_stdio_output@@IEAA@AEBV?$string_output_adapter@D@1@AEB_KAEBQEBDAEAV__crt_cached_ptd_host@@AEBQEAD@Z 000000018027d334 f i libucrt:output.obj
 0001:0027c3e4       ??$?0AEBV?$string_output_adapter@D@__crt_stdio_output@@AEB_KAEBQEBDAEAV__crt_cached_ptd_host@@AEBQEAD@?$standard_base@DV?$string_output_adapter@D@__crt_stdio_output@@@__crt_stdio_output@@IEAA@AEBV?$string_output_adapter@D@1@AEB_KAEBQEBDAEAV__crt_cached_ptd_host@@AEBQEAD@Z 000000018027d3e4 f i libucrt:output.obj
 0001:0027c470       ??$?0AEBV?$string_output_adapter@_W@__crt_stdio_output@@AEB_KAEBQEB_WAEAV__crt_cached_ptd_host@@AEBQEAD@?$format_validation_base@_WV?$string_output_adapter@_W@__crt_stdio_output@@@__crt_stdio_output@@IEAA@AEBV?$string_output_adapter@_W@1@AEB_KAEBQEB_WAEAV__crt_cached_ptd_host@@AEBQEAD@Z 000000018027d470 f i libucrt:output.obj
 0001:0027c504       ??$?0AEBV?$string_output_adapter@_W@__crt_stdio_output@@AEB_KAEBQEB_WAEAV__crt_cached_ptd_host@@AEBQEAD@?$positional_parameter_base@_WV?$string_output_adapter@_W@__crt_stdio_output@@@__crt_stdio_output@@IEAA@AEBV?$string_output_adapter@_W@1@AEB_KAEBQEB_WAEAV__crt_cached_ptd_host@@AEBQEAD@Z 000000018027d504 f i libucrt:output.obj
 0001:0027c5bc       ??$?0AEBV?$string_output_adapter@_W@__crt_stdio_output@@AEB_KAEBQEB_WAEAV__crt_cached_ptd_host@@AEBQEAD@?$standard_base@_WV?$string_output_adapter@_W@__crt_stdio_output@@@__crt_stdio_output@@IEAA@AEBV?$string_output_adapter@_W@1@AEB_KAEBQEB_WAEAV__crt_cached_ptd_host@@AEBQEAD@Z 000000018027d5bc f i libucrt:output.obj
 0001:0027c950       ??$_tcstol_internal@DPEAPEAD$0A@@@YAJAEAV__crt_cached_ptd_host@@QEBDQEAPEADH@Z 000000018027d950 f i libucrt:output.obj
 0001:0027c98c       ??$_tcstol_internal@_WPEAPEA_W$0A@@@YAJAEAV__crt_cached_ptd_host@@QEB_WQEAPEA_WH@Z 000000018027d98c f i libucrt:output.obj
 0001:0027df28       ??$count@D@formatting_buffer@__crt_stdio_output@@QEBA_KXZ 000000018027ef28 f i libucrt:output.obj
 0001:0027df4c       ??$count@_W@formatting_buffer@__crt_stdio_output@@QEBA_KXZ 000000018027ef4c f i libucrt:output.obj
 0001:0027df70       ??$data@D@formatting_buffer@__crt_stdio_output@@QEAAPEADXZ 000000018027ef70 f i libucrt:output.obj
 0001:0027df84       ??$data@_W@formatting_buffer@__crt_stdio_output@@QEAAPEA_WXZ 000000018027ef84 f i libucrt:output.obj
 0001:0027df98       ??$ensure_buffer_is_big_enough@D@formatting_buffer@__crt_stdio_output@@QEAA_N_KAEAV__crt_cached_ptd_host@@@Z 000000018027ef98 f i libucrt:output.obj
 0001:0027e06c       ??$ensure_buffer_is_big_enough@_W@formatting_buffer@__crt_stdio_output@@QEAA_N_KAEAV__crt_cached_ptd_host@@@Z 000000018027f06c f i libucrt:output.obj
 0001:0027e144       ??$extract_argument_from_va_list@C_J@?$positional_parameter_base@DV?$stream_output_adapter@D@__crt_stdio_output@@@__crt_stdio_output@@IEAA_NAEA_J@Z 000000018027f144 f i libucrt:output.obj
 0001:0027e290       ??$extract_argument_from_va_list@C_J@?$positional_parameter_base@DV?$string_output_adapter@D@__crt_stdio_output@@@__crt_stdio_output@@IEAA_NAEA_J@Z 000000018027f290 f i libucrt:output.obj
 0001:0027e3dc       ??$extract_argument_from_va_list@C_J@?$positional_parameter_base@_WV?$stream_output_adapter@_W@__crt_stdio_output@@@__crt_stdio_output@@IEAA_NAEA_J@Z 000000018027f3dc f i libucrt:output.obj
 0001:0027e52c       ??$extract_argument_from_va_list@C_J@?$positional_parameter_base@_WV?$string_output_adapter@_W@__crt_stdio_output@@@__crt_stdio_output@@IEAA_NAEA_J@Z 000000018027f52c f i libucrt:output.obj
 0001:0027e67c       ??$extract_argument_from_va_list@C_J@?$standard_base@DV?$stream_output_adapter@D@__crt_stdio_output@@@__crt_stdio_output@@IEAA_NAEA_J@Z 000000018027f67c f i libucrt:output.obj
 0001:0027e698       ??$extract_argument_from_va_list@C_J@?$standard_base@DV?$string_output_adapter@D@__crt_stdio_output@@@__crt_stdio_output@@IEAA_NAEA_J@Z 000000018027f698 f i libucrt:output.obj
 0001:0027e6b4       ??$extract_argument_from_va_list@C_J@?$standard_base@_WV?$stream_output_adapter@_W@__crt_stdio_output@@@__crt_stdio_output@@IEAA_NAEA_J@Z 000000018027f6b4 f i libucrt:output.obj
 0001:0027e6d0       ??$extract_argument_from_va_list@C_J@?$standard_base@_WV?$string_output_adapter@_W@__crt_stdio_output@@@__crt_stdio_output@@IEAA_NAEA_J@Z 000000018027f6d0 f i libucrt:output.obj
 0001:0027e6ec       ??$extract_argument_from_va_list@E_J@?$positional_parameter_base@DV?$stream_output_adapter@D@__crt_stdio_output@@@__crt_stdio_output@@IEAA_NAEA_J@Z 000000018027f6ec f i libucrt:output.obj
 0001:0027e838       ??$extract_argument_from_va_list@E_J@?$positional_parameter_base@DV?$string_output_adapter@D@__crt_stdio_output@@@__crt_stdio_output@@IEAA_NAEA_J@Z 000000018027f838 f i libucrt:output.obj
 0001:0027e984       ??$extract_argument_from_va_list@E_J@?$positional_parameter_base@_WV?$stream_output_adapter@_W@__crt_stdio_output@@@__crt_stdio_output@@IEAA_NAEA_J@Z 000000018027f984 f i libucrt:output.obj
 0001:0027ead0       ??$extract_argument_from_va_list@E_J@?$positional_parameter_base@_WV?$string_output_adapter@_W@__crt_stdio_output@@@__crt_stdio_output@@IEAA_NAEA_J@Z 000000018027fad0 f i libucrt:output.obj
 0001:0027ec1c       ??$extract_argument_from_va_list@E_J@?$standard_base@DV?$stream_output_adapter@D@__crt_stdio_output@@@__crt_stdio_output@@IEAA_NAEA_J@Z 000000018027fc1c f i libucrt:output.obj
 0001:0027ec38       ??$extract_argument_from_va_list@E_J@?$standard_base@DV?$string_output_adapter@D@__crt_stdio_output@@@__crt_stdio_output@@IEAA_NAEA_J@Z 000000018027fc38 f i libucrt:output.obj
 0001:0027ec54       ??$extract_argument_from_va_list@E_J@?$standard_base@_WV?$stream_output_adapter@_W@__crt_stdio_output@@@__crt_stdio_output@@IEAA_NAEA_J@Z 000000018027fc54 f i libucrt:output.obj
 0001:0027ec70       ??$extract_argument_from_va_list@E_J@?$standard_base@_WV?$string_output_adapter@_W@__crt_stdio_output@@@__crt_stdio_output@@IEAA_NAEA_J@Z 000000018027fc70 f i libucrt:output.obj
 0001:0027ec8c       ??$extract_argument_from_va_list@F_J@?$positional_parameter_base@DV?$stream_output_adapter@D@__crt_stdio_output@@@__crt_stdio_output@@IEAA_NAEA_J@Z 000000018027fc8c f i libucrt:output.obj
 0001:0027edd8       ??$extract_argument_from_va_list@F_J@?$positional_parameter_base@DV?$string_output_adapter@D@__crt_stdio_output@@@__crt_stdio_output@@IEAA_NAEA_J@Z 000000018027fdd8 f i libucrt:output.obj
 0001:0027ef24       ??$extract_argument_from_va_list@F_J@?$positional_parameter_base@_WV?$stream_output_adapter@_W@__crt_stdio_output@@@__crt_stdio_output@@IEAA_NAEA_J@Z 000000018027ff24 f i libucrt:output.obj
 0001:0027f074       ??$extract_argument_from_va_list@F_J@?$positional_parameter_base@_WV?$string_output_adapter@_W@__crt_stdio_output@@@__crt_stdio_output@@IEAA_NAEA_J@Z 0000000180280074 f i libucrt:output.obj
 0001:0027f1c4       ??$extract_argument_from_va_list@F_J@?$standard_base@DV?$stream_output_adapter@D@__crt_stdio_output@@@__crt_stdio_output@@IEAA_NAEA_J@Z 00000001802801c4 f i libucrt:output.obj
 0001:0027f1e0       ??$extract_argument_from_va_list@F_J@?$standard_base@DV?$string_output_adapter@D@__crt_stdio_output@@@__crt_stdio_output@@IEAA_NAEA_J@Z 00000001802801e0 f i libucrt:output.obj
 0001:0027f1fc       ??$extract_argument_from_va_list@F_J@?$standard_base@_WV?$stream_output_adapter@_W@__crt_stdio_output@@@__crt_stdio_output@@IEAA_NAEA_J@Z 00000001802801fc f i libucrt:output.obj
 0001:0027f218       ??$extract_argument_from_va_list@F_J@?$standard_base@_WV?$string_output_adapter@_W@__crt_stdio_output@@@__crt_stdio_output@@IEAA_NAEA_J@Z 0000000180280218 f i libucrt:output.obj
 0001:0027f234       ??$extract_argument_from_va_list@GD@?$positional_parameter_base@DV?$stream_output_adapter@D@__crt_stdio_output@@@__crt_stdio_output@@IEAA_NAEAD@Z 0000000180280234 f i libucrt:output.obj
 0001:0027f37c       ??$extract_argument_from_va_list@GD@?$positional_parameter_base@DV?$string_output_adapter@D@__crt_stdio_output@@@__crt_stdio_output@@IEAA_NAEAD@Z 000000018028037c f i libucrt:output.obj
 0001:0027f4c4       ??$extract_argument_from_va_list@GD@?$standard_base@DV?$stream_output_adapter@D@__crt_stdio_output@@@__crt_stdio_output@@IEAA_NAEAD@Z 00000001802804c4 f i libucrt:output.obj
 0001:0027f4e0       ??$extract_argument_from_va_list@GD@?$standard_base@DV?$string_output_adapter@D@__crt_stdio_output@@@__crt_stdio_output@@IEAA_NAEAD@Z 00000001802804e0 f i libucrt:output.obj
 0001:0027f4fc       ??$extract_argument_from_va_list@G_J@?$positional_parameter_base@DV?$stream_output_adapter@D@__crt_stdio_output@@@__crt_stdio_output@@IEAA_NAEA_J@Z 00000001802804fc f i libucrt:output.obj
 0001:0027f648       ??$extract_argument_from_va_list@G_J@?$positional_parameter_base@DV?$string_output_adapter@D@__crt_stdio_output@@@__crt_stdio_output@@IEAA_NAEA_J@Z 0000000180280648 f i libucrt:output.obj
 0001:0027f794       ??$extract_argument_from_va_list@G_J@?$positional_parameter_base@_WV?$stream_output_adapter@_W@__crt_stdio_output@@@__crt_stdio_output@@IEAA_NAEA_J@Z 0000000180280794 f i libucrt:output.obj
 0001:0027f8e0       ??$extract_argument_from_va_list@G_J@?$positional_parameter_base@_WV?$string_output_adapter@_W@__crt_stdio_output@@@__crt_stdio_output@@IEAA_NAEA_J@Z 00000001802808e0 f i libucrt:output.obj
 0001:0027fa2c       ??$extract_argument_from_va_list@G_J@?$standard_base@DV?$stream_output_adapter@D@__crt_stdio_output@@@__crt_stdio_output@@IEAA_NAEA_J@Z 0000000180280a2c f i libucrt:output.obj
 0001:0027fa48       ??$extract_argument_from_va_list@G_J@?$standard_base@DV?$string_output_adapter@D@__crt_stdio_output@@@__crt_stdio_output@@IEAA_NAEA_J@Z 0000000180280a48 f i libucrt:output.obj
 0001:0027fa64       ??$extract_argument_from_va_list@G_J@?$standard_base@_WV?$stream_output_adapter@_W@__crt_stdio_output@@@__crt_stdio_output@@IEAA_NAEA_J@Z 0000000180280a64 f i libucrt:output.obj
 0001:0027fa80       ??$extract_argument_from_va_list@G_J@?$standard_base@_WV?$string_output_adapter@_W@__crt_stdio_output@@@__crt_stdio_output@@IEAA_NAEA_J@Z 0000000180280a80 f i libucrt:output.obj
 0001:0027fa9c       ??$extract_argument_from_va_list@H_J@?$positional_parameter_base@DV?$stream_output_adapter@D@__crt_stdio_output@@@__crt_stdio_output@@IEAA_NAEA_J@Z 0000000180280a9c f i libucrt:output.obj
 0001:0027fbe4       ??$extract_argument_from_va_list@H_J@?$positional_parameter_base@DV?$string_output_adapter@D@__crt_stdio_output@@@__crt_stdio_output@@IEAA_NAEA_J@Z 0000000180280be4 f i libucrt:output.obj
 0001:0027fd2c       ??$extract_argument_from_va_list@H_J@?$positional_parameter_base@_WV?$stream_output_adapter@_W@__crt_stdio_output@@@__crt_stdio_output@@IEAA_NAEA_J@Z 0000000180280d2c f i libucrt:output.obj
 0001:0027fe78       ??$extract_argument_from_va_list@H_J@?$positional_parameter_base@_WV?$string_output_adapter@_W@__crt_stdio_output@@@__crt_stdio_output@@IEAA_NAEA_J@Z 0000000180280e78 f i libucrt:output.obj
 0001:0027ffc4       ??$extract_argument_from_va_list@H_J@?$standard_base@DV?$stream_output_adapter@D@__crt_stdio_output@@@__crt_stdio_output@@IEAA_NAEA_J@Z 0000000180280fc4 f i libucrt:output.obj
 0001:0027ffe0       ??$extract_argument_from_va_list@H_J@?$standard_base@DV?$string_output_adapter@D@__crt_stdio_output@@@__crt_stdio_output@@IEAA_NAEA_J@Z 0000000180280fe0 f i libucrt:output.obj
 0001:0027fffc       ??$extract_argument_from_va_list@H_J@?$standard_base@_WV?$stream_output_adapter@_W@__crt_stdio_output@@@__crt_stdio_output@@IEAA_NAEA_J@Z 0000000180280ffc f i libucrt:output.obj
 0001:00280018       ??$extract_argument_from_va_list@H_J@?$standard_base@_WV?$string_output_adapter@_W@__crt_stdio_output@@@__crt_stdio_output@@IEAA_NAEA_J@Z 0000000180281018 f i libucrt:output.obj
 0001:00280034       ??$extract_argument_from_va_list@I_J@?$positional_parameter_base@DV?$stream_output_adapter@D@__crt_stdio_output@@@__crt_stdio_output@@IEAA_NAEA_J@Z 0000000180281034 f i libucrt:output.obj
 0001:0028017c       ??$extract_argument_from_va_list@I_J@?$positional_parameter_base@DV?$string_output_adapter@D@__crt_stdio_output@@@__crt_stdio_output@@IEAA_NAEA_J@Z 000000018028117c f i libucrt:output.obj
 0001:002802c4       ??$extract_argument_from_va_list@I_J@?$positional_parameter_base@_WV?$stream_output_adapter@_W@__crt_stdio_output@@@__crt_stdio_output@@IEAA_NAEA_J@Z 00000001802812c4 f i libucrt:output.obj
 0001:00280410       ??$extract_argument_from_va_list@I_J@?$positional_parameter_base@_WV?$string_output_adapter@_W@__crt_stdio_output@@@__crt_stdio_output@@IEAA_NAEA_J@Z 0000000180281410 f i libucrt:output.obj
 0001:0028055c       ??$extract_argument_from_va_list@I_J@?$standard_base@DV?$stream_output_adapter@D@__crt_stdio_output@@@__crt_stdio_output@@IEAA_NAEA_J@Z 000000018028155c f i libucrt:output.obj
 0001:00280578       ??$extract_argument_from_va_list@I_J@?$standard_base@DV?$string_output_adapter@D@__crt_stdio_output@@@__crt_stdio_output@@IEAA_NAEA_J@Z 0000000180281578 f i libucrt:output.obj
 0001:00280594       ??$extract_argument_from_va_list@I_J@?$standard_base@_WV?$stream_output_adapter@_W@__crt_stdio_output@@@__crt_stdio_output@@IEAA_NAEA_J@Z 0000000180281594 f i libucrt:output.obj
 0001:002805b0       ??$extract_argument_from_va_list@I_J@?$standard_base@_WV?$string_output_adapter@_W@__crt_stdio_output@@@__crt_stdio_output@@IEAA_NAEA_J@Z 00000001802815b0 f i libucrt:output.obj
 0001:002805cc       ??$extract_argument_from_va_list@PEADPEAD@?$positional_parameter_base@DV?$stream_output_adapter@D@__crt_stdio_output@@@__crt_stdio_output@@IEAA_NAEAPEAD@Z 00000001802815cc f i libucrt:output.obj
 0001:00280714       ??$extract_argument_from_va_list@PEADPEAD@?$positional_parameter_base@DV?$string_output_adapter@D@__crt_stdio_output@@@__crt_stdio_output@@IEAA_NAEAPEAD@Z 0000000180281714 f i libucrt:output.obj
 0001:0028085c       ??$extract_argument_from_va_list@PEADPEAD@?$positional_parameter_base@_WV?$stream_output_adapter@_W@__crt_stdio_output@@@__crt_stdio_output@@IEAA_NAEAPEAD@Z 000000018028185c f i libucrt:output.obj
 0001:002809a8       ??$extract_argument_from_va_list@PEADPEAD@?$positional_parameter_base@_WV?$string_output_adapter@_W@__crt_stdio_output@@@__crt_stdio_output@@IEAA_NAEAPEAD@Z 00000001802819a8 f i libucrt:output.obj
 0001:00280af4       ??$extract_argument_from_va_list@PEADPEAD@?$standard_base@DV?$stream_output_adapter@D@__crt_stdio_output@@@__crt_stdio_output@@IEAA_NAEAPEAD@Z 0000000180281af4 f i libucrt:output.obj
 0001:00280b10       ??$extract_argument_from_va_list@PEADPEAD@?$standard_base@DV?$string_output_adapter@D@__crt_stdio_output@@@__crt_stdio_output@@IEAA_NAEAPEAD@Z 0000000180281b10 f i libucrt:output.obj
 0001:00280b2c       ??$extract_argument_from_va_list@PEADPEAD@?$standard_base@_WV?$stream_output_adapter@_W@__crt_stdio_output@@@__crt_stdio_output@@IEAA_NAEAPEAD@Z 0000000180281b2c f i libucrt:output.obj
 0001:00280b48       ??$extract_argument_from_va_list@PEADPEAD@?$standard_base@_WV?$string_output_adapter@_W@__crt_stdio_output@@@__crt_stdio_output@@IEAA_NAEAPEAD@Z 0000000180281b48 f i libucrt:output.obj
 0001:00280b64       ??$extract_argument_from_va_list@PEAUansi_string@?1??type_case_Z@?$output_processor@DV?$stream_output_adapter@D@__crt_stdio_output@@V?$format_validation_base@DV?$stream_output_adapter@D@__crt_stdio_output@@@2@@__crt_stdio_output@@AEAA_NXZ@PEAU1?1??234@AEAA_NXZ@@?$standard_base@DV?$stream_output_adapter@D@__crt_stdio_output@@@__crt_stdio_output@@IEAA_NAEAPEAUansi_string@?1??type_case_Z@?$output_processor@DV?$stream_output_adapter@D@__crt_stdio_output@@V?$format_validation_base@DV?$stream_output_adapter@D@__crt_stdio_output@@@2@@1@AEAA_NXZ@@Z 0000000180281b64 f i libucrt:output.obj
 0001:00280b80       ??$extract_argument_from_va_list@PEAUansi_string@?1??type_case_Z@?$output_processor@DV?$stream_output_adapter@D@__crt_stdio_output@@V?$positional_parameter_base@DV?$stream_output_adapter@D@__crt_stdio_output@@@2@@__crt_stdio_output@@AEAA_NXZ@PEAU1?1??234@AEAA_NXZ@@?$positional_parameter_base@DV?$stream_output_adapter@D@__crt_stdio_output@@@__crt_stdio_output@@IEAA_NAEAPEAUansi_string@?1??type_case_Z@?$output_processor@DV?$stream_output_adapter@D@__crt_stdio_output@@V?$positional_parameter_base@DV?$stream_output_adapter@D@__crt_stdio_output@@@2@@1@AEAA_NXZ@@Z 0000000180281b80 f i libucrt:output.obj
 0001:00280cc8       ??$extract_argument_from_va_list@PEAUansi_string@?1??type_case_Z@?$output_processor@DV?$stream_output_adapter@D@__crt_stdio_output@@V?$positional_parameter_base@DV?$stream_output_adapter@D@__crt_stdio_output@@@2@@__crt_stdio_output@@AEAA_NXZ@PEAU1?1??234@AEAA_NXZ@@?$standard_base@DV?$stream_output_adapter@D@__crt_stdio_output@@@__crt_stdio_output@@IEAA_NAEAPEAUansi_string@?1??type_case_Z@?$output_processor@DV?$stream_output_adapter@D@__crt_stdio_output@@V?$positional_parameter_base@DV?$stream_output_adapter@D@__crt_stdio_output@@@2@@1@AEAA_NXZ@@Z 0000000180281cc8 f i libucrt:output.obj
 0001:00280ce4       ??$extract_argument_from_va_list@PEAUansi_string@?1??type_case_Z@?$output_processor@DV?$stream_output_adapter@D@__crt_stdio_output@@V?$standard_base@DV?$stream_output_adapter@D@__crt_stdio_output@@@2@@__crt_stdio_output@@AEAA_NXZ@PEAU1?1??234@AEAA_NXZ@@?$standard_base@DV?$stream_output_adapter@D@__crt_stdio_output@@@__crt_stdio_output@@IEAA_NAEAPEAUansi_string@?1??type_case_Z@?$output_processor@DV?$stream_output_adapter@D@__crt_stdio_output@@V?$standard_base@DV?$stream_output_adapter@D@__crt_stdio_output@@@2@@1@AEAA_NXZ@@Z 0000000180281ce4 f i libucrt:output.obj
 0001:00280d00       ??$extract_argument_from_va_list@PEAUansi_string@?1??type_case_Z@?$output_processor@DV?$string_output_adapter@D@__crt_stdio_output@@V?$format_validation_base@DV?$string_output_adapter@D@__crt_stdio_output@@@2@@__crt_stdio_output@@AEAA_NXZ@PEAU1?1??234@AEAA_NXZ@@?$standard_base@DV?$string_output_adapter@D@__crt_stdio_output@@@__crt_stdio_output@@IEAA_NAEAPEAUansi_string@?1??type_case_Z@?$output_processor@DV?$string_output_adapter@D@__crt_stdio_output@@V?$format_validation_base@DV?$string_output_adapter@D@__crt_stdio_output@@@2@@1@AEAA_NXZ@@Z 0000000180281d00 f i libucrt:output.obj
 0001:00280d1c       ??$extract_argument_from_va_list@PEAUansi_string@?1??type_case_Z@?$output_processor@DV?$string_output_adapter@D@__crt_stdio_output@@V?$positional_parameter_base@DV?$string_output_adapter@D@__crt_stdio_output@@@2@@__crt_stdio_output@@AEAA_NXZ@PEAU1?1??234@AEAA_NXZ@@?$positional_parameter_base@DV?$string_output_adapter@D@__crt_stdio_output@@@__crt_stdio_output@@IEAA_NAEAPEAUansi_string@?1??type_case_Z@?$output_processor@DV?$string_output_adapter@D@__crt_stdio_output@@V?$positional_parameter_base@DV?$string_output_adapter@D@__crt_stdio_output@@@2@@1@AEAA_NXZ@@Z 0000000180281d1c f i libucrt:output.obj
 0001:00280e64       ??$extract_argument_from_va_list@PEAUansi_string@?1??type_case_Z@?$output_processor@DV?$string_output_adapter@D@__crt_stdio_output@@V?$positional_parameter_base@DV?$string_output_adapter@D@__crt_stdio_output@@@2@@__crt_stdio_output@@AEAA_NXZ@PEAU1?1??234@AEAA_NXZ@@?$standard_base@DV?$string_output_adapter@D@__crt_stdio_output@@@__crt_stdio_output@@IEAA_NAEAPEAUansi_string@?1??type_case_Z@?$output_processor@DV?$string_output_adapter@D@__crt_stdio_output@@V?$positional_parameter_base@DV?$string_output_adapter@D@__crt_stdio_output@@@2@@1@AEAA_NXZ@@Z 0000000180281e64 f i libucrt:output.obj
 0001:00280e80       ??$extract_argument_from_va_list@PEAUansi_string@?1??type_case_Z@?$output_processor@DV?$string_output_adapter@D@__crt_stdio_output@@V?$standard_base@DV?$string_output_adapter@D@__crt_stdio_output@@@2@@__crt_stdio_output@@AEAA_NXZ@PEAU1?1??234@AEAA_NXZ@@?$standard_base@DV?$string_output_adapter@D@__crt_stdio_output@@@__crt_stdio_output@@IEAA_NAEAPEAUansi_string@?1??type_case_Z@?$output_processor@DV?$string_output_adapter@D@__crt_stdio_output@@V?$standard_base@DV?$string_output_adapter@D@__crt_stdio_output@@@2@@1@AEAA_NXZ@@Z 0000000180281e80 f i libucrt:output.obj
 0001:00280e9c       ??$extract_argument_from_va_list@PEAUansi_string@?1??type_case_Z@?$output_processor@_WV?$stream_output_adapter@_W@__crt_stdio_output@@V?$format_validation_base@_WV?$stream_output_adapter@_W@__crt_stdio_output@@@2@@__crt_stdio_output@@AEAA_NXZ@PEAU1?1??234@AEAA_NXZ@@?$standard_base@_WV?$stream_output_adapter@_W@__crt_stdio_output@@@__crt_stdio_output@@IEAA_NAEAPEAUansi_string@?1??type_case_Z@?$output_processor@_WV?$stream_output_adapter@_W@__crt_stdio_output@@V?$format_validation_base@_WV?$stream_output_adapter@_W@__crt_stdio_output@@@2@@1@AEAA_NXZ@@Z 0000000180281e9c f i libucrt:output.obj
 0001:00280eb8       ??$extract_argument_from_va_list@PEAUansi_string@?1??type_case_Z@?$output_processor@_WV?$stream_output_adapter@_W@__crt_stdio_output@@V?$positional_parameter_base@_WV?$stream_output_adapter@_W@__crt_stdio_output@@@2@@__crt_stdio_output@@AEAA_NXZ@PEAU1?1??234@AEAA_NXZ@@?$positional_parameter_base@_WV?$stream_output_adapter@_W@__crt_stdio_output@@@__crt_stdio_output@@IEAA_NAEAPEAUansi_string@?1??type_case_Z@?$output_processor@_WV?$stream_output_adapter@_W@__crt_stdio_output@@V?$positional_parameter_base@_WV?$stream_output_adapter@_W@__crt_stdio_output@@@2@@1@AEAA_NXZ@@Z 0000000180281eb8 f i libucrt:output.obj
 0001:00281004       ??$extract_argument_from_va_list@PEAUansi_string@?1??type_case_Z@?$output_processor@_WV?$stream_output_adapter@_W@__crt_stdio_output@@V?$positional_parameter_base@_WV?$stream_output_adapter@_W@__crt_stdio_output@@@2@@__crt_stdio_output@@AEAA_NXZ@PEAU1?1??234@AEAA_NXZ@@?$standard_base@_WV?$stream_output_adapter@_W@__crt_stdio_output@@@__crt_stdio_output@@IEAA_NAEAPEAUansi_string@?1??type_case_Z@?$output_processor@_WV?$stream_output_adapter@_W@__crt_stdio_output@@V?$positional_parameter_base@_WV?$stream_output_adapter@_W@__crt_stdio_output@@@2@@1@AEAA_NXZ@@Z 0000000180282004 f i libucrt:output.obj
 0001:00281020       ??$extract_argument_from_va_list@PEAUansi_string@?1??type_case_Z@?$output_processor@_WV?$stream_output_adapter@_W@__crt_stdio_output@@V?$standard_base@_WV?$stream_output_adapter@_W@__crt_stdio_output@@@2@@__crt_stdio_output@@AEAA_NXZ@PEAU1?1??234@AEAA_NXZ@@?$standard_base@_WV?$stream_output_adapter@_W@__crt_stdio_output@@@__crt_stdio_output@@IEAA_NAEAPEAUansi_string@?1??type_case_Z@?$output_processor@_WV?$stream_output_adapter@_W@__crt_stdio_output@@V?$standard_base@_WV?$stream_output_adapter@_W@__crt_stdio_output@@@2@@1@AEAA_NXZ@@Z 0000000180282020 f i libucrt:output.obj
 0001:0028103c       ??$extract_argument_from_va_list@PEAUansi_string@?1??type_case_Z@?$output_processor@_WV?$string_output_adapter@_W@__crt_stdio_output@@V?$format_validation_base@_WV?$string_output_adapter@_W@__crt_stdio_output@@@2@@__crt_stdio_output@@AEAA_NXZ@PEAU1?1??234@AEAA_NXZ@@?$standard_base@_WV?$string_output_adapter@_W@__crt_stdio_output@@@__crt_stdio_output@@IEAA_NAEAPEAUansi_string@?1??type_case_Z@?$output_processor@_WV?$string_output_adapter@_W@__crt_stdio_output@@V?$format_validation_base@_WV?$string_output_adapter@_W@__crt_stdio_output@@@2@@1@AEAA_NXZ@@Z 000000018028203c f i libucrt:output.obj
 0001:00281058       ??$extract_argument_from_va_list@PEAUansi_string@?1??type_case_Z@?$output_processor@_WV?$string_output_adapter@_W@__crt_stdio_output@@V?$positional_parameter_base@_WV?$string_output_adapter@_W@__crt_stdio_output@@@2@@__crt_stdio_output@@AEAA_NXZ@PEAU1?1??234@AEAA_NXZ@@?$positional_parameter_base@_WV?$string_output_adapter@_W@__crt_stdio_output@@@__crt_stdio_output@@IEAA_NAEAPEAUansi_string@?1??type_case_Z@?$output_processor@_WV?$string_output_adapter@_W@__crt_stdio_output@@V?$positional_parameter_base@_WV?$string_output_adapter@_W@__crt_stdio_output@@@2@@1@AEAA_NXZ@@Z 0000000180282058 f i libucrt:output.obj
 0001:002811a4       ??$extract_argument_from_va_list@PEAUansi_string@?1??type_case_Z@?$output_processor@_WV?$string_output_adapter@_W@__crt_stdio_output@@V?$positional_parameter_base@_WV?$string_output_adapter@_W@__crt_stdio_output@@@2@@__crt_stdio_output@@AEAA_NXZ@PEAU1?1??234@AEAA_NXZ@@?$standard_base@_WV?$string_output_adapter@_W@__crt_stdio_output@@@__crt_stdio_output@@IEAA_NAEAPEAUansi_string@?1??type_case_Z@?$output_processor@_WV?$string_output_adapter@_W@__crt_stdio_output@@V?$positional_parameter_base@_WV?$string_output_adapter@_W@__crt_stdio_output@@@2@@1@AEAA_NXZ@@Z 00000001802821a4 f i libucrt:output.obj
 0001:002811c0       ??$extract_argument_from_va_list@PEAUansi_string@?1??type_case_Z@?$output_processor@_WV?$string_output_adapter@_W@__crt_stdio_output@@V?$standard_base@_WV?$string_output_adapter@_W@__crt_stdio_output@@@2@@__crt_stdio_output@@AEAA_NXZ@PEAU1?1??234@AEAA_NXZ@@?$standard_base@_WV?$string_output_adapter@_W@__crt_stdio_output@@@__crt_stdio_output@@IEAA_NAEAPEAUansi_string@?1??type_case_Z@?$output_processor@_WV?$string_output_adapter@_W@__crt_stdio_output@@V?$standard_base@_WV?$string_output_adapter@_W@__crt_stdio_output@@@2@@1@AEAA_NXZ@@Z 00000001802821c0 f i libucrt:output.obj
 0001:002811dc       ??$extract_argument_from_va_list@PEAXPEAX@?$positional_parameter_base@DV?$stream_output_adapter@D@__crt_stdio_output@@@__crt_stdio_output@@IEAA_NAEAPEAX@Z 00000001802821dc f i libucrt:output.obj
 0001:00281324       ??$extract_argument_from_va_list@PEAXPEAX@?$positional_parameter_base@DV?$string_output_adapter@D@__crt_stdio_output@@@__crt_stdio_output@@IEAA_NAEAPEAX@Z 0000000180282324 f i libucrt:output.obj
 0001:0028146c       ??$extract_argument_from_va_list@PEAXPEAX@?$positional_parameter_base@_WV?$stream_output_adapter@_W@__crt_stdio_output@@@__crt_stdio_output@@IEAA_NAEAPEAX@Z 000000018028246c f i libucrt:output.obj
 0001:002815b8       ??$extract_argument_from_va_list@PEAXPEAX@?$positional_parameter_base@_WV?$string_output_adapter@_W@__crt_stdio_output@@@__crt_stdio_output@@IEAA_NAEAPEAX@Z 00000001802825b8 f i libucrt:output.obj
 0001:00281704       ??$extract_argument_from_va_list@PEAXPEAX@?$standard_base@DV?$stream_output_adapter@D@__crt_stdio_output@@@__crt_stdio_output@@IEAA_NAEAPEAX@Z 0000000180282704 f i libucrt:output.obj
 0001:00281720       ??$extract_argument_from_va_list@PEAXPEAX@?$standard_base@DV?$string_output_adapter@D@__crt_stdio_output@@@__crt_stdio_output@@IEAA_NAEAPEAX@Z 0000000180282720 f i libucrt:output.obj
 0001:0028173c       ??$extract_argument_from_va_list@PEAXPEAX@?$standard_base@_WV?$stream_output_adapter@_W@__crt_stdio_output@@@__crt_stdio_output@@IEAA_NAEAPEAX@Z 000000018028273c f i libucrt:output.obj
 0001:00281758       ??$extract_argument_from_va_list@PEAXPEAX@?$standard_base@_WV?$string_output_adapter@_W@__crt_stdio_output@@@__crt_stdio_output@@IEAA_NAEAPEAX@Z 0000000180282758 f i libucrt:output.obj
 0001:00281774       ??$extract_argument_from_va_list@U_CRT_DOUBLE@@U1@@?$positional_parameter_base@DV?$stream_output_adapter@D@__crt_stdio_output@@@__crt_stdio_output@@IEAA_NAEAU_CRT_DOUBLE@@@Z 0000000180282774 f i libucrt:output.obj
 0001:002818c0       ??$extract_argument_from_va_list@U_CRT_DOUBLE@@U1@@?$positional_parameter_base@DV?$string_output_adapter@D@__crt_stdio_output@@@__crt_stdio_output@@IEAA_NAEAU_CRT_DOUBLE@@@Z 00000001802828c0 f i libucrt:output.obj
 0001:00281a0c       ??$extract_argument_from_va_list@U_CRT_DOUBLE@@U1@@?$positional_parameter_base@_WV?$stream_output_adapter@_W@__crt_stdio_output@@@__crt_stdio_output@@IEAA_NAEAU_CRT_DOUBLE@@@Z 0000000180282a0c f i libucrt:output.obj
 0001:00281b58       ??$extract_argument_from_va_list@U_CRT_DOUBLE@@U1@@?$positional_parameter_base@_WV?$string_output_adapter@_W@__crt_stdio_output@@@__crt_stdio_output@@IEAA_NAEAU_CRT_DOUBLE@@@Z 0000000180282b58 f i libucrt:output.obj
 0001:00281ca4       ??$extract_argument_from_va_list@U_CRT_DOUBLE@@U1@@?$standard_base@DV?$stream_output_adapter@D@__crt_stdio_output@@@__crt_stdio_output@@IEAA_NAEAU_CRT_DOUBLE@@@Z 0000000180282ca4 f i libucrt:output.obj
 0001:00281cc4       ??$extract_argument_from_va_list@U_CRT_DOUBLE@@U1@@?$standard_base@DV?$string_output_adapter@D@__crt_stdio_output@@@__crt_stdio_output@@IEAA_NAEAU_CRT_DOUBLE@@@Z 0000000180282cc4 f i libucrt:output.obj
 0001:00281ce4       ??$extract_argument_from_va_list@U_CRT_DOUBLE@@U1@@?$standard_base@_WV?$stream_output_adapter@_W@__crt_stdio_output@@@__crt_stdio_output@@IEAA_NAEAU_CRT_DOUBLE@@@Z 0000000180282ce4 f i libucrt:output.obj
 0001:00281d04       ??$extract_argument_from_va_list@U_CRT_DOUBLE@@U1@@?$standard_base@_WV?$string_output_adapter@_W@__crt_stdio_output@@@__crt_stdio_output@@IEAA_NAEAU_CRT_DOUBLE@@@Z 0000000180282d04 f i libucrt:output.obj
 0001:00281d24       ??$extract_argument_from_va_list@_J_J@?$positional_parameter_base@DV?$stream_output_adapter@D@__crt_stdio_output@@@__crt_stdio_output@@IEAA_NAEA_J@Z 0000000180282d24 f i libucrt:output.obj
 0001:00281e6c       ??$extract_argument_from_va_list@_J_J@?$positional_parameter_base@DV?$string_output_adapter@D@__crt_stdio_output@@@__crt_stdio_output@@IEAA_NAEA_J@Z 0000000180282e6c f i libucrt:output.obj
 0001:00281fb4       ??$extract_argument_from_va_list@_J_J@?$positional_parameter_base@_WV?$stream_output_adapter@_W@__crt_stdio_output@@@__crt_stdio_output@@IEAA_NAEA_J@Z 0000000180282fb4 f i libucrt:output.obj
 0001:00282100       ??$extract_argument_from_va_list@_J_J@?$positional_parameter_base@_WV?$string_output_adapter@_W@__crt_stdio_output@@@__crt_stdio_output@@IEAA_NAEA_J@Z 0000000180283100 f i libucrt:output.obj
 0001:0028224c       ??$extract_argument_from_va_list@_J_J@?$standard_base@DV?$stream_output_adapter@D@__crt_stdio_output@@@__crt_stdio_output@@IEAA_NAEA_J@Z 000000018028324c f i libucrt:output.obj
 0001:00282268       ??$extract_argument_from_va_list@_J_J@?$standard_base@DV?$string_output_adapter@D@__crt_stdio_output@@@__crt_stdio_output@@IEAA_NAEA_J@Z 0000000180283268 f i libucrt:output.obj
 0001:00282284       ??$extract_argument_from_va_list@_J_J@?$standard_base@_WV?$stream_output_adapter@_W@__crt_stdio_output@@@__crt_stdio_output@@IEAA_NAEA_J@Z 0000000180283284 f i libucrt:output.obj
 0001:002822a0       ??$extract_argument_from_va_list@_J_J@?$standard_base@_WV?$string_output_adapter@_W@__crt_stdio_output@@@__crt_stdio_output@@IEAA_NAEA_J@Z 00000001802832a0 f i libucrt:output.obj
 0001:002822bc       ??$extract_argument_from_va_list@_K_J@?$positional_parameter_base@DV?$stream_output_adapter@D@__crt_stdio_output@@@__crt_stdio_output@@IEAA_NAEA_J@Z 00000001802832bc f i libucrt:output.obj
 0001:00282404       ??$extract_argument_from_va_list@_K_J@?$positional_parameter_base@DV?$string_output_adapter@D@__crt_stdio_output@@@__crt_stdio_output@@IEAA_NAEA_J@Z 0000000180283404 f i libucrt:output.obj
 0001:0028254c       ??$extract_argument_from_va_list@_K_J@?$positional_parameter_base@_WV?$stream_output_adapter@_W@__crt_stdio_output@@@__crt_stdio_output@@IEAA_NAEA_J@Z 000000018028354c f i libucrt:output.obj
 0001:00282698       ??$extract_argument_from_va_list@_K_J@?$positional_parameter_base@_WV?$string_output_adapter@_W@__crt_stdio_output@@@__crt_stdio_output@@IEAA_NAEA_J@Z 0000000180283698 f i libucrt:output.obj
 0001:002827e4       ??$extract_argument_from_va_list@_K_J@?$standard_base@DV?$stream_output_adapter@D@__crt_stdio_output@@@__crt_stdio_output@@IEAA_NAEA_J@Z 00000001802837e4 f i libucrt:output.obj
 0001:00282800       ??$extract_argument_from_va_list@_K_J@?$standard_base@DV?$string_output_adapter@D@__crt_stdio_output@@@__crt_stdio_output@@IEAA_NAEA_J@Z 0000000180283800 f i libucrt:output.obj
 0001:0028281c       ??$extract_argument_from_va_list@_K_J@?$standard_base@_WV?$stream_output_adapter@_W@__crt_stdio_output@@@__crt_stdio_output@@IEAA_NAEA_J@Z 000000018028381c f i libucrt:output.obj
 0001:00282838       ??$extract_argument_from_va_list@_K_J@?$standard_base@_WV?$string_output_adapter@_W@__crt_stdio_output@@@__crt_stdio_output@@IEAA_NAEA_J@Z 0000000180283838 f i libucrt:output.obj
 0001:00282854       ??$extract_argument_from_va_list@_W_W@?$positional_parameter_base@DV?$stream_output_adapter@D@__crt_stdio_output@@@__crt_stdio_output@@IEAA_NAEA_W@Z 0000000180283854 f i libucrt:output.obj
 0001:002829a0       ??$extract_argument_from_va_list@_W_W@?$positional_parameter_base@DV?$string_output_adapter@D@__crt_stdio_output@@@__crt_stdio_output@@IEAA_NAEA_W@Z 00000001802839a0 f i libucrt:output.obj
 0001:00282aec       ??$extract_argument_from_va_list@_W_W@?$positional_parameter_base@_WV?$stream_output_adapter@_W@__crt_stdio_output@@@__crt_stdio_output@@IEAA_NAEA_W@Z 0000000180283aec f i libucrt:output.obj
 0001:00282c38       ??$extract_argument_from_va_list@_W_W@?$positional_parameter_base@_WV?$string_output_adapter@_W@__crt_stdio_output@@@__crt_stdio_output@@IEAA_NAEA_W@Z 0000000180283c38 f i libucrt:output.obj
 0001:00282d84       ??$extract_argument_from_va_list@_W_W@?$standard_base@DV?$stream_output_adapter@D@__crt_stdio_output@@@__crt_stdio_output@@IEAA_NAEA_W@Z 0000000180283d84 f i libucrt:output.obj
 0001:00282da0       ??$extract_argument_from_va_list@_W_W@?$standard_base@DV?$string_output_adapter@D@__crt_stdio_output@@@__crt_stdio_output@@IEAA_NAEA_W@Z 0000000180283da0 f i libucrt:output.obj
 0001:00282dbc       ??$extract_argument_from_va_list@_W_W@?$standard_base@_WV?$stream_output_adapter@_W@__crt_stdio_output@@@__crt_stdio_output@@IEAA_NAEA_W@Z 0000000180283dbc f i libucrt:output.obj
 0001:00282dd8       ??$extract_argument_from_va_list@_W_W@?$standard_base@_WV?$string_output_adapter@_W@__crt_stdio_output@@@__crt_stdio_output@@IEAA_NAEA_W@Z 0000000180283dd8 f i libucrt:output.obj
 0001:00282df4       ??$get_parameter_type@D@?$positional_parameter_base@DV?$stream_output_adapter@D@__crt_stdio_output@@@__crt_stdio_output@@CA?AW4parameter_type@01@PEAD@Z 0000000180283df4 f i libucrt:output.obj
 0001:00282dfc       ??$get_parameter_type@D@?$positional_parameter_base@DV?$string_output_adapter@D@__crt_stdio_output@@@__crt_stdio_output@@CA?AW4parameter_type@01@PEAD@Z 0000000180283dfc f i libucrt:output.obj
 0001:00282e04       ??$get_parameter_type@D@?$positional_parameter_base@_WV?$stream_output_adapter@_W@__crt_stdio_output@@@__crt_stdio_output@@CA?AW4parameter_type@01@PEAD@Z 0000000180283e04 f i libucrt:output.obj
 0001:00282e0c       ??$get_parameter_type@D@?$positional_parameter_base@_WV?$string_output_adapter@_W@__crt_stdio_output@@@__crt_stdio_output@@CA?AW4parameter_type@01@PEAD@Z 0000000180283e0c f i libucrt:output.obj
 0001:00282e14       ??$get_parameter_type@Uansi_string@?1??type_case_Z@?$output_processor@DV?$stream_output_adapter@D@__crt_stdio_output@@V?$positional_parameter_base@DV?$stream_output_adapter@D@__crt_stdio_output@@@2@@__crt_stdio_output@@AEAA_NXZ@@?$positional_parameter_base@DV?$stream_output_adapter@D@__crt_stdio_output@@@__crt_stdio_output@@CA?AW4parameter_type@01@PEAUansi_string@?1??type_case_Z@?$output_processor@DV?$stream_output_adapter@D@__crt_stdio_output@@V?$positional_parameter_base@DV?$stream_output_adapter@D@__crt_stdio_output@@@2@@1@AEAA_NXZ@@Z 0000000180283e14 f i libucrt:output.obj
 0001:00282e1c       ??$get_parameter_type@Uansi_string@?1??type_case_Z@?$output_processor@DV?$string_output_adapter@D@__crt_stdio_output@@V?$positional_parameter_base@DV?$string_output_adapter@D@__crt_stdio_output@@@2@@__crt_stdio_output@@AEAA_NXZ@@?$positional_parameter_base@DV?$string_output_adapter@D@__crt_stdio_output@@@__crt_stdio_output@@CA?AW4parameter_type@01@PEAUansi_string@?1??type_case_Z@?$output_processor@DV?$string_output_adapter@D@__crt_stdio_output@@V?$positional_parameter_base@DV?$string_output_adapter@D@__crt_stdio_output@@@2@@1@AEAA_NXZ@@Z 0000000180283e1c f i libucrt:output.obj
 0001:00282e24       ??$get_parameter_type@Uansi_string@?1??type_case_Z@?$output_processor@_WV?$stream_output_adapter@_W@__crt_stdio_output@@V?$positional_parameter_base@_WV?$stream_output_adapter@_W@__crt_stdio_output@@@2@@__crt_stdio_output@@AEAA_NXZ@@?$positional_parameter_base@_WV?$stream_output_adapter@_W@__crt_stdio_output@@@__crt_stdio_output@@CA?AW4parameter_type@01@PEAUansi_string@?1??type_case_Z@?$output_processor@_WV?$stream_output_adapter@_W@__crt_stdio_output@@V?$positional_parameter_base@_WV?$stream_output_adapter@_W@__crt_stdio_output@@@2@@1@AEAA_NXZ@@Z 0000000180283e24 f i libucrt:output.obj
 0001:00282e2c       ??$get_parameter_type@Uansi_string@?1??type_case_Z@?$output_processor@_WV?$string_output_adapter@_W@__crt_stdio_output@@V?$positional_parameter_base@_WV?$string_output_adapter@_W@__crt_stdio_output@@@2@@__crt_stdio_output@@AEAA_NXZ@@?$positional_parameter_base@_WV?$string_output_adapter@_W@__crt_stdio_output@@@__crt_stdio_output@@CA?AW4parameter_type@01@PEAUansi_string@?1??type_case_Z@?$output_processor@_WV?$string_output_adapter@_W@__crt_stdio_output@@V?$positional_parameter_base@_WV?$string_output_adapter@_W@__crt_stdio_output@@@2@@1@AEAA_NXZ@@Z 0000000180283e2c f i libucrt:output.obj
 0001:00282e34       ??$get_parameter_type@X@?$positional_parameter_base@DV?$stream_output_adapter@D@__crt_stdio_output@@@__crt_stdio_output@@CA?AW4parameter_type@01@PEAX@Z 0000000180283e34 f i libucrt:output.obj
 0001:00282e3c       ??$get_parameter_type@X@?$positional_parameter_base@DV?$string_output_adapter@D@__crt_stdio_output@@@__crt_stdio_output@@CA?AW4parameter_type@01@PEAX@Z 0000000180283e3c f i libucrt:output.obj
 0001:00282e44       ??$get_parameter_type@X@?$positional_parameter_base@_WV?$stream_output_adapter@_W@__crt_stdio_output@@@__crt_stdio_output@@CA?AW4parameter_type@01@PEAX@Z 0000000180283e44 f i libucrt:output.obj
 0001:00282e4c       ??$get_parameter_type@X@?$positional_parameter_base@_WV?$string_output_adapter@_W@__crt_stdio_output@@@__crt_stdio_output@@CA?AW4parameter_type@01@PEAX@Z 0000000180283e4c f i libucrt:output.obj
 0001:00282e54       ??$is_character_specifier@D@?$positional_parameter_base@DV?$stream_output_adapter@D@__crt_stdio_output@@@__crt_stdio_output@@CA_ND@Z 0000000180283e54 f i libucrt:output.obj
 0001:00282e60       ??$is_character_specifier@D@?$positional_parameter_base@DV?$string_output_adapter@D@__crt_stdio_output@@@__crt_stdio_output@@CA_ND@Z 0000000180283e60 f i libucrt:output.obj
 0001:00282e6c       ??$is_character_specifier@_W@?$positional_parameter_base@_WV?$stream_output_adapter@_W@__crt_stdio_output@@@__crt_stdio_output@@CA_N_W@Z 0000000180283e6c f i libucrt:output.obj
 0001:00282e80       ??$is_character_specifier@_W@?$positional_parameter_base@_WV?$string_output_adapter@_W@__crt_stdio_output@@@__crt_stdio_output@@CA_N_W@Z 0000000180283e80 f i libucrt:output.obj
 0001:00282e94       ??$is_integral_specifier@D@?$positional_parameter_base@DV?$stream_output_adapter@D@__crt_stdio_output@@@__crt_stdio_output@@CA_ND@Z 0000000180283e94 f i libucrt:output.obj
 0001:00282ec0       ??$is_integral_specifier@D@?$positional_parameter_base@DV?$string_output_adapter@D@__crt_stdio_output@@@__crt_stdio_output@@CA_ND@Z 0000000180283ec0 f i libucrt:output.obj
 0001:00282eec       ??$is_integral_specifier@_W@?$positional_parameter_base@_WV?$stream_output_adapter@_W@__crt_stdio_output@@@__crt_stdio_output@@CA_N_W@Z 0000000180283eec f i libucrt:output.obj
 0001:00282f1c       ??$is_integral_specifier@_W@?$positional_parameter_base@_WV?$string_output_adapter@_W@__crt_stdio_output@@@__crt_stdio_output@@CA_N_W@Z 0000000180283f1c f i libucrt:output.obj
 0001:00282f4c       ??$is_pointer_specifier@D@?$positional_parameter_base@DV?$stream_output_adapter@D@__crt_stdio_output@@@__crt_stdio_output@@CA_ND@Z 0000000180283f4c f i libucrt:output.obj
 0001:00282f54       ??$is_pointer_specifier@D@?$positional_parameter_base@DV?$string_output_adapter@D@__crt_stdio_output@@@__crt_stdio_output@@CA_ND@Z 0000000180283f54 f i libucrt:output.obj
 0001:00282f5c       ??$is_pointer_specifier@_W@?$positional_parameter_base@_WV?$stream_output_adapter@_W@__crt_stdio_output@@@__crt_stdio_output@@CA_N_W@Z 0000000180283f5c f i libucrt:output.obj
 0001:00282f68       ??$is_pointer_specifier@_W@?$positional_parameter_base@_WV?$string_output_adapter@_W@__crt_stdio_output@@@__crt_stdio_output@@CA_N_W@Z 0000000180283f68 f i libucrt:output.obj
 0001:00282f74       ??$is_string_specifier@D@?$positional_parameter_base@DV?$stream_output_adapter@D@__crt_stdio_output@@@__crt_stdio_output@@CA_ND@Z 0000000180283f74 f i libucrt:output.obj
 0001:00282f80       ??$is_string_specifier@D@?$positional_parameter_base@DV?$string_output_adapter@D@__crt_stdio_output@@@__crt_stdio_output@@CA_ND@Z 0000000180283f80 f i libucrt:output.obj
 0001:00282f8c       ??$is_string_specifier@_W@?$positional_parameter_base@_WV?$stream_output_adapter@_W@__crt_stdio_output@@@__crt_stdio_output@@CA_N_W@Z 0000000180283f8c f i libucrt:output.obj
 0001:00282fa0       ??$is_string_specifier@_W@?$positional_parameter_base@_WV?$string_output_adapter@_W@__crt_stdio_output@@@__crt_stdio_output@@CA_N_W@Z 0000000180283fa0 f i libucrt:output.obj
 0001:00282fb4       ??$is_wide_character_specifier@D@__crt_stdio_output@@YA_N_KDW4length_modifier@0@@Z 0000000180283fb4 f i libucrt:output.obj
 0001:00282fe8       ??$is_wide_character_specifier@_W@__crt_stdio_output@@YA_N_K_WW4length_modifier@0@@Z 0000000180283fe8 f i libucrt:output.obj
 0001:00283038       ??$parse_integer@KV?$c_string_character_source@D@__crt_strtox@@$0A@@__crt_strtox@@YAKAEAV__crt_cached_ptd_host@@V?$c_string_character_source@D@0@H_N@Z 0000000180284038 f i libucrt:output.obj
 0001:00283398       ??$parse_integer@KV?$c_string_character_source@_W@__crt_strtox@@$0A@@__crt_strtox@@YAKAEAV__crt_cached_ptd_host@@V?$c_string_character_source@_W@0@H_N@Z 0000000180284398 f i libucrt:output.obj
 0001:00283cec       ??$peek_va_arg@C@__crt_stdio_output@@YACPEAD@Z 0000000180284cec f i libucrt:output.obj
 0001:00283cf0       ??$peek_va_arg@E@__crt_stdio_output@@YAEPEAD@Z 0000000180284cf0 f i libucrt:output.obj
 0001:00283cf4       ??$peek_va_arg@F@__crt_stdio_output@@YAFPEAD@Z 0000000180284cf4 f i libucrt:output.obj
 0001:00283cf8       ??$peek_va_arg@G@__crt_stdio_output@@YAGPEAD@Z 0000000180284cf8 f i libucrt:output.obj
 0001:00283cfc       ??$peek_va_arg@H@__crt_stdio_output@@YAHPEAD@Z 0000000180284cfc f i libucrt:output.obj
 0001:00283d00       ??$peek_va_arg@I@__crt_stdio_output@@YAIPEAD@Z 0000000180284d00 f i libucrt:output.obj
 0001:00283d04       ??$peek_va_arg@PEAD@__crt_stdio_output@@YAPEADPEAD@Z 0000000180284d04 f i libucrt:output.obj
 0001:00283d08       ??$peek_va_arg@PEAUansi_string@?1??type_case_Z@?$output_processor@DV?$stream_output_adapter@D@__crt_stdio_output@@V?$positional_parameter_base@DV?$stream_output_adapter@D@__crt_stdio_output@@@2@@__crt_stdio_output@@AEAA_NXZ@@__crt_stdio_output@@YAPEAUansi_string@?1??type_case_Z@?$output_processor@DV?$stream_output_adapter@D@__crt_stdio_output@@V?$positional_parameter_base@DV?$stream_output_adapter@D@__crt_stdio_output@@@2@@0@AEAA_NXZ@PEAD@Z 0000000180284d08 f i libucrt:output.obj
 0001:00283d0c       ??$peek_va_arg@PEAUansi_string@?1??type_case_Z@?$output_processor@DV?$string_output_adapter@D@__crt_stdio_output@@V?$positional_parameter_base@DV?$string_output_adapter@D@__crt_stdio_output@@@2@@__crt_stdio_output@@AEAA_NXZ@@__crt_stdio_output@@YAPEAUansi_string@?1??type_case_Z@?$output_processor@DV?$string_output_adapter@D@__crt_stdio_output@@V?$positional_parameter_base@DV?$string_output_adapter@D@__crt_stdio_output@@@2@@0@AEAA_NXZ@PEAD@Z 0000000180284d0c f i libucrt:output.obj
 0001:00283d10       ??$peek_va_arg@PEAUansi_string@?1??type_case_Z@?$output_processor@_WV?$stream_output_adapter@_W@__crt_stdio_output@@V?$positional_parameter_base@_WV?$stream_output_adapter@_W@__crt_stdio_output@@@2@@__crt_stdio_output@@AEAA_NXZ@@__crt_stdio_output@@YAPEAUansi_string@?1??type_case_Z@?$output_processor@_WV?$stream_output_adapter@_W@__crt_stdio_output@@V?$positional_parameter_base@_WV?$stream_output_adapter@_W@__crt_stdio_output@@@2@@0@AEAA_NXZ@PEAD@Z 0000000180284d10 f i libucrt:output.obj
 0001:00283d14       ??$peek_va_arg@PEAUansi_string@?1??type_case_Z@?$output_processor@_WV?$string_output_adapter@_W@__crt_stdio_output@@V?$positional_parameter_base@_WV?$string_output_adapter@_W@__crt_stdio_output@@@2@@__crt_stdio_output@@AEAA_NXZ@@__crt_stdio_output@@YAPEAUansi_string@?1??type_case_Z@?$output_processor@_WV?$string_output_adapter@_W@__crt_stdio_output@@V?$positional_parameter_base@_WV?$string_output_adapter@_W@__crt_stdio_output@@@2@@0@AEAA_NXZ@PEAD@Z 0000000180284d14 f i libucrt:output.obj
 0001:00283d18       ??$peek_va_arg@PEAX@__crt_stdio_output@@YAPEAXPEAD@Z 0000000180284d18 f i libucrt:output.obj
 0001:00283d1c       ??$peek_va_arg@U_CRT_DOUBLE@@@__crt_stdio_output@@YA?AU_CRT_DOUBLE@@PEAD@Z 0000000180284d1c f i libucrt:output.obj
 0001:00283d20       ??$peek_va_arg@_J@__crt_stdio_output@@YA_JPEAD@Z 0000000180284d20 f i libucrt:output.obj
 0001:00283d24       ??$peek_va_arg@_K@__crt_stdio_output@@YA_KPEAD@Z 0000000180284d24 f i libucrt:output.obj
 0001:00283d28       ??$peek_va_arg@_W@__crt_stdio_output@@YA_WPEAD@Z 0000000180284d28 f i libucrt:output.obj
 0001:00283d2c       ??$puttc_nolock_internal@AEBDPEAU_iobuf@@AEAV__crt_cached_ptd_host@@@?$__crt_char_traits@D@@SAHAEBD$$QEAPEAU_iobuf@@AEAV__crt_cached_ptd_host@@@Z 0000000180284d2c f i libucrt:output.obj
 0001:00283d3c       ??$puttc_nolock_internal@AEB_WPEAU_iobuf@@AEAV__crt_cached_ptd_host@@@?$__crt_char_traits@_W@@SAGAEB_W$$QEAPEAU_iobuf@@AEAV__crt_cached_ptd_host@@@Z 0000000180284d3c f i libucrt:output.obj
 0001:00283d4c       ??$read_va_arg@C@__crt_stdio_output@@YACAEAPEAD@Z 0000000180284d4c f i libucrt:output.obj
 0001:00283d5c       ??$read_va_arg@E@__crt_stdio_output@@YAEAEAPEAD@Z 0000000180284d5c f i libucrt:output.obj
 0001:00283d6c       ??$read_va_arg@F@__crt_stdio_output@@YAFAEAPEAD@Z 0000000180284d6c f i libucrt:output.obj
 0001:00283d80       ??$read_va_arg@G@__crt_stdio_output@@YAGAEAPEAD@Z 0000000180284d80 f i libucrt:output.obj
 0001:00283d94       ??$read_va_arg@H@__crt_stdio_output@@YAHAEAPEAD@Z 0000000180284d94 f i libucrt:output.obj
 0001:00283da4       ??$read_va_arg@I@__crt_stdio_output@@YAIAEAPEAD@Z 0000000180284da4 f i libucrt:output.obj
 0001:00283db4       ??$read_va_arg@PEAD@__crt_stdio_output@@YAPEADAEAPEAD@Z 0000000180284db4 f i libucrt:output.obj
 0001:00283dc8       ??$read_va_arg@PEAUansi_string@?1??type_case_Z@?$output_processor@DV?$stream_output_adapter@D@__crt_stdio_output@@V?$format_validation_base@DV?$stream_output_adapter@D@__crt_stdio_output@@@2@@__crt_stdio_output@@AEAA_NXZ@@__crt_stdio_output@@YAPEAUansi_string@?1??type_case_Z@?$output_processor@DV?$stream_output_adapter@D@__crt_stdio_output@@V?$format_validation_base@DV?$stream_output_adapter@D@__crt_stdio_output@@@2@@0@AEAA_NXZ@AEAPEAD@Z 0000000180284dc8 f i libucrt:output.obj
 0001:00283ddc       ??$read_va_arg@PEAUansi_string@?1??type_case_Z@?$output_processor@DV?$stream_output_adapter@D@__crt_stdio_output@@V?$positional_parameter_base@DV?$stream_output_adapter@D@__crt_stdio_output@@@2@@__crt_stdio_output@@AEAA_NXZ@@__crt_stdio_output@@YAPEAUansi_string@?1??type_case_Z@?$output_processor@DV?$stream_output_adapter@D@__crt_stdio_output@@V?$positional_parameter_base@DV?$stream_output_adapter@D@__crt_stdio_output@@@2@@0@AEAA_NXZ@AEAPEAD@Z 0000000180284ddc f i libucrt:output.obj
 0001:00283df0       ??$read_va_arg@PEAUansi_string@?1??type_case_Z@?$output_processor@DV?$stream_output_adapter@D@__crt_stdio_output@@V?$standard_base@DV?$stream_output_adapter@D@__crt_stdio_output@@@2@@__crt_stdio_output@@AEAA_NXZ@@__crt_stdio_output@@YAPEAUansi_string@?1??type_case_Z@?$output_processor@DV?$stream_output_adapter@D@__crt_stdio_output@@V?$standard_base@DV?$stream_output_adapter@D@__crt_stdio_output@@@2@@0@AEAA_NXZ@AEAPEAD@Z 0000000180284df0 f i libucrt:output.obj
 0001:00283e04       ??$read_va_arg@PEAUansi_string@?1??type_case_Z@?$output_processor@DV?$string_output_adapter@D@__crt_stdio_output@@V?$format_validation_base@DV?$string_output_adapter@D@__crt_stdio_output@@@2@@__crt_stdio_output@@AEAA_NXZ@@__crt_stdio_output@@YAPEAUansi_string@?1??type_case_Z@?$output_processor@DV?$string_output_adapter@D@__crt_stdio_output@@V?$format_validation_base@DV?$string_output_adapter@D@__crt_stdio_output@@@2@@0@AEAA_NXZ@AEAPEAD@Z 0000000180284e04 f i libucrt:output.obj
 0001:00283e18       ??$read_va_arg@PEAUansi_string@?1??type_case_Z@?$output_processor@DV?$string_output_adapter@D@__crt_stdio_output@@V?$positional_parameter_base@DV?$string_output_adapter@D@__crt_stdio_output@@@2@@__crt_stdio_output@@AEAA_NXZ@@__crt_stdio_output@@YAPEAUansi_string@?1??type_case_Z@?$output_processor@DV?$string_output_adapter@D@__crt_stdio_output@@V?$positional_parameter_base@DV?$string_output_adapter@D@__crt_stdio_output@@@2@@0@AEAA_NXZ@AEAPEAD@Z 0000000180284e18 f i libucrt:output.obj
 0001:00283e2c       ??$read_va_arg@PEAUansi_string@?1??type_case_Z@?$output_processor@DV?$string_output_adapter@D@__crt_stdio_output@@V?$standard_base@DV?$string_output_adapter@D@__crt_stdio_output@@@2@@__crt_stdio_output@@AEAA_NXZ@@__crt_stdio_output@@YAPEAUansi_string@?1??type_case_Z@?$output_processor@DV?$string_output_adapter@D@__crt_stdio_output@@V?$standard_base@DV?$string_output_adapter@D@__crt_stdio_output@@@2@@0@AEAA_NXZ@AEAPEAD@Z 0000000180284e2c f i libucrt:output.obj
 0001:00283e40       ??$read_va_arg@PEAUansi_string@?1??type_case_Z@?$output_processor@_WV?$stream_output_adapter@_W@__crt_stdio_output@@V?$format_validation_base@_WV?$stream_output_adapter@_W@__crt_stdio_output@@@2@@__crt_stdio_output@@AEAA_NXZ@@__crt_stdio_output@@YAPEAUansi_string@?1??type_case_Z@?$output_processor@_WV?$stream_output_adapter@_W@__crt_stdio_output@@V?$format_validation_base@_WV?$stream_output_adapter@_W@__crt_stdio_output@@@2@@0@AEAA_NXZ@AEAPEAD@Z 0000000180284e40 f i libucrt:output.obj
 0001:00283e54       ??$read_va_arg@PEAUansi_string@?1??type_case_Z@?$output_processor@_WV?$stream_output_adapter@_W@__crt_stdio_output@@V?$positional_parameter_base@_WV?$stream_output_adapter@_W@__crt_stdio_output@@@2@@__crt_stdio_output@@AEAA_NXZ@@__crt_stdio_output@@YAPEAUansi_string@?1??type_case_Z@?$output_processor@_WV?$stream_output_adapter@_W@__crt_stdio_output@@V?$positional_parameter_base@_WV?$stream_output_adapter@_W@__crt_stdio_output@@@2@@0@AEAA_NXZ@AEAPEAD@Z 0000000180284e54 f i libucrt:output.obj
 0001:00283e68       ??$read_va_arg@PEAUansi_string@?1??type_case_Z@?$output_processor@_WV?$stream_output_adapter@_W@__crt_stdio_output@@V?$standard_base@_WV?$stream_output_adapter@_W@__crt_stdio_output@@@2@@__crt_stdio_output@@AEAA_NXZ@@__crt_stdio_output@@YAPEAUansi_string@?1??type_case_Z@?$output_processor@_WV?$stream_output_adapter@_W@__crt_stdio_output@@V?$standard_base@_WV?$stream_output_adapter@_W@__crt_stdio_output@@@2@@0@AEAA_NXZ@AEAPEAD@Z 0000000180284e68 f i libucrt:output.obj
 0001:00283e7c       ??$read_va_arg@PEAUansi_string@?1??type_case_Z@?$output_processor@_WV?$string_output_adapter@_W@__crt_stdio_output@@V?$format_validation_base@_WV?$string_output_adapter@_W@__crt_stdio_output@@@2@@__crt_stdio_output@@AEAA_NXZ@@__crt_stdio_output@@YAPEAUansi_string@?1??type_case_Z@?$output_processor@_WV?$string_output_adapter@_W@__crt_stdio_output@@V?$format_validation_base@_WV?$string_output_adapter@_W@__crt_stdio_output@@@2@@0@AEAA_NXZ@AEAPEAD@Z 0000000180284e7c f i libucrt:output.obj
 0001:00283e90       ??$read_va_arg@PEAUansi_string@?1??type_case_Z@?$output_processor@_WV?$string_output_adapter@_W@__crt_stdio_output@@V?$positional_parameter_base@_WV?$string_output_adapter@_W@__crt_stdio_output@@@2@@__crt_stdio_output@@AEAA_NXZ@@__crt_stdio_output@@YAPEAUansi_string@?1??type_case_Z@?$output_processor@_WV?$string_output_adapter@_W@__crt_stdio_output@@V?$positional_parameter_base@_WV?$string_output_adapter@_W@__crt_stdio_output@@@2@@0@AEAA_NXZ@AEAPEAD@Z 0000000180284e90 f i libucrt:output.obj
 0001:00283ea4       ??$read_va_arg@PEAUansi_string@?1??type_case_Z@?$output_processor@_WV?$string_output_adapter@_W@__crt_stdio_output@@V?$standard_base@_WV?$string_output_adapter@_W@__crt_stdio_output@@@2@@__crt_stdio_output@@AEAA_NXZ@@__crt_stdio_output@@YAPEAUansi_string@?1??type_case_Z@?$output_processor@_WV?$string_output_adapter@_W@__crt_stdio_output@@V?$standard_base@_WV?$string_output_adapter@_W@__crt_stdio_output@@@2@@0@AEAA_NXZ@AEAPEAD@Z 0000000180284ea4 f i libucrt:output.obj
 0001:00283eb8       ??$read_va_arg@PEAX@__crt_stdio_output@@YAPEAXAEAPEAD@Z 0000000180284eb8 f i libucrt:output.obj
 0001:00283ecc       ??$read_va_arg@U_CRT_DOUBLE@@@__crt_stdio_output@@YA?AU_CRT_DOUBLE@@AEAPEAD@Z 0000000180284ecc f i libucrt:output.obj
 0001:00283ee0       ??$read_va_arg@_J@__crt_stdio_output@@YA_JAEAPEAD@Z 0000000180284ee0 f i libucrt:output.obj
 0001:00283ef4       ??$read_va_arg@_K@__crt_stdio_output@@YA_KAEAPEAD@Z 0000000180284ef4 f i libucrt:output.obj
 0001:00283f08       ??$read_va_arg@_W@__crt_stdio_output@@YA_WAEAPEAD@Z 0000000180284f08 f i libucrt:output.obj
 0001:00283f1c       ??$scratch_count@D@formatting_buffer@__crt_stdio_output@@QEBA_KXZ 0000000180284f1c f i libucrt:output.obj
 0001:00283f40       ??$scratch_data@D@formatting_buffer@__crt_stdio_output@@QEAAPEADXZ 0000000180284f40 f i libucrt:output.obj
 0001:00283f6c       ??$type_case_integer@$07@?$output_processor@DV?$stream_output_adapter@D@__crt_stdio_output@@V?$format_validation_base@DV?$stream_output_adapter@D@__crt_stdio_output@@@2@@__crt_stdio_output@@AEAA_N_N@Z 0000000180284f6c f i libucrt:output.obj
 0001:002841f0       ??$type_case_integer@$07@?$output_processor@DV?$stream_output_adapter@D@__crt_stdio_output@@V?$positional_parameter_base@DV?$stream_output_adapter@D@__crt_stdio_output@@@2@@__crt_stdio_output@@AEAA_N_N@Z 00000001802851f0 f i libucrt:output.obj
 0001:002844a8       ??$type_case_integer@$07@?$output_processor@DV?$stream_output_adapter@D@__crt_stdio_output@@V?$standard_base@DV?$stream_output_adapter@D@__crt_stdio_output@@@2@@__crt_stdio_output@@AEAA_N_N@Z 00000001802854a8 f i libucrt:output.obj
 0001:0028472c       ??$type_case_integer@$07@?$output_processor@DV?$string_output_adapter@D@__crt_stdio_output@@V?$format_validation_base@DV?$string_output_adapter@D@__crt_stdio_output@@@2@@__crt_stdio_output@@AEAA_N_N@Z 000000018028572c f i libucrt:output.obj
 0001:002849b0       ??$type_case_integer@$07@?$output_processor@DV?$string_output_adapter@D@__crt_stdio_output@@V?$positional_parameter_base@DV?$string_output_adapter@D@__crt_stdio_output@@@2@@__crt_stdio_output@@AEAA_N_N@Z 00000001802859b0 f i libucrt:output.obj
 0001:00284c68       ??$type_case_integer@$07@?$output_processor@DV?$string_output_adapter@D@__crt_stdio_output@@V?$standard_base@DV?$string_output_adapter@D@__crt_stdio_output@@@2@@__crt_stdio_output@@AEAA_N_N@Z 0000000180285c68 f i libucrt:output.obj
 0001:00284eec       ??$type_case_integer@$07@?$output_processor@_WV?$stream_output_adapter@_W@__crt_stdio_output@@V?$format_validation_base@_WV?$stream_output_adapter@_W@__crt_stdio_output@@@2@@__crt_stdio_output@@AEAA_N_N@Z 0000000180285eec f i libucrt:output.obj
 0001:00285178       ??$type_case_integer@$07@?$output_processor@_WV?$stream_output_adapter@_W@__crt_stdio_output@@V?$positional_parameter_base@_WV?$stream_output_adapter@_W@__crt_stdio_output@@@2@@__crt_stdio_output@@AEAA_N_N@Z 0000000180286178 f i libucrt:output.obj
 0001:00285438       ??$type_case_integer@$07@?$output_processor@_WV?$stream_output_adapter@_W@__crt_stdio_output@@V?$standard_base@_WV?$stream_output_adapter@_W@__crt_stdio_output@@@2@@__crt_stdio_output@@AEAA_N_N@Z 0000000180286438 f i libucrt:output.obj
 0001:002856c4       ??$type_case_integer@$07@?$output_processor@_WV?$string_output_adapter@_W@__crt_stdio_output@@V?$format_validation_base@_WV?$string_output_adapter@_W@__crt_stdio_output@@@2@@__crt_stdio_output@@AEAA_N_N@Z 00000001802866c4 f i libucrt:output.obj
 0001:00285950       ??$type_case_integer@$07@?$output_processor@_WV?$string_output_adapter@_W@__crt_stdio_output@@V?$positional_parameter_base@_WV?$string_output_adapter@_W@__crt_stdio_output@@@2@@__crt_stdio_output@@AEAA_N_N@Z 0000000180286950 f i libucrt:output.obj
 0001:00285c10       ??$type_case_integer@$07@?$output_processor@_WV?$string_output_adapter@_W@__crt_stdio_output@@V?$standard_base@_WV?$string_output_adapter@_W@__crt_stdio_output@@@2@@__crt_stdio_output@@AEAA_N_N@Z 0000000180286c10 f i libucrt:output.obj
 0001:00285e9c       ??$type_case_integer@$09@?$output_processor@DV?$stream_output_adapter@D@__crt_stdio_output@@V?$format_validation_base@DV?$stream_output_adapter@D@__crt_stdio_output@@@2@@__crt_stdio_output@@AEAA_N_N@Z 0000000180286e9c f i libucrt:output.obj
 0001:00286120       ??$type_case_integer@$09@?$output_processor@DV?$stream_output_adapter@D@__crt_stdio_output@@V?$positional_parameter_base@DV?$stream_output_adapter@D@__crt_stdio_output@@@2@@__crt_stdio_output@@AEAA_N_N@Z 0000000180287120 f i libucrt:output.obj
 0001:002863d8       ??$type_case_integer@$09@?$output_processor@DV?$stream_output_adapter@D@__crt_stdio_output@@V?$standard_base@DV?$stream_output_adapter@D@__crt_stdio_output@@@2@@__crt_stdio_output@@AEAA_N_N@Z 00000001802873d8 f i libucrt:output.obj
 0001:0028665c       ??$type_case_integer@$09@?$output_processor@DV?$string_output_adapter@D@__crt_stdio_output@@V?$format_validation_base@DV?$string_output_adapter@D@__crt_stdio_output@@@2@@__crt_stdio_output@@AEAA_N_N@Z 000000018028765c f i libucrt:output.obj
 0001:002868e0       ??$type_case_integer@$09@?$output_processor@DV?$string_output_adapter@D@__crt_stdio_output@@V?$positional_parameter_base@DV?$string_output_adapter@D@__crt_stdio_output@@@2@@__crt_stdio_output@@AEAA_N_N@Z 00000001802878e0 f i libucrt:output.obj
 0001:00286b98       ??$type_case_integer@$09@?$output_processor@DV?$string_output_adapter@D@__crt_stdio_output@@V?$standard_base@DV?$string_output_adapter@D@__crt_stdio_output@@@2@@__crt_stdio_output@@AEAA_N_N@Z 0000000180287b98 f i libucrt:output.obj
 0001:00286e1c       ??$type_case_integer@$09@?$output_processor@_WV?$stream_output_adapter@_W@__crt_stdio_output@@V?$format_validation_base@_WV?$stream_output_adapter@_W@__crt_stdio_output@@@2@@__crt_stdio_output@@AEAA_N_N@Z 0000000180287e1c f i libucrt:output.obj
 0001:002870a8       ??$type_case_integer@$09@?$output_processor@_WV?$stream_output_adapter@_W@__crt_stdio_output@@V?$positional_parameter_base@_WV?$stream_output_adapter@_W@__crt_stdio_output@@@2@@__crt_stdio_output@@AEAA_N_N@Z 00000001802880a8 f i libucrt:output.obj
 0001:00287368       ??$type_case_integer@$09@?$output_processor@_WV?$stream_output_adapter@_W@__crt_stdio_output@@V?$standard_base@_WV?$stream_output_adapter@_W@__crt_stdio_output@@@2@@__crt_stdio_output@@AEAA_N_N@Z 0000000180288368 f i libucrt:output.obj
